ARM GAS  C:\Users\theja\AppData\Local\Temp\ccGbJAvD.s 			page 1


   1              		.cpu cortex-m7
   2              		.eabi_attribute 28, 1
   3              		.eabi_attribute 20, 1
   4              		.eabi_attribute 21, 1
   5              		.eabi_attribute 23, 3
   6              		.eabi_attribute 24, 1
   7              		.eabi_attribute 25, 1
   8              		.eabi_attribute 26, 1
   9              		.eabi_attribute 30, 2
  10              		.eabi_attribute 34, 1
  11              		.eabi_attribute 18, 4
  12              		.file	"ChordSynth.cpp"
  13              		.text
  14              	.Ltext0:
  15              		.cfi_sections	.debug_frame
  16              		.section	.text._ZNSt13unordered_mapINSt7__cxx1112basic_stringIcSt11char_traitsIcESaIcEEEiSt4hashIS
  17              		.align	1
  18              		.p2align 2,,3
  19              		.weak	_ZNSt13unordered_mapINSt7__cxx1112basic_stringIcSt11char_traitsIcESaIcEEEiSt4hashIS5_ESt8equ
  20              		.arch armv7e-m
  21              		.syntax unified
  22              		.thumb
  23              		.thumb_func
  24              		.fpu fpv5-d16
  26              	_ZNSt13unordered_mapINSt7__cxx1112basic_stringIcSt11char_traitsIcESaIcEEEiSt4hashIS5_ESt8equal_toIS
  27              	.LVL0:
  28              	.LFB4200:
  29              		.file 1 "c:\\program files\\daisytoolchain\\arm-none-eabi\\include\\c++\\10.2.1\\bits\\unordered_m
   1:c:\program files\daisytoolchain\arm-none-eabi\include\c++\10.2.1\bits\unordered_map.h **** // unordered_map implementation -*- C++ -*-
   2:c:\program files\daisytoolchain\arm-none-eabi\include\c++\10.2.1\bits\unordered_map.h **** 
   3:c:\program files\daisytoolchain\arm-none-eabi\include\c++\10.2.1\bits\unordered_map.h **** // Copyright (C) 2010-2020 Free Software Foundation, Inc.
   4:c:\program files\daisytoolchain\arm-none-eabi\include\c++\10.2.1\bits\unordered_map.h **** //
   5:c:\program files\daisytoolchain\arm-none-eabi\include\c++\10.2.1\bits\unordered_map.h **** // This file is part of the GNU ISO C++ Library.  This library is free
   6:c:\program files\daisytoolchain\arm-none-eabi\include\c++\10.2.1\bits\unordered_map.h **** // software; you can redistribute it and/or modify it under the
   7:c:\program files\daisytoolchain\arm-none-eabi\include\c++\10.2.1\bits\unordered_map.h **** // terms of the GNU General Public License as published by the
   8:c:\program files\daisytoolchain\arm-none-eabi\include\c++\10.2.1\bits\unordered_map.h **** // Free Software Foundation; either version 3, or (at your option)
   9:c:\program files\daisytoolchain\arm-none-eabi\include\c++\10.2.1\bits\unordered_map.h **** // any later version.
  10:c:\program files\daisytoolchain\arm-none-eabi\include\c++\10.2.1\bits\unordered_map.h **** 
  11:c:\program files\daisytoolchain\arm-none-eabi\include\c++\10.2.1\bits\unordered_map.h **** // This library is distributed in the hope that it will be useful,
  12:c:\program files\daisytoolchain\arm-none-eabi\include\c++\10.2.1\bits\unordered_map.h **** // but WITHOUT ANY WARRANTY; without even the implied warranty of
  13:c:\program files\daisytoolchain\arm-none-eabi\include\c++\10.2.1\bits\unordered_map.h **** // MERCHANTABILITY or FITNESS FOR A PARTICULAR PURPOSE.  See the
  14:c:\program files\daisytoolchain\arm-none-eabi\include\c++\10.2.1\bits\unordered_map.h **** // GNU General Public License for more details.
  15:c:\program files\daisytoolchain\arm-none-eabi\include\c++\10.2.1\bits\unordered_map.h **** 
  16:c:\program files\daisytoolchain\arm-none-eabi\include\c++\10.2.1\bits\unordered_map.h **** // Under Section 7 of GPL version 3, you are granted additional
  17:c:\program files\daisytoolchain\arm-none-eabi\include\c++\10.2.1\bits\unordered_map.h **** // permissions described in the GCC Runtime Library Exception, version
  18:c:\program files\daisytoolchain\arm-none-eabi\include\c++\10.2.1\bits\unordered_map.h **** // 3.1, as published by the Free Software Foundation.
  19:c:\program files\daisytoolchain\arm-none-eabi\include\c++\10.2.1\bits\unordered_map.h **** 
  20:c:\program files\daisytoolchain\arm-none-eabi\include\c++\10.2.1\bits\unordered_map.h **** // You should have received a copy of the GNU General Public License and
  21:c:\program files\daisytoolchain\arm-none-eabi\include\c++\10.2.1\bits\unordered_map.h **** // a copy of the GCC Runtime Library Exception along with this program;
  22:c:\program files\daisytoolchain\arm-none-eabi\include\c++\10.2.1\bits\unordered_map.h **** // see the files COPYING3 and COPYING.RUNTIME respectively.  If not, see
  23:c:\program files\daisytoolchain\arm-none-eabi\include\c++\10.2.1\bits\unordered_map.h **** // <http://www.gnu.org/licenses/>.
  24:c:\program files\daisytoolchain\arm-none-eabi\include\c++\10.2.1\bits\unordered_map.h **** 
  25:c:\program files\daisytoolchain\arm-none-eabi\include\c++\10.2.1\bits\unordered_map.h **** /** @file bits/unordered_map.h
  26:c:\program files\daisytoolchain\arm-none-eabi\include\c++\10.2.1\bits\unordered_map.h ****  *  This is an internal header file, included by other library headers.
  27:c:\program files\daisytoolchain\arm-none-eabi\include\c++\10.2.1\bits\unordered_map.h ****  *  Do not attempt to use it directly. @headername{unordered_map}
  28:c:\program files\daisytoolchain\arm-none-eabi\include\c++\10.2.1\bits\unordered_map.h ****  */
  29:c:\program files\daisytoolchain\arm-none-eabi\include\c++\10.2.1\bits\unordered_map.h **** 
ARM GAS  C:\Users\theja\AppData\Local\Temp\ccGbJAvD.s 			page 2


  30:c:\program files\daisytoolchain\arm-none-eabi\include\c++\10.2.1\bits\unordered_map.h **** #ifndef _UNORDERED_MAP_H
  31:c:\program files\daisytoolchain\arm-none-eabi\include\c++\10.2.1\bits\unordered_map.h **** #define _UNORDERED_MAP_H
  32:c:\program files\daisytoolchain\arm-none-eabi\include\c++\10.2.1\bits\unordered_map.h **** 
  33:c:\program files\daisytoolchain\arm-none-eabi\include\c++\10.2.1\bits\unordered_map.h **** namespace std _GLIBCXX_VISIBILITY(default)
  34:c:\program files\daisytoolchain\arm-none-eabi\include\c++\10.2.1\bits\unordered_map.h **** {
  35:c:\program files\daisytoolchain\arm-none-eabi\include\c++\10.2.1\bits\unordered_map.h **** _GLIBCXX_BEGIN_NAMESPACE_VERSION
  36:c:\program files\daisytoolchain\arm-none-eabi\include\c++\10.2.1\bits\unordered_map.h **** _GLIBCXX_BEGIN_NAMESPACE_CONTAINER
  37:c:\program files\daisytoolchain\arm-none-eabi\include\c++\10.2.1\bits\unordered_map.h **** 
  38:c:\program files\daisytoolchain\arm-none-eabi\include\c++\10.2.1\bits\unordered_map.h ****   /// Base types for unordered_map.
  39:c:\program files\daisytoolchain\arm-none-eabi\include\c++\10.2.1\bits\unordered_map.h ****   template<bool _Cache>
  40:c:\program files\daisytoolchain\arm-none-eabi\include\c++\10.2.1\bits\unordered_map.h ****     using __umap_traits = __detail::_Hashtable_traits<_Cache, false, true>;
  41:c:\program files\daisytoolchain\arm-none-eabi\include\c++\10.2.1\bits\unordered_map.h **** 
  42:c:\program files\daisytoolchain\arm-none-eabi\include\c++\10.2.1\bits\unordered_map.h ****   template<typename _Key,
  43:c:\program files\daisytoolchain\arm-none-eabi\include\c++\10.2.1\bits\unordered_map.h **** 	   typename _Tp,
  44:c:\program files\daisytoolchain\arm-none-eabi\include\c++\10.2.1\bits\unordered_map.h **** 	   typename _Hash = hash<_Key>,
  45:c:\program files\daisytoolchain\arm-none-eabi\include\c++\10.2.1\bits\unordered_map.h **** 	   typename _Pred = std::equal_to<_Key>,
  46:c:\program files\daisytoolchain\arm-none-eabi\include\c++\10.2.1\bits\unordered_map.h **** 	   typename _Alloc = std::allocator<std::pair<const _Key, _Tp> >,
  47:c:\program files\daisytoolchain\arm-none-eabi\include\c++\10.2.1\bits\unordered_map.h **** 	   typename _Tr = __umap_traits<__cache_default<_Key, _Hash>::value>>
  48:c:\program files\daisytoolchain\arm-none-eabi\include\c++\10.2.1\bits\unordered_map.h ****     using __umap_hashtable = _Hashtable<_Key, std::pair<const _Key, _Tp>,
  49:c:\program files\daisytoolchain\arm-none-eabi\include\c++\10.2.1\bits\unordered_map.h ****                                         _Alloc, __detail::_Select1st,
  50:c:\program files\daisytoolchain\arm-none-eabi\include\c++\10.2.1\bits\unordered_map.h **** 				        _Pred, _Hash,
  51:c:\program files\daisytoolchain\arm-none-eabi\include\c++\10.2.1\bits\unordered_map.h **** 				        __detail::_Mod_range_hashing,
  52:c:\program files\daisytoolchain\arm-none-eabi\include\c++\10.2.1\bits\unordered_map.h **** 				        __detail::_Default_ranged_hash,
  53:c:\program files\daisytoolchain\arm-none-eabi\include\c++\10.2.1\bits\unordered_map.h **** 				        __detail::_Prime_rehash_policy, _Tr>;
  54:c:\program files\daisytoolchain\arm-none-eabi\include\c++\10.2.1\bits\unordered_map.h **** 
  55:c:\program files\daisytoolchain\arm-none-eabi\include\c++\10.2.1\bits\unordered_map.h ****   /// Base types for unordered_multimap.
  56:c:\program files\daisytoolchain\arm-none-eabi\include\c++\10.2.1\bits\unordered_map.h ****   template<bool _Cache>
  57:c:\program files\daisytoolchain\arm-none-eabi\include\c++\10.2.1\bits\unordered_map.h ****     using __ummap_traits = __detail::_Hashtable_traits<_Cache, false, false>;
  58:c:\program files\daisytoolchain\arm-none-eabi\include\c++\10.2.1\bits\unordered_map.h **** 
  59:c:\program files\daisytoolchain\arm-none-eabi\include\c++\10.2.1\bits\unordered_map.h ****   template<typename _Key,
  60:c:\program files\daisytoolchain\arm-none-eabi\include\c++\10.2.1\bits\unordered_map.h **** 	   typename _Tp,
  61:c:\program files\daisytoolchain\arm-none-eabi\include\c++\10.2.1\bits\unordered_map.h **** 	   typename _Hash = hash<_Key>,
  62:c:\program files\daisytoolchain\arm-none-eabi\include\c++\10.2.1\bits\unordered_map.h **** 	   typename _Pred = std::equal_to<_Key>,
  63:c:\program files\daisytoolchain\arm-none-eabi\include\c++\10.2.1\bits\unordered_map.h **** 	   typename _Alloc = std::allocator<std::pair<const _Key, _Tp> >,
  64:c:\program files\daisytoolchain\arm-none-eabi\include\c++\10.2.1\bits\unordered_map.h **** 	   typename _Tr = __ummap_traits<__cache_default<_Key, _Hash>::value>>
  65:c:\program files\daisytoolchain\arm-none-eabi\include\c++\10.2.1\bits\unordered_map.h ****     using __ummap_hashtable = _Hashtable<_Key, std::pair<const _Key, _Tp>,
  66:c:\program files\daisytoolchain\arm-none-eabi\include\c++\10.2.1\bits\unordered_map.h **** 					 _Alloc, __detail::_Select1st,
  67:c:\program files\daisytoolchain\arm-none-eabi\include\c++\10.2.1\bits\unordered_map.h **** 					 _Pred, _Hash,
  68:c:\program files\daisytoolchain\arm-none-eabi\include\c++\10.2.1\bits\unordered_map.h **** 					 __detail::_Mod_range_hashing,
  69:c:\program files\daisytoolchain\arm-none-eabi\include\c++\10.2.1\bits\unordered_map.h **** 					 __detail::_Default_ranged_hash,
  70:c:\program files\daisytoolchain\arm-none-eabi\include\c++\10.2.1\bits\unordered_map.h **** 					 __detail::_Prime_rehash_policy, _Tr>;
  71:c:\program files\daisytoolchain\arm-none-eabi\include\c++\10.2.1\bits\unordered_map.h **** 
  72:c:\program files\daisytoolchain\arm-none-eabi\include\c++\10.2.1\bits\unordered_map.h ****   template<class _Key, class _Tp, class _Hash, class _Pred, class _Alloc>
  73:c:\program files\daisytoolchain\arm-none-eabi\include\c++\10.2.1\bits\unordered_map.h ****     class unordered_multimap;
  74:c:\program files\daisytoolchain\arm-none-eabi\include\c++\10.2.1\bits\unordered_map.h **** 
  75:c:\program files\daisytoolchain\arm-none-eabi\include\c++\10.2.1\bits\unordered_map.h ****   /**
  76:c:\program files\daisytoolchain\arm-none-eabi\include\c++\10.2.1\bits\unordered_map.h ****    *  @brief A standard container composed of unique keys (containing
  77:c:\program files\daisytoolchain\arm-none-eabi\include\c++\10.2.1\bits\unordered_map.h ****    *  at most one of each key value) that associates values of another type
  78:c:\program files\daisytoolchain\arm-none-eabi\include\c++\10.2.1\bits\unordered_map.h ****    *  with the keys.
  79:c:\program files\daisytoolchain\arm-none-eabi\include\c++\10.2.1\bits\unordered_map.h ****    *
  80:c:\program files\daisytoolchain\arm-none-eabi\include\c++\10.2.1\bits\unordered_map.h ****    *  @ingroup unordered_associative_containers
  81:c:\program files\daisytoolchain\arm-none-eabi\include\c++\10.2.1\bits\unordered_map.h ****    *
  82:c:\program files\daisytoolchain\arm-none-eabi\include\c++\10.2.1\bits\unordered_map.h ****    *  @tparam  _Key    Type of key objects.
  83:c:\program files\daisytoolchain\arm-none-eabi\include\c++\10.2.1\bits\unordered_map.h ****    *  @tparam  _Tp     Type of mapped objects.
  84:c:\program files\daisytoolchain\arm-none-eabi\include\c++\10.2.1\bits\unordered_map.h ****    *  @tparam  _Hash   Hashing function object type, defaults to hash<_Value>.
  85:c:\program files\daisytoolchain\arm-none-eabi\include\c++\10.2.1\bits\unordered_map.h ****    *  @tparam  _Pred   Predicate function object type, defaults
  86:c:\program files\daisytoolchain\arm-none-eabi\include\c++\10.2.1\bits\unordered_map.h ****    *                   to equal_to<_Value>.
ARM GAS  C:\Users\theja\AppData\Local\Temp\ccGbJAvD.s 			page 3


  87:c:\program files\daisytoolchain\arm-none-eabi\include\c++\10.2.1\bits\unordered_map.h ****    *  @tparam  _Alloc  Allocator type, defaults to 
  88:c:\program files\daisytoolchain\arm-none-eabi\include\c++\10.2.1\bits\unordered_map.h ****    *                   std::allocator<std::pair<const _Key, _Tp>>.
  89:c:\program files\daisytoolchain\arm-none-eabi\include\c++\10.2.1\bits\unordered_map.h ****    *
  90:c:\program files\daisytoolchain\arm-none-eabi\include\c++\10.2.1\bits\unordered_map.h ****    *  Meets the requirements of a <a href="tables.html#65">container</a>, and
  91:c:\program files\daisytoolchain\arm-none-eabi\include\c++\10.2.1\bits\unordered_map.h ****    *  <a href="tables.html#xx">unordered associative container</a>
  92:c:\program files\daisytoolchain\arm-none-eabi\include\c++\10.2.1\bits\unordered_map.h ****    *
  93:c:\program files\daisytoolchain\arm-none-eabi\include\c++\10.2.1\bits\unordered_map.h ****    * The resulting value type of the container is std::pair<const _Key, _Tp>.
  94:c:\program files\daisytoolchain\arm-none-eabi\include\c++\10.2.1\bits\unordered_map.h ****    *
  95:c:\program files\daisytoolchain\arm-none-eabi\include\c++\10.2.1\bits\unordered_map.h ****    *  Base is _Hashtable, dispatched at compile time via template
  96:c:\program files\daisytoolchain\arm-none-eabi\include\c++\10.2.1\bits\unordered_map.h ****    *  alias __umap_hashtable.
  97:c:\program files\daisytoolchain\arm-none-eabi\include\c++\10.2.1\bits\unordered_map.h ****    */
  98:c:\program files\daisytoolchain\arm-none-eabi\include\c++\10.2.1\bits\unordered_map.h ****   template<typename _Key, typename _Tp,
  99:c:\program files\daisytoolchain\arm-none-eabi\include\c++\10.2.1\bits\unordered_map.h **** 	   typename _Hash = hash<_Key>,
 100:c:\program files\daisytoolchain\arm-none-eabi\include\c++\10.2.1\bits\unordered_map.h **** 	   typename _Pred = equal_to<_Key>,
 101:c:\program files\daisytoolchain\arm-none-eabi\include\c++\10.2.1\bits\unordered_map.h **** 	   typename _Alloc = allocator<std::pair<const _Key, _Tp>>>
 102:c:\program files\daisytoolchain\arm-none-eabi\include\c++\10.2.1\bits\unordered_map.h ****     class unordered_map
  30              		.loc 1 102 11 view -0
  31              		.cfi_startproc
  32              		@ args = 0, pretend = 0, frame = 0
  33              		@ frame_needed = 0, uses_anonymous_args = 0
  34              		.loc 1 102 11 is_stmt 0 view .LVU1
  35 0000 70B5     		push	{r4, r5, r6, lr}
  36              		.cfi_def_cfa_offset 16
  37              		.cfi_offset 4, -16
  38              		.cfi_offset 5, -12
  39              		.cfi_offset 6, -8
  40              		.cfi_offset 14, -4
  41              	.LBB1933:
  42              	.LBB1934:
  43              	.LBB1935:
  44              	.LBB1936:
  45              	.LBB1937:
  46              		.file 2 "c:\\program files\\daisytoolchain\\arm-none-eabi\\include\\c++\\10.2.1\\bits\\hashtable.h
   1:c:\program files\daisytoolchain\arm-none-eabi\include\c++\10.2.1\bits\hashtable.h **** // hashtable.h header -*- C++ -*-
   2:c:\program files\daisytoolchain\arm-none-eabi\include\c++\10.2.1\bits\hashtable.h **** 
   3:c:\program files\daisytoolchain\arm-none-eabi\include\c++\10.2.1\bits\hashtable.h **** // Copyright (C) 2007-2020 Free Software Foundation, Inc.
   4:c:\program files\daisytoolchain\arm-none-eabi\include\c++\10.2.1\bits\hashtable.h **** //
   5:c:\program files\daisytoolchain\arm-none-eabi\include\c++\10.2.1\bits\hashtable.h **** // This file is part of the GNU ISO C++ Library.  This library is free
   6:c:\program files\daisytoolchain\arm-none-eabi\include\c++\10.2.1\bits\hashtable.h **** // software; you can redistribute it and/or modify it under the
   7:c:\program files\daisytoolchain\arm-none-eabi\include\c++\10.2.1\bits\hashtable.h **** // terms of the GNU General Public License as published by the
   8:c:\program files\daisytoolchain\arm-none-eabi\include\c++\10.2.1\bits\hashtable.h **** // Free Software Foundation; either version 3, or (at your option)
   9:c:\program files\daisytoolchain\arm-none-eabi\include\c++\10.2.1\bits\hashtable.h **** // any later version.
  10:c:\program files\daisytoolchain\arm-none-eabi\include\c++\10.2.1\bits\hashtable.h **** 
  11:c:\program files\daisytoolchain\arm-none-eabi\include\c++\10.2.1\bits\hashtable.h **** // This library is distributed in the hope that it will be useful,
  12:c:\program files\daisytoolchain\arm-none-eabi\include\c++\10.2.1\bits\hashtable.h **** // but WITHOUT ANY WARRANTY; without even the implied warranty of
  13:c:\program files\daisytoolchain\arm-none-eabi\include\c++\10.2.1\bits\hashtable.h **** // MERCHANTABILITY or FITNESS FOR A PARTICULAR PURPOSE.  See the
  14:c:\program files\daisytoolchain\arm-none-eabi\include\c++\10.2.1\bits\hashtable.h **** // GNU General Public License for more details.
  15:c:\program files\daisytoolchain\arm-none-eabi\include\c++\10.2.1\bits\hashtable.h **** 
  16:c:\program files\daisytoolchain\arm-none-eabi\include\c++\10.2.1\bits\hashtable.h **** // Under Section 7 of GPL version 3, you are granted additional
  17:c:\program files\daisytoolchain\arm-none-eabi\include\c++\10.2.1\bits\hashtable.h **** // permissions described in the GCC Runtime Library Exception, version
  18:c:\program files\daisytoolchain\arm-none-eabi\include\c++\10.2.1\bits\hashtable.h **** // 3.1, as published by the Free Software Foundation.
  19:c:\program files\daisytoolchain\arm-none-eabi\include\c++\10.2.1\bits\hashtable.h **** 
  20:c:\program files\daisytoolchain\arm-none-eabi\include\c++\10.2.1\bits\hashtable.h **** // You should have received a copy of the GNU General Public License and
  21:c:\program files\daisytoolchain\arm-none-eabi\include\c++\10.2.1\bits\hashtable.h **** // a copy of the GCC Runtime Library Exception along with this program;
  22:c:\program files\daisytoolchain\arm-none-eabi\include\c++\10.2.1\bits\hashtable.h **** // see the files COPYING3 and COPYING.RUNTIME respectively.  If not, see
  23:c:\program files\daisytoolchain\arm-none-eabi\include\c++\10.2.1\bits\hashtable.h **** // <http://www.gnu.org/licenses/>.
  24:c:\program files\daisytoolchain\arm-none-eabi\include\c++\10.2.1\bits\hashtable.h **** 
ARM GAS  C:\Users\theja\AppData\Local\Temp\ccGbJAvD.s 			page 4


  25:c:\program files\daisytoolchain\arm-none-eabi\include\c++\10.2.1\bits\hashtable.h **** /** @file bits/hashtable.h
  26:c:\program files\daisytoolchain\arm-none-eabi\include\c++\10.2.1\bits\hashtable.h ****  *  This is an internal header file, included by other library headers.
  27:c:\program files\daisytoolchain\arm-none-eabi\include\c++\10.2.1\bits\hashtable.h ****  *  Do not attempt to use it directly. @headername{unordered_map, unordered_set}
  28:c:\program files\daisytoolchain\arm-none-eabi\include\c++\10.2.1\bits\hashtable.h ****  */
  29:c:\program files\daisytoolchain\arm-none-eabi\include\c++\10.2.1\bits\hashtable.h **** 
  30:c:\program files\daisytoolchain\arm-none-eabi\include\c++\10.2.1\bits\hashtable.h **** #ifndef _HASHTABLE_H
  31:c:\program files\daisytoolchain\arm-none-eabi\include\c++\10.2.1\bits\hashtable.h **** #define _HASHTABLE_H 1
  32:c:\program files\daisytoolchain\arm-none-eabi\include\c++\10.2.1\bits\hashtable.h **** 
  33:c:\program files\daisytoolchain\arm-none-eabi\include\c++\10.2.1\bits\hashtable.h **** #pragma GCC system_header
  34:c:\program files\daisytoolchain\arm-none-eabi\include\c++\10.2.1\bits\hashtable.h **** 
  35:c:\program files\daisytoolchain\arm-none-eabi\include\c++\10.2.1\bits\hashtable.h **** #include <bits/hashtable_policy.h>
  36:c:\program files\daisytoolchain\arm-none-eabi\include\c++\10.2.1\bits\hashtable.h **** #if __cplusplus > 201402L
  37:c:\program files\daisytoolchain\arm-none-eabi\include\c++\10.2.1\bits\hashtable.h **** # include <bits/node_handle.h>
  38:c:\program files\daisytoolchain\arm-none-eabi\include\c++\10.2.1\bits\hashtable.h **** #endif
  39:c:\program files\daisytoolchain\arm-none-eabi\include\c++\10.2.1\bits\hashtable.h **** 
  40:c:\program files\daisytoolchain\arm-none-eabi\include\c++\10.2.1\bits\hashtable.h **** namespace std _GLIBCXX_VISIBILITY(default)
  41:c:\program files\daisytoolchain\arm-none-eabi\include\c++\10.2.1\bits\hashtable.h **** {
  42:c:\program files\daisytoolchain\arm-none-eabi\include\c++\10.2.1\bits\hashtable.h **** _GLIBCXX_BEGIN_NAMESPACE_VERSION
  43:c:\program files\daisytoolchain\arm-none-eabi\include\c++\10.2.1\bits\hashtable.h **** 
  44:c:\program files\daisytoolchain\arm-none-eabi\include\c++\10.2.1\bits\hashtable.h ****   template<typename _Tp, typename _Hash>
  45:c:\program files\daisytoolchain\arm-none-eabi\include\c++\10.2.1\bits\hashtable.h ****     using __cache_default
  46:c:\program files\daisytoolchain\arm-none-eabi\include\c++\10.2.1\bits\hashtable.h ****       =  __not_<__and_<// Do not cache for fast hasher.
  47:c:\program files\daisytoolchain\arm-none-eabi\include\c++\10.2.1\bits\hashtable.h **** 		       __is_fast_hash<_Hash>,
  48:c:\program files\daisytoolchain\arm-none-eabi\include\c++\10.2.1\bits\hashtable.h **** 		       // Mandatory to have erase not throwing.
  49:c:\program files\daisytoolchain\arm-none-eabi\include\c++\10.2.1\bits\hashtable.h **** 		       __is_nothrow_invocable<const _Hash&, const _Tp&>>>;
  50:c:\program files\daisytoolchain\arm-none-eabi\include\c++\10.2.1\bits\hashtable.h **** 
  51:c:\program files\daisytoolchain\arm-none-eabi\include\c++\10.2.1\bits\hashtable.h ****   /**
  52:c:\program files\daisytoolchain\arm-none-eabi\include\c++\10.2.1\bits\hashtable.h ****    *  Primary class template _Hashtable.
  53:c:\program files\daisytoolchain\arm-none-eabi\include\c++\10.2.1\bits\hashtable.h ****    *
  54:c:\program files\daisytoolchain\arm-none-eabi\include\c++\10.2.1\bits\hashtable.h ****    *  @ingroup hashtable-detail
  55:c:\program files\daisytoolchain\arm-none-eabi\include\c++\10.2.1\bits\hashtable.h ****    *
  56:c:\program files\daisytoolchain\arm-none-eabi\include\c++\10.2.1\bits\hashtable.h ****    *  @tparam _Value  CopyConstructible type.
  57:c:\program files\daisytoolchain\arm-none-eabi\include\c++\10.2.1\bits\hashtable.h ****    *
  58:c:\program files\daisytoolchain\arm-none-eabi\include\c++\10.2.1\bits\hashtable.h ****    *  @tparam _Key    CopyConstructible type.
  59:c:\program files\daisytoolchain\arm-none-eabi\include\c++\10.2.1\bits\hashtable.h ****    *
  60:c:\program files\daisytoolchain\arm-none-eabi\include\c++\10.2.1\bits\hashtable.h ****    *  @tparam _Alloc  An allocator type
  61:c:\program files\daisytoolchain\arm-none-eabi\include\c++\10.2.1\bits\hashtable.h ****    *  ([lib.allocator.requirements]) whose _Alloc::value_type is
  62:c:\program files\daisytoolchain\arm-none-eabi\include\c++\10.2.1\bits\hashtable.h ****    *  _Value.  As a conforming extension, we allow for
  63:c:\program files\daisytoolchain\arm-none-eabi\include\c++\10.2.1\bits\hashtable.h ****    *  _Alloc::value_type != _Value.
  64:c:\program files\daisytoolchain\arm-none-eabi\include\c++\10.2.1\bits\hashtable.h ****    *
  65:c:\program files\daisytoolchain\arm-none-eabi\include\c++\10.2.1\bits\hashtable.h ****    *  @tparam _ExtractKey  Function object that takes an object of type
  66:c:\program files\daisytoolchain\arm-none-eabi\include\c++\10.2.1\bits\hashtable.h ****    *  _Value and returns a value of type _Key.
  67:c:\program files\daisytoolchain\arm-none-eabi\include\c++\10.2.1\bits\hashtable.h ****    *
  68:c:\program files\daisytoolchain\arm-none-eabi\include\c++\10.2.1\bits\hashtable.h ****    *  @tparam _Equal  Function object that takes two objects of type k
  69:c:\program files\daisytoolchain\arm-none-eabi\include\c++\10.2.1\bits\hashtable.h ****    *  and returns a bool-like value that is true if the two objects
  70:c:\program files\daisytoolchain\arm-none-eabi\include\c++\10.2.1\bits\hashtable.h ****    *  are considered equal.
  71:c:\program files\daisytoolchain\arm-none-eabi\include\c++\10.2.1\bits\hashtable.h ****    *
  72:c:\program files\daisytoolchain\arm-none-eabi\include\c++\10.2.1\bits\hashtable.h ****    *  @tparam _H1  The hash function. A unary function object with
  73:c:\program files\daisytoolchain\arm-none-eabi\include\c++\10.2.1\bits\hashtable.h ****    *  argument type _Key and result type size_t. Return values should
  74:c:\program files\daisytoolchain\arm-none-eabi\include\c++\10.2.1\bits\hashtable.h ****    *  be distributed over the entire range [0, numeric_limits<size_t>:::max()].
  75:c:\program files\daisytoolchain\arm-none-eabi\include\c++\10.2.1\bits\hashtable.h ****    *
  76:c:\program files\daisytoolchain\arm-none-eabi\include\c++\10.2.1\bits\hashtable.h ****    *  @tparam _H2  The range-hashing function (in the terminology of
  77:c:\program files\daisytoolchain\arm-none-eabi\include\c++\10.2.1\bits\hashtable.h ****    *  Tavori and Dreizin).  A binary function object whose argument
  78:c:\program files\daisytoolchain\arm-none-eabi\include\c++\10.2.1\bits\hashtable.h ****    *  types and result type are all size_t.  Given arguments r and N,
  79:c:\program files\daisytoolchain\arm-none-eabi\include\c++\10.2.1\bits\hashtable.h ****    *  the return value is in the range [0, N).
  80:c:\program files\daisytoolchain\arm-none-eabi\include\c++\10.2.1\bits\hashtable.h ****    *
  81:c:\program files\daisytoolchain\arm-none-eabi\include\c++\10.2.1\bits\hashtable.h ****    *  @tparam _Hash  The ranged hash function (Tavori and Dreizin). A
ARM GAS  C:\Users\theja\AppData\Local\Temp\ccGbJAvD.s 			page 5


  82:c:\program files\daisytoolchain\arm-none-eabi\include\c++\10.2.1\bits\hashtable.h ****    *  binary function whose argument types are _Key and size_t and
  83:c:\program files\daisytoolchain\arm-none-eabi\include\c++\10.2.1\bits\hashtable.h ****    *  whose result type is size_t.  Given arguments k and N, the
  84:c:\program files\daisytoolchain\arm-none-eabi\include\c++\10.2.1\bits\hashtable.h ****    *  return value is in the range [0, N).  Default: hash(k, N) =
  85:c:\program files\daisytoolchain\arm-none-eabi\include\c++\10.2.1\bits\hashtable.h ****    *  h2(h1(k), N).  If _Hash is anything other than the default, _H1
  86:c:\program files\daisytoolchain\arm-none-eabi\include\c++\10.2.1\bits\hashtable.h ****    *  and _H2 are ignored.
  87:c:\program files\daisytoolchain\arm-none-eabi\include\c++\10.2.1\bits\hashtable.h ****    *
  88:c:\program files\daisytoolchain\arm-none-eabi\include\c++\10.2.1\bits\hashtable.h ****    *  @tparam _RehashPolicy  Policy class with three members, all of
  89:c:\program files\daisytoolchain\arm-none-eabi\include\c++\10.2.1\bits\hashtable.h ****    *  which govern the bucket count. _M_next_bkt(n) returns a bucket
  90:c:\program files\daisytoolchain\arm-none-eabi\include\c++\10.2.1\bits\hashtable.h ****    *  count no smaller than n.  _M_bkt_for_elements(n) returns a
  91:c:\program files\daisytoolchain\arm-none-eabi\include\c++\10.2.1\bits\hashtable.h ****    *  bucket count appropriate for an element count of n.
  92:c:\program files\daisytoolchain\arm-none-eabi\include\c++\10.2.1\bits\hashtable.h ****    *  _M_need_rehash(n_bkt, n_elt, n_ins) determines whether, if the
  93:c:\program files\daisytoolchain\arm-none-eabi\include\c++\10.2.1\bits\hashtable.h ****    *  current bucket count is n_bkt and the current element count is
  94:c:\program files\daisytoolchain\arm-none-eabi\include\c++\10.2.1\bits\hashtable.h ****    *  n_elt, we need to increase the bucket count.  If so, returns
  95:c:\program files\daisytoolchain\arm-none-eabi\include\c++\10.2.1\bits\hashtable.h ****    *  make_pair(true, n), where n is the new bucket count.  If not,
  96:c:\program files\daisytoolchain\arm-none-eabi\include\c++\10.2.1\bits\hashtable.h ****    *  returns make_pair(false, <anything>)
  97:c:\program files\daisytoolchain\arm-none-eabi\include\c++\10.2.1\bits\hashtable.h ****    *
  98:c:\program files\daisytoolchain\arm-none-eabi\include\c++\10.2.1\bits\hashtable.h ****    *  @tparam _Traits  Compile-time class with three boolean
  99:c:\program files\daisytoolchain\arm-none-eabi\include\c++\10.2.1\bits\hashtable.h ****    *  std::integral_constant members:  __cache_hash_code, __constant_iterators,
 100:c:\program files\daisytoolchain\arm-none-eabi\include\c++\10.2.1\bits\hashtable.h ****    *   __unique_keys.
 101:c:\program files\daisytoolchain\arm-none-eabi\include\c++\10.2.1\bits\hashtable.h ****    *
 102:c:\program files\daisytoolchain\arm-none-eabi\include\c++\10.2.1\bits\hashtable.h ****    *  Each _Hashtable data structure has:
 103:c:\program files\daisytoolchain\arm-none-eabi\include\c++\10.2.1\bits\hashtable.h ****    *
 104:c:\program files\daisytoolchain\arm-none-eabi\include\c++\10.2.1\bits\hashtable.h ****    *  - _Bucket[]       _M_buckets
 105:c:\program files\daisytoolchain\arm-none-eabi\include\c++\10.2.1\bits\hashtable.h ****    *  - _Hash_node_base _M_before_begin
 106:c:\program files\daisytoolchain\arm-none-eabi\include\c++\10.2.1\bits\hashtable.h ****    *  - size_type       _M_bucket_count
 107:c:\program files\daisytoolchain\arm-none-eabi\include\c++\10.2.1\bits\hashtable.h ****    *  - size_type       _M_element_count
 108:c:\program files\daisytoolchain\arm-none-eabi\include\c++\10.2.1\bits\hashtable.h ****    *
 109:c:\program files\daisytoolchain\arm-none-eabi\include\c++\10.2.1\bits\hashtable.h ****    *  with _Bucket being _Hash_node* and _Hash_node containing:
 110:c:\program files\daisytoolchain\arm-none-eabi\include\c++\10.2.1\bits\hashtable.h ****    *
 111:c:\program files\daisytoolchain\arm-none-eabi\include\c++\10.2.1\bits\hashtable.h ****    *  - _Hash_node*   _M_next
 112:c:\program files\daisytoolchain\arm-none-eabi\include\c++\10.2.1\bits\hashtable.h ****    *  - Tp            _M_value
 113:c:\program files\daisytoolchain\arm-none-eabi\include\c++\10.2.1\bits\hashtable.h ****    *  - size_t        _M_hash_code if cache_hash_code is true
 114:c:\program files\daisytoolchain\arm-none-eabi\include\c++\10.2.1\bits\hashtable.h ****    *
 115:c:\program files\daisytoolchain\arm-none-eabi\include\c++\10.2.1\bits\hashtable.h ****    *  In terms of Standard containers the hashtable is like the aggregation of:
 116:c:\program files\daisytoolchain\arm-none-eabi\include\c++\10.2.1\bits\hashtable.h ****    *
 117:c:\program files\daisytoolchain\arm-none-eabi\include\c++\10.2.1\bits\hashtable.h ****    *  - std::forward_list<_Node> containing the elements
 118:c:\program files\daisytoolchain\arm-none-eabi\include\c++\10.2.1\bits\hashtable.h ****    *  - std::vector<std::forward_list<_Node>::iterator> representing the buckets
 119:c:\program files\daisytoolchain\arm-none-eabi\include\c++\10.2.1\bits\hashtable.h ****    *
 120:c:\program files\daisytoolchain\arm-none-eabi\include\c++\10.2.1\bits\hashtable.h ****    *  The non-empty buckets contain the node before the first node in the
 121:c:\program files\daisytoolchain\arm-none-eabi\include\c++\10.2.1\bits\hashtable.h ****    *  bucket. This design makes it possible to implement something like a
 122:c:\program files\daisytoolchain\arm-none-eabi\include\c++\10.2.1\bits\hashtable.h ****    *  std::forward_list::insert_after on container insertion and
 123:c:\program files\daisytoolchain\arm-none-eabi\include\c++\10.2.1\bits\hashtable.h ****    *  std::forward_list::erase_after on container erase
 124:c:\program files\daisytoolchain\arm-none-eabi\include\c++\10.2.1\bits\hashtable.h ****    *  calls. _M_before_begin is equivalent to
 125:c:\program files\daisytoolchain\arm-none-eabi\include\c++\10.2.1\bits\hashtable.h ****    *  std::forward_list::before_begin. Empty buckets contain
 126:c:\program files\daisytoolchain\arm-none-eabi\include\c++\10.2.1\bits\hashtable.h ****    *  nullptr.  Note that one of the non-empty buckets contains
 127:c:\program files\daisytoolchain\arm-none-eabi\include\c++\10.2.1\bits\hashtable.h ****    *  &_M_before_begin which is not a dereferenceable node so the
 128:c:\program files\daisytoolchain\arm-none-eabi\include\c++\10.2.1\bits\hashtable.h ****    *  node pointer in a bucket shall never be dereferenced, only its
 129:c:\program files\daisytoolchain\arm-none-eabi\include\c++\10.2.1\bits\hashtable.h ****    *  next node can be.
 130:c:\program files\daisytoolchain\arm-none-eabi\include\c++\10.2.1\bits\hashtable.h ****    *
 131:c:\program files\daisytoolchain\arm-none-eabi\include\c++\10.2.1\bits\hashtable.h ****    *  Walking through a bucket's nodes requires a check on the hash code to
 132:c:\program files\daisytoolchain\arm-none-eabi\include\c++\10.2.1\bits\hashtable.h ****    *  see if each node is still in the bucket. Such a design assumes a
 133:c:\program files\daisytoolchain\arm-none-eabi\include\c++\10.2.1\bits\hashtable.h ****    *  quite efficient hash functor and is one of the reasons it is
 134:c:\program files\daisytoolchain\arm-none-eabi\include\c++\10.2.1\bits\hashtable.h ****    *  highly advisable to set __cache_hash_code to true.
 135:c:\program files\daisytoolchain\arm-none-eabi\include\c++\10.2.1\bits\hashtable.h ****    *
 136:c:\program files\daisytoolchain\arm-none-eabi\include\c++\10.2.1\bits\hashtable.h ****    *  The container iterators are simply built from nodes. This way
 137:c:\program files\daisytoolchain\arm-none-eabi\include\c++\10.2.1\bits\hashtable.h ****    *  incrementing the iterator is perfectly efficient independent of
 138:c:\program files\daisytoolchain\arm-none-eabi\include\c++\10.2.1\bits\hashtable.h ****    *  how many empty buckets there are in the container.
ARM GAS  C:\Users\theja\AppData\Local\Temp\ccGbJAvD.s 			page 6


 139:c:\program files\daisytoolchain\arm-none-eabi\include\c++\10.2.1\bits\hashtable.h ****    *
 140:c:\program files\daisytoolchain\arm-none-eabi\include\c++\10.2.1\bits\hashtable.h ****    *  On insert we compute the element's hash code and use it to find the
 141:c:\program files\daisytoolchain\arm-none-eabi\include\c++\10.2.1\bits\hashtable.h ****    *  bucket index. If the element must be inserted in an empty bucket
 142:c:\program files\daisytoolchain\arm-none-eabi\include\c++\10.2.1\bits\hashtable.h ****    *  we add it at the beginning of the singly linked list and make the
 143:c:\program files\daisytoolchain\arm-none-eabi\include\c++\10.2.1\bits\hashtable.h ****    *  bucket point to _M_before_begin. The bucket that used to point to
 144:c:\program files\daisytoolchain\arm-none-eabi\include\c++\10.2.1\bits\hashtable.h ****    *  _M_before_begin, if any, is updated to point to its new before
 145:c:\program files\daisytoolchain\arm-none-eabi\include\c++\10.2.1\bits\hashtable.h ****    *  begin node.
 146:c:\program files\daisytoolchain\arm-none-eabi\include\c++\10.2.1\bits\hashtable.h ****    *
 147:c:\program files\daisytoolchain\arm-none-eabi\include\c++\10.2.1\bits\hashtable.h ****    *  On erase, the simple iterator design requires using the hash
 148:c:\program files\daisytoolchain\arm-none-eabi\include\c++\10.2.1\bits\hashtable.h ****    *  functor to get the index of the bucket to update. For this
 149:c:\program files\daisytoolchain\arm-none-eabi\include\c++\10.2.1\bits\hashtable.h ****    *  reason, when __cache_hash_code is set to false the hash functor must
 150:c:\program files\daisytoolchain\arm-none-eabi\include\c++\10.2.1\bits\hashtable.h ****    *  not throw and this is enforced by a static assertion.
 151:c:\program files\daisytoolchain\arm-none-eabi\include\c++\10.2.1\bits\hashtable.h ****    *
 152:c:\program files\daisytoolchain\arm-none-eabi\include\c++\10.2.1\bits\hashtable.h ****    *  Functionality is implemented by decomposition into base classes,
 153:c:\program files\daisytoolchain\arm-none-eabi\include\c++\10.2.1\bits\hashtable.h ****    *  where the derived _Hashtable class is used in _Map_base,
 154:c:\program files\daisytoolchain\arm-none-eabi\include\c++\10.2.1\bits\hashtable.h ****    *  _Insert, _Rehash_base, and _Equality base classes to access the
 155:c:\program files\daisytoolchain\arm-none-eabi\include\c++\10.2.1\bits\hashtable.h ****    *  "this" pointer. _Hashtable_base is used in the base classes as a
 156:c:\program files\daisytoolchain\arm-none-eabi\include\c++\10.2.1\bits\hashtable.h ****    *  non-recursive, fully-completed-type so that detailed nested type
 157:c:\program files\daisytoolchain\arm-none-eabi\include\c++\10.2.1\bits\hashtable.h ****    *  information, such as iterator type and node type, can be
 158:c:\program files\daisytoolchain\arm-none-eabi\include\c++\10.2.1\bits\hashtable.h ****    *  used. This is similar to the "Curiously Recurring Template
 159:c:\program files\daisytoolchain\arm-none-eabi\include\c++\10.2.1\bits\hashtable.h ****    *  Pattern" (CRTP) technique, but uses a reconstructed, not
 160:c:\program files\daisytoolchain\arm-none-eabi\include\c++\10.2.1\bits\hashtable.h ****    *  explicitly passed, template pattern.
 161:c:\program files\daisytoolchain\arm-none-eabi\include\c++\10.2.1\bits\hashtable.h ****    *
 162:c:\program files\daisytoolchain\arm-none-eabi\include\c++\10.2.1\bits\hashtable.h ****    *  Base class templates are: 
 163:c:\program files\daisytoolchain\arm-none-eabi\include\c++\10.2.1\bits\hashtable.h ****    *    - __detail::_Hashtable_base
 164:c:\program files\daisytoolchain\arm-none-eabi\include\c++\10.2.1\bits\hashtable.h ****    *    - __detail::_Map_base
 165:c:\program files\daisytoolchain\arm-none-eabi\include\c++\10.2.1\bits\hashtable.h ****    *    - __detail::_Insert
 166:c:\program files\daisytoolchain\arm-none-eabi\include\c++\10.2.1\bits\hashtable.h ****    *    - __detail::_Rehash_base
 167:c:\program files\daisytoolchain\arm-none-eabi\include\c++\10.2.1\bits\hashtable.h ****    *    - __detail::_Equality
 168:c:\program files\daisytoolchain\arm-none-eabi\include\c++\10.2.1\bits\hashtable.h ****    */
 169:c:\program files\daisytoolchain\arm-none-eabi\include\c++\10.2.1\bits\hashtable.h ****   template<typename _Key, typename _Value, typename _Alloc,
 170:c:\program files\daisytoolchain\arm-none-eabi\include\c++\10.2.1\bits\hashtable.h **** 	   typename _ExtractKey, typename _Equal,
 171:c:\program files\daisytoolchain\arm-none-eabi\include\c++\10.2.1\bits\hashtable.h **** 	   typename _H1, typename _H2, typename _Hash,
 172:c:\program files\daisytoolchain\arm-none-eabi\include\c++\10.2.1\bits\hashtable.h **** 	   typename _RehashPolicy, typename _Traits>
 173:c:\program files\daisytoolchain\arm-none-eabi\include\c++\10.2.1\bits\hashtable.h ****     class _Hashtable
 174:c:\program files\daisytoolchain\arm-none-eabi\include\c++\10.2.1\bits\hashtable.h ****     : public __detail::_Hashtable_base<_Key, _Value, _ExtractKey, _Equal,
 175:c:\program files\daisytoolchain\arm-none-eabi\include\c++\10.2.1\bits\hashtable.h **** 				       _H1, _H2, _Hash, _Traits>,
 176:c:\program files\daisytoolchain\arm-none-eabi\include\c++\10.2.1\bits\hashtable.h ****       public __detail::_Map_base<_Key, _Value, _Alloc, _ExtractKey, _Equal,
 177:c:\program files\daisytoolchain\arm-none-eabi\include\c++\10.2.1\bits\hashtable.h **** 				 _H1, _H2, _Hash, _RehashPolicy, _Traits>,
 178:c:\program files\daisytoolchain\arm-none-eabi\include\c++\10.2.1\bits\hashtable.h ****       public __detail::_Insert<_Key, _Value, _Alloc, _ExtractKey, _Equal,
 179:c:\program files\daisytoolchain\arm-none-eabi\include\c++\10.2.1\bits\hashtable.h **** 			       _H1, _H2, _Hash, _RehashPolicy, _Traits>,
 180:c:\program files\daisytoolchain\arm-none-eabi\include\c++\10.2.1\bits\hashtable.h ****       public __detail::_Rehash_base<_Key, _Value, _Alloc, _ExtractKey, _Equal,
 181:c:\program files\daisytoolchain\arm-none-eabi\include\c++\10.2.1\bits\hashtable.h **** 				    _H1, _H2, _Hash, _RehashPolicy, _Traits>,
 182:c:\program files\daisytoolchain\arm-none-eabi\include\c++\10.2.1\bits\hashtable.h ****       public __detail::_Equality<_Key, _Value, _Alloc, _ExtractKey, _Equal,
 183:c:\program files\daisytoolchain\arm-none-eabi\include\c++\10.2.1\bits\hashtable.h **** 				 _H1, _H2, _Hash, _RehashPolicy, _Traits>,
 184:c:\program files\daisytoolchain\arm-none-eabi\include\c++\10.2.1\bits\hashtable.h ****       private __detail::_Hashtable_alloc<
 185:c:\program files\daisytoolchain\arm-none-eabi\include\c++\10.2.1\bits\hashtable.h **** 	__alloc_rebind<_Alloc,
 186:c:\program files\daisytoolchain\arm-none-eabi\include\c++\10.2.1\bits\hashtable.h **** 		       __detail::_Hash_node<_Value,
 187:c:\program files\daisytoolchain\arm-none-eabi\include\c++\10.2.1\bits\hashtable.h **** 					    _Traits::__hash_cached::value>>>
 188:c:\program files\daisytoolchain\arm-none-eabi\include\c++\10.2.1\bits\hashtable.h ****     {
 189:c:\program files\daisytoolchain\arm-none-eabi\include\c++\10.2.1\bits\hashtable.h ****       static_assert(is_same<typename remove_cv<_Value>::type, _Value>::value,
 190:c:\program files\daisytoolchain\arm-none-eabi\include\c++\10.2.1\bits\hashtable.h **** 	  "unordered container must have a non-const, non-volatile value_type");
 191:c:\program files\daisytoolchain\arm-none-eabi\include\c++\10.2.1\bits\hashtable.h **** #if __cplusplus > 201703L || defined __STRICT_ANSI__
 192:c:\program files\daisytoolchain\arm-none-eabi\include\c++\10.2.1\bits\hashtable.h ****       static_assert(is_same<typename _Alloc::value_type, _Value>{},
 193:c:\program files\daisytoolchain\arm-none-eabi\include\c++\10.2.1\bits\hashtable.h **** 	  "unordered container must have the same value_type as its allocator");
 194:c:\program files\daisytoolchain\arm-none-eabi\include\c++\10.2.1\bits\hashtable.h **** #endif
 195:c:\program files\daisytoolchain\arm-none-eabi\include\c++\10.2.1\bits\hashtable.h **** 
ARM GAS  C:\Users\theja\AppData\Local\Temp\ccGbJAvD.s 			page 7


 196:c:\program files\daisytoolchain\arm-none-eabi\include\c++\10.2.1\bits\hashtable.h ****       using __traits_type = _Traits;
 197:c:\program files\daisytoolchain\arm-none-eabi\include\c++\10.2.1\bits\hashtable.h ****       using __hash_cached = typename __traits_type::__hash_cached;
 198:c:\program files\daisytoolchain\arm-none-eabi\include\c++\10.2.1\bits\hashtable.h ****       using __node_type = __detail::_Hash_node<_Value, __hash_cached::value>;
 199:c:\program files\daisytoolchain\arm-none-eabi\include\c++\10.2.1\bits\hashtable.h ****       using __node_alloc_type = __alloc_rebind<_Alloc, __node_type>;
 200:c:\program files\daisytoolchain\arm-none-eabi\include\c++\10.2.1\bits\hashtable.h **** 
 201:c:\program files\daisytoolchain\arm-none-eabi\include\c++\10.2.1\bits\hashtable.h ****       using __hashtable_alloc = __detail::_Hashtable_alloc<__node_alloc_type>;
 202:c:\program files\daisytoolchain\arm-none-eabi\include\c++\10.2.1\bits\hashtable.h **** 
 203:c:\program files\daisytoolchain\arm-none-eabi\include\c++\10.2.1\bits\hashtable.h ****       using __value_alloc_traits =
 204:c:\program files\daisytoolchain\arm-none-eabi\include\c++\10.2.1\bits\hashtable.h **** 	typename __hashtable_alloc::__value_alloc_traits;
 205:c:\program files\daisytoolchain\arm-none-eabi\include\c++\10.2.1\bits\hashtable.h ****       using __node_alloc_traits =
 206:c:\program files\daisytoolchain\arm-none-eabi\include\c++\10.2.1\bits\hashtable.h **** 	typename __hashtable_alloc::__node_alloc_traits;
 207:c:\program files\daisytoolchain\arm-none-eabi\include\c++\10.2.1\bits\hashtable.h ****       using __node_base = typename __hashtable_alloc::__node_base;
 208:c:\program files\daisytoolchain\arm-none-eabi\include\c++\10.2.1\bits\hashtable.h ****       using __bucket_type = typename __hashtable_alloc::__bucket_type;
 209:c:\program files\daisytoolchain\arm-none-eabi\include\c++\10.2.1\bits\hashtable.h **** 
 210:c:\program files\daisytoolchain\arm-none-eabi\include\c++\10.2.1\bits\hashtable.h ****     public:
 211:c:\program files\daisytoolchain\arm-none-eabi\include\c++\10.2.1\bits\hashtable.h ****       typedef _Key						key_type;
 212:c:\program files\daisytoolchain\arm-none-eabi\include\c++\10.2.1\bits\hashtable.h ****       typedef _Value						value_type;
 213:c:\program files\daisytoolchain\arm-none-eabi\include\c++\10.2.1\bits\hashtable.h ****       typedef _Alloc						allocator_type;
 214:c:\program files\daisytoolchain\arm-none-eabi\include\c++\10.2.1\bits\hashtable.h ****       typedef _Equal						key_equal;
 215:c:\program files\daisytoolchain\arm-none-eabi\include\c++\10.2.1\bits\hashtable.h **** 
 216:c:\program files\daisytoolchain\arm-none-eabi\include\c++\10.2.1\bits\hashtable.h ****       // mapped_type, if present, comes from _Map_base.
 217:c:\program files\daisytoolchain\arm-none-eabi\include\c++\10.2.1\bits\hashtable.h ****       // hasher, if present, comes from _Hash_code_base/_Hashtable_base.
 218:c:\program files\daisytoolchain\arm-none-eabi\include\c++\10.2.1\bits\hashtable.h ****       typedef typename __value_alloc_traits::pointer		pointer;
 219:c:\program files\daisytoolchain\arm-none-eabi\include\c++\10.2.1\bits\hashtable.h ****       typedef typename __value_alloc_traits::const_pointer	const_pointer;
 220:c:\program files\daisytoolchain\arm-none-eabi\include\c++\10.2.1\bits\hashtable.h ****       typedef value_type&					reference;
 221:c:\program files\daisytoolchain\arm-none-eabi\include\c++\10.2.1\bits\hashtable.h ****       typedef const value_type&					const_reference;
 222:c:\program files\daisytoolchain\arm-none-eabi\include\c++\10.2.1\bits\hashtable.h **** 
 223:c:\program files\daisytoolchain\arm-none-eabi\include\c++\10.2.1\bits\hashtable.h ****     private:
 224:c:\program files\daisytoolchain\arm-none-eabi\include\c++\10.2.1\bits\hashtable.h ****       using __rehash_type = _RehashPolicy;
 225:c:\program files\daisytoolchain\arm-none-eabi\include\c++\10.2.1\bits\hashtable.h ****       using __rehash_state = typename __rehash_type::_State;
 226:c:\program files\daisytoolchain\arm-none-eabi\include\c++\10.2.1\bits\hashtable.h **** 
 227:c:\program files\daisytoolchain\arm-none-eabi\include\c++\10.2.1\bits\hashtable.h ****       using __constant_iterators = typename __traits_type::__constant_iterators;
 228:c:\program files\daisytoolchain\arm-none-eabi\include\c++\10.2.1\bits\hashtable.h ****       using __unique_keys = typename __traits_type::__unique_keys;
 229:c:\program files\daisytoolchain\arm-none-eabi\include\c++\10.2.1\bits\hashtable.h **** 
 230:c:\program files\daisytoolchain\arm-none-eabi\include\c++\10.2.1\bits\hashtable.h ****       using __key_extract = typename std::conditional<
 231:c:\program files\daisytoolchain\arm-none-eabi\include\c++\10.2.1\bits\hashtable.h **** 					     __constant_iterators::value,
 232:c:\program files\daisytoolchain\arm-none-eabi\include\c++\10.2.1\bits\hashtable.h **** 				       	     __detail::_Identity,
 233:c:\program files\daisytoolchain\arm-none-eabi\include\c++\10.2.1\bits\hashtable.h **** 					     __detail::_Select1st>::type;
 234:c:\program files\daisytoolchain\arm-none-eabi\include\c++\10.2.1\bits\hashtable.h **** 
 235:c:\program files\daisytoolchain\arm-none-eabi\include\c++\10.2.1\bits\hashtable.h ****       using __hashtable_base = __detail::
 236:c:\program files\daisytoolchain\arm-none-eabi\include\c++\10.2.1\bits\hashtable.h **** 			       _Hashtable_base<_Key, _Value, _ExtractKey,
 237:c:\program files\daisytoolchain\arm-none-eabi\include\c++\10.2.1\bits\hashtable.h **** 					      _Equal, _H1, _H2, _Hash, _Traits>;
 238:c:\program files\daisytoolchain\arm-none-eabi\include\c++\10.2.1\bits\hashtable.h **** 
 239:c:\program files\daisytoolchain\arm-none-eabi\include\c++\10.2.1\bits\hashtable.h ****       using __hash_code_base =  typename __hashtable_base::__hash_code_base;
 240:c:\program files\daisytoolchain\arm-none-eabi\include\c++\10.2.1\bits\hashtable.h ****       using __hash_code =  typename __hashtable_base::__hash_code;
 241:c:\program files\daisytoolchain\arm-none-eabi\include\c++\10.2.1\bits\hashtable.h ****       using __ireturn_type = typename __hashtable_base::__ireturn_type;
 242:c:\program files\daisytoolchain\arm-none-eabi\include\c++\10.2.1\bits\hashtable.h **** 
 243:c:\program files\daisytoolchain\arm-none-eabi\include\c++\10.2.1\bits\hashtable.h ****       using __map_base = __detail::_Map_base<_Key, _Value, _Alloc, _ExtractKey,
 244:c:\program files\daisytoolchain\arm-none-eabi\include\c++\10.2.1\bits\hashtable.h **** 					     _Equal, _H1, _H2, _Hash,
 245:c:\program files\daisytoolchain\arm-none-eabi\include\c++\10.2.1\bits\hashtable.h **** 					     _RehashPolicy, _Traits>;
 246:c:\program files\daisytoolchain\arm-none-eabi\include\c++\10.2.1\bits\hashtable.h **** 
 247:c:\program files\daisytoolchain\arm-none-eabi\include\c++\10.2.1\bits\hashtable.h ****       using __rehash_base = __detail::_Rehash_base<_Key, _Value, _Alloc,
 248:c:\program files\daisytoolchain\arm-none-eabi\include\c++\10.2.1\bits\hashtable.h **** 						   _ExtractKey, _Equal,
 249:c:\program files\daisytoolchain\arm-none-eabi\include\c++\10.2.1\bits\hashtable.h **** 						   _H1, _H2, _Hash,
 250:c:\program files\daisytoolchain\arm-none-eabi\include\c++\10.2.1\bits\hashtable.h **** 						   _RehashPolicy, _Traits>;
 251:c:\program files\daisytoolchain\arm-none-eabi\include\c++\10.2.1\bits\hashtable.h **** 
 252:c:\program files\daisytoolchain\arm-none-eabi\include\c++\10.2.1\bits\hashtable.h ****       using __eq_base = __detail::_Equality<_Key, _Value, _Alloc, _ExtractKey,
ARM GAS  C:\Users\theja\AppData\Local\Temp\ccGbJAvD.s 			page 8


 253:c:\program files\daisytoolchain\arm-none-eabi\include\c++\10.2.1\bits\hashtable.h **** 					    _Equal, _H1, _H2, _Hash,
 254:c:\program files\daisytoolchain\arm-none-eabi\include\c++\10.2.1\bits\hashtable.h **** 					    _RehashPolicy, _Traits>;
 255:c:\program files\daisytoolchain\arm-none-eabi\include\c++\10.2.1\bits\hashtable.h **** 
 256:c:\program files\daisytoolchain\arm-none-eabi\include\c++\10.2.1\bits\hashtable.h ****       using __reuse_or_alloc_node_gen_t =
 257:c:\program files\daisytoolchain\arm-none-eabi\include\c++\10.2.1\bits\hashtable.h **** 	__detail::_ReuseOrAllocNode<__node_alloc_type>;
 258:c:\program files\daisytoolchain\arm-none-eabi\include\c++\10.2.1\bits\hashtable.h ****       using __alloc_node_gen_t =
 259:c:\program files\daisytoolchain\arm-none-eabi\include\c++\10.2.1\bits\hashtable.h **** 	__detail::_AllocNode<__node_alloc_type>;
 260:c:\program files\daisytoolchain\arm-none-eabi\include\c++\10.2.1\bits\hashtable.h **** 
 261:c:\program files\daisytoolchain\arm-none-eabi\include\c++\10.2.1\bits\hashtable.h ****       // Simple RAII type for managing a node containing an element
 262:c:\program files\daisytoolchain\arm-none-eabi\include\c++\10.2.1\bits\hashtable.h ****       struct _Scoped_node
 263:c:\program files\daisytoolchain\arm-none-eabi\include\c++\10.2.1\bits\hashtable.h ****       {
 264:c:\program files\daisytoolchain\arm-none-eabi\include\c++\10.2.1\bits\hashtable.h **** 	// Take ownership of a node with a constructed element.
 265:c:\program files\daisytoolchain\arm-none-eabi\include\c++\10.2.1\bits\hashtable.h **** 	_Scoped_node(__node_type* __n, __hashtable_alloc* __h)
 266:c:\program files\daisytoolchain\arm-none-eabi\include\c++\10.2.1\bits\hashtable.h **** 	: _M_h(__h), _M_node(__n) { }
 267:c:\program files\daisytoolchain\arm-none-eabi\include\c++\10.2.1\bits\hashtable.h **** 
 268:c:\program files\daisytoolchain\arm-none-eabi\include\c++\10.2.1\bits\hashtable.h **** 	// Allocate a node and construct an element within it.
 269:c:\program files\daisytoolchain\arm-none-eabi\include\c++\10.2.1\bits\hashtable.h **** 	template<typename... _Args>
 270:c:\program files\daisytoolchain\arm-none-eabi\include\c++\10.2.1\bits\hashtable.h **** 	  _Scoped_node(__hashtable_alloc* __h, _Args&&... __args)
 271:c:\program files\daisytoolchain\arm-none-eabi\include\c++\10.2.1\bits\hashtable.h **** 	  : _M_h(__h),
 272:c:\program files\daisytoolchain\arm-none-eabi\include\c++\10.2.1\bits\hashtable.h **** 	    _M_node(__h->_M_allocate_node(std::forward<_Args>(__args)...))
 273:c:\program files\daisytoolchain\arm-none-eabi\include\c++\10.2.1\bits\hashtable.h **** 	  { }
 274:c:\program files\daisytoolchain\arm-none-eabi\include\c++\10.2.1\bits\hashtable.h **** 
 275:c:\program files\daisytoolchain\arm-none-eabi\include\c++\10.2.1\bits\hashtable.h **** 	// Destroy element and deallocate node.
 276:c:\program files\daisytoolchain\arm-none-eabi\include\c++\10.2.1\bits\hashtable.h **** 	~_Scoped_node() { if (_M_node) _M_h->_M_deallocate_node(_M_node); };
 277:c:\program files\daisytoolchain\arm-none-eabi\include\c++\10.2.1\bits\hashtable.h **** 
 278:c:\program files\daisytoolchain\arm-none-eabi\include\c++\10.2.1\bits\hashtable.h **** 	_Scoped_node(const _Scoped_node&) = delete;
 279:c:\program files\daisytoolchain\arm-none-eabi\include\c++\10.2.1\bits\hashtable.h **** 	_Scoped_node& operator=(const _Scoped_node&) = delete;
 280:c:\program files\daisytoolchain\arm-none-eabi\include\c++\10.2.1\bits\hashtable.h **** 
 281:c:\program files\daisytoolchain\arm-none-eabi\include\c++\10.2.1\bits\hashtable.h **** 	__hashtable_alloc* _M_h;
 282:c:\program files\daisytoolchain\arm-none-eabi\include\c++\10.2.1\bits\hashtable.h **** 	__node_type* _M_node;
 283:c:\program files\daisytoolchain\arm-none-eabi\include\c++\10.2.1\bits\hashtable.h ****       };
 284:c:\program files\daisytoolchain\arm-none-eabi\include\c++\10.2.1\bits\hashtable.h **** 
 285:c:\program files\daisytoolchain\arm-none-eabi\include\c++\10.2.1\bits\hashtable.h ****       template<typename _Ht>
 286:c:\program files\daisytoolchain\arm-none-eabi\include\c++\10.2.1\bits\hashtable.h **** 	static constexpr
 287:c:\program files\daisytoolchain\arm-none-eabi\include\c++\10.2.1\bits\hashtable.h **** 	typename conditional<std::is_lvalue_reference<_Ht>::value,
 288:c:\program files\daisytoolchain\arm-none-eabi\include\c++\10.2.1\bits\hashtable.h **** 			     const value_type&, value_type&&>::type
 289:c:\program files\daisytoolchain\arm-none-eabi\include\c++\10.2.1\bits\hashtable.h **** 	__fwd_value_for(value_type& __val) noexcept
 290:c:\program files\daisytoolchain\arm-none-eabi\include\c++\10.2.1\bits\hashtable.h **** 	{ return std::move(__val); }
 291:c:\program files\daisytoolchain\arm-none-eabi\include\c++\10.2.1\bits\hashtable.h **** 
 292:c:\program files\daisytoolchain\arm-none-eabi\include\c++\10.2.1\bits\hashtable.h ****       // Metaprogramming for picking apart hash caching.
 293:c:\program files\daisytoolchain\arm-none-eabi\include\c++\10.2.1\bits\hashtable.h ****       template<typename _Cond>
 294:c:\program files\daisytoolchain\arm-none-eabi\include\c++\10.2.1\bits\hashtable.h **** 	using __if_hash_cached = __or_<__not_<__hash_cached>, _Cond>;
 295:c:\program files\daisytoolchain\arm-none-eabi\include\c++\10.2.1\bits\hashtable.h **** 
 296:c:\program files\daisytoolchain\arm-none-eabi\include\c++\10.2.1\bits\hashtable.h ****       template<typename _Cond>
 297:c:\program files\daisytoolchain\arm-none-eabi\include\c++\10.2.1\bits\hashtable.h **** 	using __if_hash_not_cached = __or_<__hash_cached, _Cond>;
 298:c:\program files\daisytoolchain\arm-none-eabi\include\c++\10.2.1\bits\hashtable.h **** 
 299:c:\program files\daisytoolchain\arm-none-eabi\include\c++\10.2.1\bits\hashtable.h ****       // Compile-time diagnostics.
 300:c:\program files\daisytoolchain\arm-none-eabi\include\c++\10.2.1\bits\hashtable.h **** 
 301:c:\program files\daisytoolchain\arm-none-eabi\include\c++\10.2.1\bits\hashtable.h ****       // _Hash_code_base has everything protected, so use this derived type to
 302:c:\program files\daisytoolchain\arm-none-eabi\include\c++\10.2.1\bits\hashtable.h ****       // access it.
 303:c:\program files\daisytoolchain\arm-none-eabi\include\c++\10.2.1\bits\hashtable.h ****       struct __hash_code_base_access : __hash_code_base
 304:c:\program files\daisytoolchain\arm-none-eabi\include\c++\10.2.1\bits\hashtable.h ****       { using __hash_code_base::_M_bucket_index; };
 305:c:\program files\daisytoolchain\arm-none-eabi\include\c++\10.2.1\bits\hashtable.h **** 
 306:c:\program files\daisytoolchain\arm-none-eabi\include\c++\10.2.1\bits\hashtable.h ****       // Getting a bucket index from a node shall not throw because it is used
 307:c:\program files\daisytoolchain\arm-none-eabi\include\c++\10.2.1\bits\hashtable.h ****       // in methods (erase, swap...) that shall not throw.
 308:c:\program files\daisytoolchain\arm-none-eabi\include\c++\10.2.1\bits\hashtable.h ****       static_assert(noexcept(declval<const __hash_code_base_access&>()
 309:c:\program files\daisytoolchain\arm-none-eabi\include\c++\10.2.1\bits\hashtable.h **** 			     ._M_bucket_index((const __node_type*)nullptr,
ARM GAS  C:\Users\theja\AppData\Local\Temp\ccGbJAvD.s 			page 9


 310:c:\program files\daisytoolchain\arm-none-eabi\include\c++\10.2.1\bits\hashtable.h **** 					      (std::size_t)0)),
 311:c:\program files\daisytoolchain\arm-none-eabi\include\c++\10.2.1\bits\hashtable.h **** 		    "Cache the hash code or qualify your functors involved"
 312:c:\program files\daisytoolchain\arm-none-eabi\include\c++\10.2.1\bits\hashtable.h **** 		    " in hash code and bucket index computation with noexcept");
 313:c:\program files\daisytoolchain\arm-none-eabi\include\c++\10.2.1\bits\hashtable.h **** 
 314:c:\program files\daisytoolchain\arm-none-eabi\include\c++\10.2.1\bits\hashtable.h ****       // When hash codes are cached local iterator inherits from H2 functor
 315:c:\program files\daisytoolchain\arm-none-eabi\include\c++\10.2.1\bits\hashtable.h ****       // which must then be default constructible.
 316:c:\program files\daisytoolchain\arm-none-eabi\include\c++\10.2.1\bits\hashtable.h ****       static_assert(__if_hash_cached<is_default_constructible<_H2>>::value,
 317:c:\program files\daisytoolchain\arm-none-eabi\include\c++\10.2.1\bits\hashtable.h **** 		    "Functor used to map hash code to bucket index"
 318:c:\program files\daisytoolchain\arm-none-eabi\include\c++\10.2.1\bits\hashtable.h **** 		    " must be default constructible");
 319:c:\program files\daisytoolchain\arm-none-eabi\include\c++\10.2.1\bits\hashtable.h **** 
 320:c:\program files\daisytoolchain\arm-none-eabi\include\c++\10.2.1\bits\hashtable.h ****       template<typename _Keya, typename _Valuea, typename _Alloca,
 321:c:\program files\daisytoolchain\arm-none-eabi\include\c++\10.2.1\bits\hashtable.h **** 	       typename _ExtractKeya, typename _Equala,
 322:c:\program files\daisytoolchain\arm-none-eabi\include\c++\10.2.1\bits\hashtable.h **** 	       typename _H1a, typename _H2a, typename _Hasha,
 323:c:\program files\daisytoolchain\arm-none-eabi\include\c++\10.2.1\bits\hashtable.h **** 	       typename _RehashPolicya, typename _Traitsa,
 324:c:\program files\daisytoolchain\arm-none-eabi\include\c++\10.2.1\bits\hashtable.h **** 	       bool _Unique_keysa>
 325:c:\program files\daisytoolchain\arm-none-eabi\include\c++\10.2.1\bits\hashtable.h **** 	friend struct __detail::_Map_base;
 326:c:\program files\daisytoolchain\arm-none-eabi\include\c++\10.2.1\bits\hashtable.h **** 
 327:c:\program files\daisytoolchain\arm-none-eabi\include\c++\10.2.1\bits\hashtable.h ****       template<typename _Keya, typename _Valuea, typename _Alloca,
 328:c:\program files\daisytoolchain\arm-none-eabi\include\c++\10.2.1\bits\hashtable.h **** 	       typename _ExtractKeya, typename _Equala,
 329:c:\program files\daisytoolchain\arm-none-eabi\include\c++\10.2.1\bits\hashtable.h **** 	       typename _H1a, typename _H2a, typename _Hasha,
 330:c:\program files\daisytoolchain\arm-none-eabi\include\c++\10.2.1\bits\hashtable.h **** 	       typename _RehashPolicya, typename _Traitsa>
 331:c:\program files\daisytoolchain\arm-none-eabi\include\c++\10.2.1\bits\hashtable.h **** 	friend struct __detail::_Insert_base;
 332:c:\program files\daisytoolchain\arm-none-eabi\include\c++\10.2.1\bits\hashtable.h **** 
 333:c:\program files\daisytoolchain\arm-none-eabi\include\c++\10.2.1\bits\hashtable.h ****       template<typename _Keya, typename _Valuea, typename _Alloca,
 334:c:\program files\daisytoolchain\arm-none-eabi\include\c++\10.2.1\bits\hashtable.h **** 	       typename _ExtractKeya, typename _Equala,
 335:c:\program files\daisytoolchain\arm-none-eabi\include\c++\10.2.1\bits\hashtable.h **** 	       typename _H1a, typename _H2a, typename _Hasha,
 336:c:\program files\daisytoolchain\arm-none-eabi\include\c++\10.2.1\bits\hashtable.h **** 	       typename _RehashPolicya, typename _Traitsa,
 337:c:\program files\daisytoolchain\arm-none-eabi\include\c++\10.2.1\bits\hashtable.h **** 	       bool _Constant_iteratorsa>
 338:c:\program files\daisytoolchain\arm-none-eabi\include\c++\10.2.1\bits\hashtable.h **** 	friend struct __detail::_Insert;
 339:c:\program files\daisytoolchain\arm-none-eabi\include\c++\10.2.1\bits\hashtable.h **** 
 340:c:\program files\daisytoolchain\arm-none-eabi\include\c++\10.2.1\bits\hashtable.h ****       template<typename _Keya, typename _Valuea, typename _Alloca,
 341:c:\program files\daisytoolchain\arm-none-eabi\include\c++\10.2.1\bits\hashtable.h **** 	       typename _ExtractKeya, typename _Equala,
 342:c:\program files\daisytoolchain\arm-none-eabi\include\c++\10.2.1\bits\hashtable.h **** 	       typename _H1a, typename _H2a, typename _Hasha,
 343:c:\program files\daisytoolchain\arm-none-eabi\include\c++\10.2.1\bits\hashtable.h **** 	       typename _RehashPolicya, typename _Traitsa,
 344:c:\program files\daisytoolchain\arm-none-eabi\include\c++\10.2.1\bits\hashtable.h **** 	       bool _Unique_keysa>
 345:c:\program files\daisytoolchain\arm-none-eabi\include\c++\10.2.1\bits\hashtable.h **** 	friend struct __detail::_Equality;
 346:c:\program files\daisytoolchain\arm-none-eabi\include\c++\10.2.1\bits\hashtable.h **** 
 347:c:\program files\daisytoolchain\arm-none-eabi\include\c++\10.2.1\bits\hashtable.h ****     public:
 348:c:\program files\daisytoolchain\arm-none-eabi\include\c++\10.2.1\bits\hashtable.h ****       using size_type = typename __hashtable_base::size_type;
 349:c:\program files\daisytoolchain\arm-none-eabi\include\c++\10.2.1\bits\hashtable.h ****       using difference_type = typename __hashtable_base::difference_type;
 350:c:\program files\daisytoolchain\arm-none-eabi\include\c++\10.2.1\bits\hashtable.h **** 
 351:c:\program files\daisytoolchain\arm-none-eabi\include\c++\10.2.1\bits\hashtable.h ****       using iterator = typename __hashtable_base::iterator;
 352:c:\program files\daisytoolchain\arm-none-eabi\include\c++\10.2.1\bits\hashtable.h ****       using const_iterator = typename __hashtable_base::const_iterator;
 353:c:\program files\daisytoolchain\arm-none-eabi\include\c++\10.2.1\bits\hashtable.h **** 
 354:c:\program files\daisytoolchain\arm-none-eabi\include\c++\10.2.1\bits\hashtable.h ****       using local_iterator = typename __hashtable_base::local_iterator;
 355:c:\program files\daisytoolchain\arm-none-eabi\include\c++\10.2.1\bits\hashtable.h ****       using const_local_iterator = typename __hashtable_base::
 356:c:\program files\daisytoolchain\arm-none-eabi\include\c++\10.2.1\bits\hashtable.h **** 				   const_local_iterator;
 357:c:\program files\daisytoolchain\arm-none-eabi\include\c++\10.2.1\bits\hashtable.h **** 
 358:c:\program files\daisytoolchain\arm-none-eabi\include\c++\10.2.1\bits\hashtable.h **** #if __cplusplus > 201402L
 359:c:\program files\daisytoolchain\arm-none-eabi\include\c++\10.2.1\bits\hashtable.h ****       using node_type = _Node_handle<_Key, _Value, __node_alloc_type>;
 360:c:\program files\daisytoolchain\arm-none-eabi\include\c++\10.2.1\bits\hashtable.h ****       using insert_return_type = _Node_insert_return<iterator, node_type>;
 361:c:\program files\daisytoolchain\arm-none-eabi\include\c++\10.2.1\bits\hashtable.h **** #endif
 362:c:\program files\daisytoolchain\arm-none-eabi\include\c++\10.2.1\bits\hashtable.h **** 
 363:c:\program files\daisytoolchain\arm-none-eabi\include\c++\10.2.1\bits\hashtable.h ****     private:
 364:c:\program files\daisytoolchain\arm-none-eabi\include\c++\10.2.1\bits\hashtable.h ****       __bucket_type*		_M_buckets		= &_M_single_bucket;
 365:c:\program files\daisytoolchain\arm-none-eabi\include\c++\10.2.1\bits\hashtable.h ****       size_type			_M_bucket_count		= 1;
 366:c:\program files\daisytoolchain\arm-none-eabi\include\c++\10.2.1\bits\hashtable.h ****       __node_base		_M_before_begin;
ARM GAS  C:\Users\theja\AppData\Local\Temp\ccGbJAvD.s 			page 10


 367:c:\program files\daisytoolchain\arm-none-eabi\include\c++\10.2.1\bits\hashtable.h ****       size_type			_M_element_count	= 0;
 368:c:\program files\daisytoolchain\arm-none-eabi\include\c++\10.2.1\bits\hashtable.h ****       _RehashPolicy		_M_rehash_policy;
 369:c:\program files\daisytoolchain\arm-none-eabi\include\c++\10.2.1\bits\hashtable.h **** 
 370:c:\program files\daisytoolchain\arm-none-eabi\include\c++\10.2.1\bits\hashtable.h ****       // A single bucket used when only need for 1 bucket. Especially
 371:c:\program files\daisytoolchain\arm-none-eabi\include\c++\10.2.1\bits\hashtable.h ****       // interesting in move semantic to leave hashtable with only 1 bucket
 372:c:\program files\daisytoolchain\arm-none-eabi\include\c++\10.2.1\bits\hashtable.h ****       // which is not allocated so that we can have those operations noexcept
 373:c:\program files\daisytoolchain\arm-none-eabi\include\c++\10.2.1\bits\hashtable.h ****       // qualified.
 374:c:\program files\daisytoolchain\arm-none-eabi\include\c++\10.2.1\bits\hashtable.h ****       // Note that we can't leave hashtable with 0 bucket without adding
 375:c:\program files\daisytoolchain\arm-none-eabi\include\c++\10.2.1\bits\hashtable.h ****       // numerous checks in the code to avoid 0 modulus.
 376:c:\program files\daisytoolchain\arm-none-eabi\include\c++\10.2.1\bits\hashtable.h ****       __bucket_type		_M_single_bucket	= nullptr;
 377:c:\program files\daisytoolchain\arm-none-eabi\include\c++\10.2.1\bits\hashtable.h **** 
 378:c:\program files\daisytoolchain\arm-none-eabi\include\c++\10.2.1\bits\hashtable.h ****       bool
 379:c:\program files\daisytoolchain\arm-none-eabi\include\c++\10.2.1\bits\hashtable.h ****       _M_uses_single_bucket(__bucket_type* __bkts) const
 380:c:\program files\daisytoolchain\arm-none-eabi\include\c++\10.2.1\bits\hashtable.h ****       { return __builtin_expect(__bkts == &_M_single_bucket, false); }
 381:c:\program files\daisytoolchain\arm-none-eabi\include\c++\10.2.1\bits\hashtable.h **** 
 382:c:\program files\daisytoolchain\arm-none-eabi\include\c++\10.2.1\bits\hashtable.h ****       bool
 383:c:\program files\daisytoolchain\arm-none-eabi\include\c++\10.2.1\bits\hashtable.h ****       _M_uses_single_bucket() const
 384:c:\program files\daisytoolchain\arm-none-eabi\include\c++\10.2.1\bits\hashtable.h ****       { return _M_uses_single_bucket(_M_buckets); }
 385:c:\program files\daisytoolchain\arm-none-eabi\include\c++\10.2.1\bits\hashtable.h **** 
 386:c:\program files\daisytoolchain\arm-none-eabi\include\c++\10.2.1\bits\hashtable.h ****       __hashtable_alloc&
 387:c:\program files\daisytoolchain\arm-none-eabi\include\c++\10.2.1\bits\hashtable.h ****       _M_base_alloc() { return *this; }
 388:c:\program files\daisytoolchain\arm-none-eabi\include\c++\10.2.1\bits\hashtable.h **** 
 389:c:\program files\daisytoolchain\arm-none-eabi\include\c++\10.2.1\bits\hashtable.h ****       __bucket_type*
 390:c:\program files\daisytoolchain\arm-none-eabi\include\c++\10.2.1\bits\hashtable.h ****       _M_allocate_buckets(size_type __bkt_count)
 391:c:\program files\daisytoolchain\arm-none-eabi\include\c++\10.2.1\bits\hashtable.h ****       {
 392:c:\program files\daisytoolchain\arm-none-eabi\include\c++\10.2.1\bits\hashtable.h **** 	if (__builtin_expect(__bkt_count == 1, false))
 393:c:\program files\daisytoolchain\arm-none-eabi\include\c++\10.2.1\bits\hashtable.h **** 	  {
 394:c:\program files\daisytoolchain\arm-none-eabi\include\c++\10.2.1\bits\hashtable.h **** 	    _M_single_bucket = nullptr;
 395:c:\program files\daisytoolchain\arm-none-eabi\include\c++\10.2.1\bits\hashtable.h **** 	    return &_M_single_bucket;
 396:c:\program files\daisytoolchain\arm-none-eabi\include\c++\10.2.1\bits\hashtable.h **** 	  }
 397:c:\program files\daisytoolchain\arm-none-eabi\include\c++\10.2.1\bits\hashtable.h **** 
 398:c:\program files\daisytoolchain\arm-none-eabi\include\c++\10.2.1\bits\hashtable.h **** 	return __hashtable_alloc::_M_allocate_buckets(__bkt_count);
 399:c:\program files\daisytoolchain\arm-none-eabi\include\c++\10.2.1\bits\hashtable.h ****       }
 400:c:\program files\daisytoolchain\arm-none-eabi\include\c++\10.2.1\bits\hashtable.h **** 
 401:c:\program files\daisytoolchain\arm-none-eabi\include\c++\10.2.1\bits\hashtable.h ****       void
 402:c:\program files\daisytoolchain\arm-none-eabi\include\c++\10.2.1\bits\hashtable.h ****       _M_deallocate_buckets(__bucket_type* __bkts, size_type __bkt_count)
 403:c:\program files\daisytoolchain\arm-none-eabi\include\c++\10.2.1\bits\hashtable.h ****       {
 404:c:\program files\daisytoolchain\arm-none-eabi\include\c++\10.2.1\bits\hashtable.h **** 	if (_M_uses_single_bucket(__bkts))
 405:c:\program files\daisytoolchain\arm-none-eabi\include\c++\10.2.1\bits\hashtable.h **** 	  return;
 406:c:\program files\daisytoolchain\arm-none-eabi\include\c++\10.2.1\bits\hashtable.h **** 
 407:c:\program files\daisytoolchain\arm-none-eabi\include\c++\10.2.1\bits\hashtable.h **** 	__hashtable_alloc::_M_deallocate_buckets(__bkts, __bkt_count);
 408:c:\program files\daisytoolchain\arm-none-eabi\include\c++\10.2.1\bits\hashtable.h ****       }
 409:c:\program files\daisytoolchain\arm-none-eabi\include\c++\10.2.1\bits\hashtable.h **** 
 410:c:\program files\daisytoolchain\arm-none-eabi\include\c++\10.2.1\bits\hashtable.h ****       void
 411:c:\program files\daisytoolchain\arm-none-eabi\include\c++\10.2.1\bits\hashtable.h ****       _M_deallocate_buckets()
 412:c:\program files\daisytoolchain\arm-none-eabi\include\c++\10.2.1\bits\hashtable.h ****       { _M_deallocate_buckets(_M_buckets, _M_bucket_count); }
 413:c:\program files\daisytoolchain\arm-none-eabi\include\c++\10.2.1\bits\hashtable.h **** 
 414:c:\program files\daisytoolchain\arm-none-eabi\include\c++\10.2.1\bits\hashtable.h ****       // Gets bucket begin, deals with the fact that non-empty buckets contain
 415:c:\program files\daisytoolchain\arm-none-eabi\include\c++\10.2.1\bits\hashtable.h ****       // their before begin node.
 416:c:\program files\daisytoolchain\arm-none-eabi\include\c++\10.2.1\bits\hashtable.h ****       __node_type*
 417:c:\program files\daisytoolchain\arm-none-eabi\include\c++\10.2.1\bits\hashtable.h ****       _M_bucket_begin(size_type __bkt) const;
 418:c:\program files\daisytoolchain\arm-none-eabi\include\c++\10.2.1\bits\hashtable.h **** 
 419:c:\program files\daisytoolchain\arm-none-eabi\include\c++\10.2.1\bits\hashtable.h ****       __node_type*
 420:c:\program files\daisytoolchain\arm-none-eabi\include\c++\10.2.1\bits\hashtable.h ****       _M_begin() const
 421:c:\program files\daisytoolchain\arm-none-eabi\include\c++\10.2.1\bits\hashtable.h ****       { return static_cast<__node_type*>(_M_before_begin._M_nxt); }
  47              		.loc 2 421 64 view .LVU2
  48 0002 8568     		ldr	r5, [r0, #8]
ARM GAS  C:\Users\theja\AppData\Local\Temp\ccGbJAvD.s 			page 11


  49              	.LBE1937:
  50              	.LBE1936:
  51              	.LBE1935:
  52              	.LBE1934:
  53              	.LBE1933:
  54              		.loc 1 102 11 view .LVU3
  55 0004 0646     		mov	r6, r0
  56              	.LVL1:
  57              	.LBB2018:
  58              	.LBI1933:
 422:c:\program files\daisytoolchain\arm-none-eabi\include\c++\10.2.1\bits\hashtable.h **** 
 423:c:\program files\daisytoolchain\arm-none-eabi\include\c++\10.2.1\bits\hashtable.h ****       // Assign *this using another _Hashtable instance. Whether elements
 424:c:\program files\daisytoolchain\arm-none-eabi\include\c++\10.2.1\bits\hashtable.h ****       // are copied or moved depends on the _Ht reference.
 425:c:\program files\daisytoolchain\arm-none-eabi\include\c++\10.2.1\bits\hashtable.h ****       template<typename _Ht>
 426:c:\program files\daisytoolchain\arm-none-eabi\include\c++\10.2.1\bits\hashtable.h **** 	void
 427:c:\program files\daisytoolchain\arm-none-eabi\include\c++\10.2.1\bits\hashtable.h **** 	_M_assign_elements(_Ht&&);
 428:c:\program files\daisytoolchain\arm-none-eabi\include\c++\10.2.1\bits\hashtable.h **** 
 429:c:\program files\daisytoolchain\arm-none-eabi\include\c++\10.2.1\bits\hashtable.h ****       template<typename _Ht, typename _NodeGenerator>
 430:c:\program files\daisytoolchain\arm-none-eabi\include\c++\10.2.1\bits\hashtable.h **** 	void
 431:c:\program files\daisytoolchain\arm-none-eabi\include\c++\10.2.1\bits\hashtable.h **** 	_M_assign(_Ht&&, const _NodeGenerator&);
 432:c:\program files\daisytoolchain\arm-none-eabi\include\c++\10.2.1\bits\hashtable.h **** 
 433:c:\program files\daisytoolchain\arm-none-eabi\include\c++\10.2.1\bits\hashtable.h ****       void
 434:c:\program files\daisytoolchain\arm-none-eabi\include\c++\10.2.1\bits\hashtable.h ****       _M_move_assign(_Hashtable&&, true_type);
 435:c:\program files\daisytoolchain\arm-none-eabi\include\c++\10.2.1\bits\hashtable.h **** 
 436:c:\program files\daisytoolchain\arm-none-eabi\include\c++\10.2.1\bits\hashtable.h ****       void
 437:c:\program files\daisytoolchain\arm-none-eabi\include\c++\10.2.1\bits\hashtable.h ****       _M_move_assign(_Hashtable&&, false_type);
 438:c:\program files\daisytoolchain\arm-none-eabi\include\c++\10.2.1\bits\hashtable.h **** 
 439:c:\program files\daisytoolchain\arm-none-eabi\include\c++\10.2.1\bits\hashtable.h ****       void
 440:c:\program files\daisytoolchain\arm-none-eabi\include\c++\10.2.1\bits\hashtable.h ****       _M_reset() noexcept;
 441:c:\program files\daisytoolchain\arm-none-eabi\include\c++\10.2.1\bits\hashtable.h **** 
 442:c:\program files\daisytoolchain\arm-none-eabi\include\c++\10.2.1\bits\hashtable.h ****       _Hashtable(const _H1& __h1, const _H2& __h2, const _Hash& __h,
 443:c:\program files\daisytoolchain\arm-none-eabi\include\c++\10.2.1\bits\hashtable.h **** 		 const _Equal& __eq, const _ExtractKey& __exk,
 444:c:\program files\daisytoolchain\arm-none-eabi\include\c++\10.2.1\bits\hashtable.h **** 		 const allocator_type& __a)
 445:c:\program files\daisytoolchain\arm-none-eabi\include\c++\10.2.1\bits\hashtable.h ****       : __hashtable_base(__exk, __h1, __h2, __h, __eq),
 446:c:\program files\daisytoolchain\arm-none-eabi\include\c++\10.2.1\bits\hashtable.h **** 	__hashtable_alloc(__node_alloc_type(__a))
 447:c:\program files\daisytoolchain\arm-none-eabi\include\c++\10.2.1\bits\hashtable.h ****       { }
 448:c:\program files\daisytoolchain\arm-none-eabi\include\c++\10.2.1\bits\hashtable.h **** 
 449:c:\program files\daisytoolchain\arm-none-eabi\include\c++\10.2.1\bits\hashtable.h ****     public:
 450:c:\program files\daisytoolchain\arm-none-eabi\include\c++\10.2.1\bits\hashtable.h ****       // Constructor, destructor, assignment, swap
 451:c:\program files\daisytoolchain\arm-none-eabi\include\c++\10.2.1\bits\hashtable.h ****       _Hashtable() = default;
 452:c:\program files\daisytoolchain\arm-none-eabi\include\c++\10.2.1\bits\hashtable.h ****       _Hashtable(size_type __bkt_count_hint,
 453:c:\program files\daisytoolchain\arm-none-eabi\include\c++\10.2.1\bits\hashtable.h **** 		 const _H1&, const _H2&, const _Hash&,
 454:c:\program files\daisytoolchain\arm-none-eabi\include\c++\10.2.1\bits\hashtable.h **** 		 const _Equal&, const _ExtractKey&,
 455:c:\program files\daisytoolchain\arm-none-eabi\include\c++\10.2.1\bits\hashtable.h **** 		 const allocator_type&);
 456:c:\program files\daisytoolchain\arm-none-eabi\include\c++\10.2.1\bits\hashtable.h **** 
 457:c:\program files\daisytoolchain\arm-none-eabi\include\c++\10.2.1\bits\hashtable.h ****       template<typename _InputIterator>
 458:c:\program files\daisytoolchain\arm-none-eabi\include\c++\10.2.1\bits\hashtable.h **** 	_Hashtable(_InputIterator __first, _InputIterator __last,
 459:c:\program files\daisytoolchain\arm-none-eabi\include\c++\10.2.1\bits\hashtable.h **** 		   size_type __bkt_count_hint,
 460:c:\program files\daisytoolchain\arm-none-eabi\include\c++\10.2.1\bits\hashtable.h **** 		   const _H1&, const _H2&, const _Hash&,
 461:c:\program files\daisytoolchain\arm-none-eabi\include\c++\10.2.1\bits\hashtable.h **** 		   const _Equal&, const _ExtractKey&,
 462:c:\program files\daisytoolchain\arm-none-eabi\include\c++\10.2.1\bits\hashtable.h **** 		   const allocator_type&);
 463:c:\program files\daisytoolchain\arm-none-eabi\include\c++\10.2.1\bits\hashtable.h **** 
 464:c:\program files\daisytoolchain\arm-none-eabi\include\c++\10.2.1\bits\hashtable.h ****       _Hashtable(const _Hashtable&);
 465:c:\program files\daisytoolchain\arm-none-eabi\include\c++\10.2.1\bits\hashtable.h **** 
 466:c:\program files\daisytoolchain\arm-none-eabi\include\c++\10.2.1\bits\hashtable.h ****       _Hashtable(_Hashtable&&) noexcept;
 467:c:\program files\daisytoolchain\arm-none-eabi\include\c++\10.2.1\bits\hashtable.h **** 
 468:c:\program files\daisytoolchain\arm-none-eabi\include\c++\10.2.1\bits\hashtable.h ****       _Hashtable(const _Hashtable&, const allocator_type&);
ARM GAS  C:\Users\theja\AppData\Local\Temp\ccGbJAvD.s 			page 12


 469:c:\program files\daisytoolchain\arm-none-eabi\include\c++\10.2.1\bits\hashtable.h **** 
 470:c:\program files\daisytoolchain\arm-none-eabi\include\c++\10.2.1\bits\hashtable.h ****       _Hashtable(_Hashtable&&, const allocator_type&);
 471:c:\program files\daisytoolchain\arm-none-eabi\include\c++\10.2.1\bits\hashtable.h **** 
 472:c:\program files\daisytoolchain\arm-none-eabi\include\c++\10.2.1\bits\hashtable.h ****       // Use delegating constructors.
 473:c:\program files\daisytoolchain\arm-none-eabi\include\c++\10.2.1\bits\hashtable.h ****       explicit
 474:c:\program files\daisytoolchain\arm-none-eabi\include\c++\10.2.1\bits\hashtable.h ****       _Hashtable(const allocator_type& __a)
 475:c:\program files\daisytoolchain\arm-none-eabi\include\c++\10.2.1\bits\hashtable.h ****       : __hashtable_alloc(__node_alloc_type(__a))
 476:c:\program files\daisytoolchain\arm-none-eabi\include\c++\10.2.1\bits\hashtable.h ****       { }
 477:c:\program files\daisytoolchain\arm-none-eabi\include\c++\10.2.1\bits\hashtable.h **** 
 478:c:\program files\daisytoolchain\arm-none-eabi\include\c++\10.2.1\bits\hashtable.h ****       explicit
 479:c:\program files\daisytoolchain\arm-none-eabi\include\c++\10.2.1\bits\hashtable.h ****       _Hashtable(size_type __bkt_count_hint,
 480:c:\program files\daisytoolchain\arm-none-eabi\include\c++\10.2.1\bits\hashtable.h **** 		 const _H1& __hf = _H1(),
 481:c:\program files\daisytoolchain\arm-none-eabi\include\c++\10.2.1\bits\hashtable.h **** 		 const key_equal& __eql = key_equal(),
 482:c:\program files\daisytoolchain\arm-none-eabi\include\c++\10.2.1\bits\hashtable.h **** 		 const allocator_type& __a = allocator_type())
 483:c:\program files\daisytoolchain\arm-none-eabi\include\c++\10.2.1\bits\hashtable.h ****       : _Hashtable(__bkt_count_hint, __hf, _H2(), _Hash(), __eql,
 484:c:\program files\daisytoolchain\arm-none-eabi\include\c++\10.2.1\bits\hashtable.h **** 		   __key_extract(), __a)
 485:c:\program files\daisytoolchain\arm-none-eabi\include\c++\10.2.1\bits\hashtable.h ****       { }
 486:c:\program files\daisytoolchain\arm-none-eabi\include\c++\10.2.1\bits\hashtable.h **** 
 487:c:\program files\daisytoolchain\arm-none-eabi\include\c++\10.2.1\bits\hashtable.h ****       template<typename _InputIterator>
 488:c:\program files\daisytoolchain\arm-none-eabi\include\c++\10.2.1\bits\hashtable.h **** 	_Hashtable(_InputIterator __f, _InputIterator __l,
 489:c:\program files\daisytoolchain\arm-none-eabi\include\c++\10.2.1\bits\hashtable.h **** 		   size_type __bkt_count_hint = 0,
 490:c:\program files\daisytoolchain\arm-none-eabi\include\c++\10.2.1\bits\hashtable.h **** 		   const _H1& __hf = _H1(),
 491:c:\program files\daisytoolchain\arm-none-eabi\include\c++\10.2.1\bits\hashtable.h **** 		   const key_equal& __eql = key_equal(),
 492:c:\program files\daisytoolchain\arm-none-eabi\include\c++\10.2.1\bits\hashtable.h **** 		   const allocator_type& __a = allocator_type())
 493:c:\program files\daisytoolchain\arm-none-eabi\include\c++\10.2.1\bits\hashtable.h **** 	: _Hashtable(__f, __l, __bkt_count_hint, __hf, _H2(), _Hash(), __eql,
 494:c:\program files\daisytoolchain\arm-none-eabi\include\c++\10.2.1\bits\hashtable.h **** 		     __key_extract(), __a)
 495:c:\program files\daisytoolchain\arm-none-eabi\include\c++\10.2.1\bits\hashtable.h **** 	{ }
 496:c:\program files\daisytoolchain\arm-none-eabi\include\c++\10.2.1\bits\hashtable.h **** 
 497:c:\program files\daisytoolchain\arm-none-eabi\include\c++\10.2.1\bits\hashtable.h ****       _Hashtable(initializer_list<value_type> __l,
 498:c:\program files\daisytoolchain\arm-none-eabi\include\c++\10.2.1\bits\hashtable.h **** 		 size_type __bkt_count_hint = 0,
 499:c:\program files\daisytoolchain\arm-none-eabi\include\c++\10.2.1\bits\hashtable.h **** 		 const _H1& __hf = _H1(),
 500:c:\program files\daisytoolchain\arm-none-eabi\include\c++\10.2.1\bits\hashtable.h **** 		 const key_equal& __eql = key_equal(),
 501:c:\program files\daisytoolchain\arm-none-eabi\include\c++\10.2.1\bits\hashtable.h **** 		 const allocator_type& __a = allocator_type())
 502:c:\program files\daisytoolchain\arm-none-eabi\include\c++\10.2.1\bits\hashtable.h ****       : _Hashtable(__l.begin(), __l.end(), __bkt_count_hint,
 503:c:\program files\daisytoolchain\arm-none-eabi\include\c++\10.2.1\bits\hashtable.h **** 		   __hf, _H2(), _Hash(), __eql,
 504:c:\program files\daisytoolchain\arm-none-eabi\include\c++\10.2.1\bits\hashtable.h **** 		   __key_extract(), __a)
 505:c:\program files\daisytoolchain\arm-none-eabi\include\c++\10.2.1\bits\hashtable.h ****       { }
 506:c:\program files\daisytoolchain\arm-none-eabi\include\c++\10.2.1\bits\hashtable.h **** 
 507:c:\program files\daisytoolchain\arm-none-eabi\include\c++\10.2.1\bits\hashtable.h ****       _Hashtable&
 508:c:\program files\daisytoolchain\arm-none-eabi\include\c++\10.2.1\bits\hashtable.h ****       operator=(const _Hashtable& __ht);
 509:c:\program files\daisytoolchain\arm-none-eabi\include\c++\10.2.1\bits\hashtable.h **** 
 510:c:\program files\daisytoolchain\arm-none-eabi\include\c++\10.2.1\bits\hashtable.h ****       _Hashtable&
 511:c:\program files\daisytoolchain\arm-none-eabi\include\c++\10.2.1\bits\hashtable.h ****       operator=(_Hashtable&& __ht)
 512:c:\program files\daisytoolchain\arm-none-eabi\include\c++\10.2.1\bits\hashtable.h ****       noexcept(__node_alloc_traits::_S_nothrow_move()
 513:c:\program files\daisytoolchain\arm-none-eabi\include\c++\10.2.1\bits\hashtable.h **** 	       && is_nothrow_move_assignable<_H1>::value
 514:c:\program files\daisytoolchain\arm-none-eabi\include\c++\10.2.1\bits\hashtable.h **** 	       && is_nothrow_move_assignable<_Equal>::value)
 515:c:\program files\daisytoolchain\arm-none-eabi\include\c++\10.2.1\bits\hashtable.h ****       {
 516:c:\program files\daisytoolchain\arm-none-eabi\include\c++\10.2.1\bits\hashtable.h ****         constexpr bool __move_storage =
 517:c:\program files\daisytoolchain\arm-none-eabi\include\c++\10.2.1\bits\hashtable.h **** 	  __node_alloc_traits::_S_propagate_on_move_assign()
 518:c:\program files\daisytoolchain\arm-none-eabi\include\c++\10.2.1\bits\hashtable.h **** 	  || __node_alloc_traits::_S_always_equal();
 519:c:\program files\daisytoolchain\arm-none-eabi\include\c++\10.2.1\bits\hashtable.h **** 	_M_move_assign(std::move(__ht), __bool_constant<__move_storage>());
 520:c:\program files\daisytoolchain\arm-none-eabi\include\c++\10.2.1\bits\hashtable.h **** 	return *this;
 521:c:\program files\daisytoolchain\arm-none-eabi\include\c++\10.2.1\bits\hashtable.h ****       }
 522:c:\program files\daisytoolchain\arm-none-eabi\include\c++\10.2.1\bits\hashtable.h **** 
 523:c:\program files\daisytoolchain\arm-none-eabi\include\c++\10.2.1\bits\hashtable.h ****       _Hashtable&
 524:c:\program files\daisytoolchain\arm-none-eabi\include\c++\10.2.1\bits\hashtable.h ****       operator=(initializer_list<value_type> __l)
 525:c:\program files\daisytoolchain\arm-none-eabi\include\c++\10.2.1\bits\hashtable.h ****       {
ARM GAS  C:\Users\theja\AppData\Local\Temp\ccGbJAvD.s 			page 13


 526:c:\program files\daisytoolchain\arm-none-eabi\include\c++\10.2.1\bits\hashtable.h **** 	__reuse_or_alloc_node_gen_t __roan(_M_begin(), *this);
 527:c:\program files\daisytoolchain\arm-none-eabi\include\c++\10.2.1\bits\hashtable.h **** 	_M_before_begin._M_nxt = nullptr;
 528:c:\program files\daisytoolchain\arm-none-eabi\include\c++\10.2.1\bits\hashtable.h **** 	clear();
 529:c:\program files\daisytoolchain\arm-none-eabi\include\c++\10.2.1\bits\hashtable.h **** 	this->_M_insert_range(__l.begin(), __l.end(), __roan, __unique_keys());
 530:c:\program files\daisytoolchain\arm-none-eabi\include\c++\10.2.1\bits\hashtable.h **** 	return *this;
 531:c:\program files\daisytoolchain\arm-none-eabi\include\c++\10.2.1\bits\hashtable.h ****       }
 532:c:\program files\daisytoolchain\arm-none-eabi\include\c++\10.2.1\bits\hashtable.h **** 
 533:c:\program files\daisytoolchain\arm-none-eabi\include\c++\10.2.1\bits\hashtable.h ****       ~_Hashtable() noexcept;
 534:c:\program files\daisytoolchain\arm-none-eabi\include\c++\10.2.1\bits\hashtable.h **** 
 535:c:\program files\daisytoolchain\arm-none-eabi\include\c++\10.2.1\bits\hashtable.h ****       void
 536:c:\program files\daisytoolchain\arm-none-eabi\include\c++\10.2.1\bits\hashtable.h ****       swap(_Hashtable&)
 537:c:\program files\daisytoolchain\arm-none-eabi\include\c++\10.2.1\bits\hashtable.h ****       noexcept(__and_<__is_nothrow_swappable<_H1>,
 538:c:\program files\daisytoolchain\arm-none-eabi\include\c++\10.2.1\bits\hashtable.h **** 	                  __is_nothrow_swappable<_Equal>>::value);
 539:c:\program files\daisytoolchain\arm-none-eabi\include\c++\10.2.1\bits\hashtable.h **** 
 540:c:\program files\daisytoolchain\arm-none-eabi\include\c++\10.2.1\bits\hashtable.h ****       // Basic container operations
 541:c:\program files\daisytoolchain\arm-none-eabi\include\c++\10.2.1\bits\hashtable.h ****       iterator
 542:c:\program files\daisytoolchain\arm-none-eabi\include\c++\10.2.1\bits\hashtable.h ****       begin() noexcept
 543:c:\program files\daisytoolchain\arm-none-eabi\include\c++\10.2.1\bits\hashtable.h ****       { return iterator(_M_begin()); }
 544:c:\program files\daisytoolchain\arm-none-eabi\include\c++\10.2.1\bits\hashtable.h **** 
 545:c:\program files\daisytoolchain\arm-none-eabi\include\c++\10.2.1\bits\hashtable.h ****       const_iterator
 546:c:\program files\daisytoolchain\arm-none-eabi\include\c++\10.2.1\bits\hashtable.h ****       begin() const noexcept
 547:c:\program files\daisytoolchain\arm-none-eabi\include\c++\10.2.1\bits\hashtable.h ****       { return const_iterator(_M_begin()); }
 548:c:\program files\daisytoolchain\arm-none-eabi\include\c++\10.2.1\bits\hashtable.h **** 
 549:c:\program files\daisytoolchain\arm-none-eabi\include\c++\10.2.1\bits\hashtable.h ****       iterator
 550:c:\program files\daisytoolchain\arm-none-eabi\include\c++\10.2.1\bits\hashtable.h ****       end() noexcept
 551:c:\program files\daisytoolchain\arm-none-eabi\include\c++\10.2.1\bits\hashtable.h ****       { return iterator(nullptr); }
 552:c:\program files\daisytoolchain\arm-none-eabi\include\c++\10.2.1\bits\hashtable.h **** 
 553:c:\program files\daisytoolchain\arm-none-eabi\include\c++\10.2.1\bits\hashtable.h ****       const_iterator
 554:c:\program files\daisytoolchain\arm-none-eabi\include\c++\10.2.1\bits\hashtable.h ****       end() const noexcept
 555:c:\program files\daisytoolchain\arm-none-eabi\include\c++\10.2.1\bits\hashtable.h ****       { return const_iterator(nullptr); }
 556:c:\program files\daisytoolchain\arm-none-eabi\include\c++\10.2.1\bits\hashtable.h **** 
 557:c:\program files\daisytoolchain\arm-none-eabi\include\c++\10.2.1\bits\hashtable.h ****       const_iterator
 558:c:\program files\daisytoolchain\arm-none-eabi\include\c++\10.2.1\bits\hashtable.h ****       cbegin() const noexcept
 559:c:\program files\daisytoolchain\arm-none-eabi\include\c++\10.2.1\bits\hashtable.h ****       { return const_iterator(_M_begin()); }
 560:c:\program files\daisytoolchain\arm-none-eabi\include\c++\10.2.1\bits\hashtable.h **** 
 561:c:\program files\daisytoolchain\arm-none-eabi\include\c++\10.2.1\bits\hashtable.h ****       const_iterator
 562:c:\program files\daisytoolchain\arm-none-eabi\include\c++\10.2.1\bits\hashtable.h ****       cend() const noexcept
 563:c:\program files\daisytoolchain\arm-none-eabi\include\c++\10.2.1\bits\hashtable.h ****       { return const_iterator(nullptr); }
 564:c:\program files\daisytoolchain\arm-none-eabi\include\c++\10.2.1\bits\hashtable.h **** 
 565:c:\program files\daisytoolchain\arm-none-eabi\include\c++\10.2.1\bits\hashtable.h ****       size_type
 566:c:\program files\daisytoolchain\arm-none-eabi\include\c++\10.2.1\bits\hashtable.h ****       size() const noexcept
 567:c:\program files\daisytoolchain\arm-none-eabi\include\c++\10.2.1\bits\hashtable.h ****       { return _M_element_count; }
 568:c:\program files\daisytoolchain\arm-none-eabi\include\c++\10.2.1\bits\hashtable.h **** 
 569:c:\program files\daisytoolchain\arm-none-eabi\include\c++\10.2.1\bits\hashtable.h ****       _GLIBCXX_NODISCARD bool
 570:c:\program files\daisytoolchain\arm-none-eabi\include\c++\10.2.1\bits\hashtable.h ****       empty() const noexcept
 571:c:\program files\daisytoolchain\arm-none-eabi\include\c++\10.2.1\bits\hashtable.h ****       { return size() == 0; }
 572:c:\program files\daisytoolchain\arm-none-eabi\include\c++\10.2.1\bits\hashtable.h **** 
 573:c:\program files\daisytoolchain\arm-none-eabi\include\c++\10.2.1\bits\hashtable.h ****       allocator_type
 574:c:\program files\daisytoolchain\arm-none-eabi\include\c++\10.2.1\bits\hashtable.h ****       get_allocator() const noexcept
 575:c:\program files\daisytoolchain\arm-none-eabi\include\c++\10.2.1\bits\hashtable.h ****       { return allocator_type(this->_M_node_allocator()); }
 576:c:\program files\daisytoolchain\arm-none-eabi\include\c++\10.2.1\bits\hashtable.h **** 
 577:c:\program files\daisytoolchain\arm-none-eabi\include\c++\10.2.1\bits\hashtable.h ****       size_type
 578:c:\program files\daisytoolchain\arm-none-eabi\include\c++\10.2.1\bits\hashtable.h ****       max_size() const noexcept
 579:c:\program files\daisytoolchain\arm-none-eabi\include\c++\10.2.1\bits\hashtable.h ****       { return __node_alloc_traits::max_size(this->_M_node_allocator()); }
 580:c:\program files\daisytoolchain\arm-none-eabi\include\c++\10.2.1\bits\hashtable.h **** 
 581:c:\program files\daisytoolchain\arm-none-eabi\include\c++\10.2.1\bits\hashtable.h ****       // Observers
 582:c:\program files\daisytoolchain\arm-none-eabi\include\c++\10.2.1\bits\hashtable.h ****       key_equal
ARM GAS  C:\Users\theja\AppData\Local\Temp\ccGbJAvD.s 			page 14


 583:c:\program files\daisytoolchain\arm-none-eabi\include\c++\10.2.1\bits\hashtable.h ****       key_eq() const
 584:c:\program files\daisytoolchain\arm-none-eabi\include\c++\10.2.1\bits\hashtable.h ****       { return this->_M_eq(); }
 585:c:\program files\daisytoolchain\arm-none-eabi\include\c++\10.2.1\bits\hashtable.h **** 
 586:c:\program files\daisytoolchain\arm-none-eabi\include\c++\10.2.1\bits\hashtable.h ****       // hash_function, if present, comes from _Hash_code_base.
 587:c:\program files\daisytoolchain\arm-none-eabi\include\c++\10.2.1\bits\hashtable.h **** 
 588:c:\program files\daisytoolchain\arm-none-eabi\include\c++\10.2.1\bits\hashtable.h ****       // Bucket operations
 589:c:\program files\daisytoolchain\arm-none-eabi\include\c++\10.2.1\bits\hashtable.h ****       size_type
 590:c:\program files\daisytoolchain\arm-none-eabi\include\c++\10.2.1\bits\hashtable.h ****       bucket_count() const noexcept
 591:c:\program files\daisytoolchain\arm-none-eabi\include\c++\10.2.1\bits\hashtable.h ****       { return _M_bucket_count; }
 592:c:\program files\daisytoolchain\arm-none-eabi\include\c++\10.2.1\bits\hashtable.h **** 
 593:c:\program files\daisytoolchain\arm-none-eabi\include\c++\10.2.1\bits\hashtable.h ****       size_type
 594:c:\program files\daisytoolchain\arm-none-eabi\include\c++\10.2.1\bits\hashtable.h ****       max_bucket_count() const noexcept
 595:c:\program files\daisytoolchain\arm-none-eabi\include\c++\10.2.1\bits\hashtable.h ****       { return max_size(); }
 596:c:\program files\daisytoolchain\arm-none-eabi\include\c++\10.2.1\bits\hashtable.h **** 
 597:c:\program files\daisytoolchain\arm-none-eabi\include\c++\10.2.1\bits\hashtable.h ****       size_type
 598:c:\program files\daisytoolchain\arm-none-eabi\include\c++\10.2.1\bits\hashtable.h ****       bucket_size(size_type __bkt) const
 599:c:\program files\daisytoolchain\arm-none-eabi\include\c++\10.2.1\bits\hashtable.h ****       { return std::distance(begin(__bkt), end(__bkt)); }
 600:c:\program files\daisytoolchain\arm-none-eabi\include\c++\10.2.1\bits\hashtable.h **** 
 601:c:\program files\daisytoolchain\arm-none-eabi\include\c++\10.2.1\bits\hashtable.h ****       size_type
 602:c:\program files\daisytoolchain\arm-none-eabi\include\c++\10.2.1\bits\hashtable.h ****       bucket(const key_type& __k) const
 603:c:\program files\daisytoolchain\arm-none-eabi\include\c++\10.2.1\bits\hashtable.h ****       { return _M_bucket_index(__k, this->_M_hash_code(__k)); }
 604:c:\program files\daisytoolchain\arm-none-eabi\include\c++\10.2.1\bits\hashtable.h **** 
 605:c:\program files\daisytoolchain\arm-none-eabi\include\c++\10.2.1\bits\hashtable.h ****       local_iterator
 606:c:\program files\daisytoolchain\arm-none-eabi\include\c++\10.2.1\bits\hashtable.h ****       begin(size_type __bkt)
 607:c:\program files\daisytoolchain\arm-none-eabi\include\c++\10.2.1\bits\hashtable.h ****       {
 608:c:\program files\daisytoolchain\arm-none-eabi\include\c++\10.2.1\bits\hashtable.h **** 	return local_iterator(*this, _M_bucket_begin(__bkt),
 609:c:\program files\daisytoolchain\arm-none-eabi\include\c++\10.2.1\bits\hashtable.h **** 			      __bkt, _M_bucket_count);
 610:c:\program files\daisytoolchain\arm-none-eabi\include\c++\10.2.1\bits\hashtable.h ****       }
 611:c:\program files\daisytoolchain\arm-none-eabi\include\c++\10.2.1\bits\hashtable.h **** 
 612:c:\program files\daisytoolchain\arm-none-eabi\include\c++\10.2.1\bits\hashtable.h ****       local_iterator
 613:c:\program files\daisytoolchain\arm-none-eabi\include\c++\10.2.1\bits\hashtable.h ****       end(size_type __bkt)
 614:c:\program files\daisytoolchain\arm-none-eabi\include\c++\10.2.1\bits\hashtable.h ****       { return local_iterator(*this, nullptr, __bkt, _M_bucket_count); }
 615:c:\program files\daisytoolchain\arm-none-eabi\include\c++\10.2.1\bits\hashtable.h **** 
 616:c:\program files\daisytoolchain\arm-none-eabi\include\c++\10.2.1\bits\hashtable.h ****       const_local_iterator
 617:c:\program files\daisytoolchain\arm-none-eabi\include\c++\10.2.1\bits\hashtable.h ****       begin(size_type __bkt) const
 618:c:\program files\daisytoolchain\arm-none-eabi\include\c++\10.2.1\bits\hashtable.h ****       {
 619:c:\program files\daisytoolchain\arm-none-eabi\include\c++\10.2.1\bits\hashtable.h **** 	return const_local_iterator(*this, _M_bucket_begin(__bkt),
 620:c:\program files\daisytoolchain\arm-none-eabi\include\c++\10.2.1\bits\hashtable.h **** 				    __bkt, _M_bucket_count);
 621:c:\program files\daisytoolchain\arm-none-eabi\include\c++\10.2.1\bits\hashtable.h ****       }
 622:c:\program files\daisytoolchain\arm-none-eabi\include\c++\10.2.1\bits\hashtable.h **** 
 623:c:\program files\daisytoolchain\arm-none-eabi\include\c++\10.2.1\bits\hashtable.h ****       const_local_iterator
 624:c:\program files\daisytoolchain\arm-none-eabi\include\c++\10.2.1\bits\hashtable.h ****       end(size_type __bkt) const
 625:c:\program files\daisytoolchain\arm-none-eabi\include\c++\10.2.1\bits\hashtable.h ****       { return const_local_iterator(*this, nullptr, __bkt, _M_bucket_count); }
 626:c:\program files\daisytoolchain\arm-none-eabi\include\c++\10.2.1\bits\hashtable.h **** 
 627:c:\program files\daisytoolchain\arm-none-eabi\include\c++\10.2.1\bits\hashtable.h ****       // DR 691.
 628:c:\program files\daisytoolchain\arm-none-eabi\include\c++\10.2.1\bits\hashtable.h ****       const_local_iterator
 629:c:\program files\daisytoolchain\arm-none-eabi\include\c++\10.2.1\bits\hashtable.h ****       cbegin(size_type __bkt) const
 630:c:\program files\daisytoolchain\arm-none-eabi\include\c++\10.2.1\bits\hashtable.h ****       {
 631:c:\program files\daisytoolchain\arm-none-eabi\include\c++\10.2.1\bits\hashtable.h **** 	return const_local_iterator(*this, _M_bucket_begin(__bkt),
 632:c:\program files\daisytoolchain\arm-none-eabi\include\c++\10.2.1\bits\hashtable.h **** 				    __bkt, _M_bucket_count);
 633:c:\program files\daisytoolchain\arm-none-eabi\include\c++\10.2.1\bits\hashtable.h ****       }
 634:c:\program files\daisytoolchain\arm-none-eabi\include\c++\10.2.1\bits\hashtable.h **** 
 635:c:\program files\daisytoolchain\arm-none-eabi\include\c++\10.2.1\bits\hashtable.h ****       const_local_iterator
 636:c:\program files\daisytoolchain\arm-none-eabi\include\c++\10.2.1\bits\hashtable.h ****       cend(size_type __bkt) const
 637:c:\program files\daisytoolchain\arm-none-eabi\include\c++\10.2.1\bits\hashtable.h ****       { return const_local_iterator(*this, nullptr, __bkt, _M_bucket_count); }
 638:c:\program files\daisytoolchain\arm-none-eabi\include\c++\10.2.1\bits\hashtable.h **** 
 639:c:\program files\daisytoolchain\arm-none-eabi\include\c++\10.2.1\bits\hashtable.h ****       float
ARM GAS  C:\Users\theja\AppData\Local\Temp\ccGbJAvD.s 			page 15


 640:c:\program files\daisytoolchain\arm-none-eabi\include\c++\10.2.1\bits\hashtable.h ****       load_factor() const noexcept
 641:c:\program files\daisytoolchain\arm-none-eabi\include\c++\10.2.1\bits\hashtable.h ****       {
 642:c:\program files\daisytoolchain\arm-none-eabi\include\c++\10.2.1\bits\hashtable.h **** 	return static_cast<float>(size()) / static_cast<float>(bucket_count());
 643:c:\program files\daisytoolchain\arm-none-eabi\include\c++\10.2.1\bits\hashtable.h ****       }
 644:c:\program files\daisytoolchain\arm-none-eabi\include\c++\10.2.1\bits\hashtable.h **** 
 645:c:\program files\daisytoolchain\arm-none-eabi\include\c++\10.2.1\bits\hashtable.h ****       // max_load_factor, if present, comes from _Rehash_base.
 646:c:\program files\daisytoolchain\arm-none-eabi\include\c++\10.2.1\bits\hashtable.h **** 
 647:c:\program files\daisytoolchain\arm-none-eabi\include\c++\10.2.1\bits\hashtable.h ****       // Generalization of max_load_factor.  Extension, not found in
 648:c:\program files\daisytoolchain\arm-none-eabi\include\c++\10.2.1\bits\hashtable.h ****       // TR1.  Only useful if _RehashPolicy is something other than
 649:c:\program files\daisytoolchain\arm-none-eabi\include\c++\10.2.1\bits\hashtable.h ****       // the default.
 650:c:\program files\daisytoolchain\arm-none-eabi\include\c++\10.2.1\bits\hashtable.h ****       const _RehashPolicy&
 651:c:\program files\daisytoolchain\arm-none-eabi\include\c++\10.2.1\bits\hashtable.h ****       __rehash_policy() const
 652:c:\program files\daisytoolchain\arm-none-eabi\include\c++\10.2.1\bits\hashtable.h ****       { return _M_rehash_policy; }
 653:c:\program files\daisytoolchain\arm-none-eabi\include\c++\10.2.1\bits\hashtable.h **** 
 654:c:\program files\daisytoolchain\arm-none-eabi\include\c++\10.2.1\bits\hashtable.h ****       void
 655:c:\program files\daisytoolchain\arm-none-eabi\include\c++\10.2.1\bits\hashtable.h ****       __rehash_policy(const _RehashPolicy& __pol)
 656:c:\program files\daisytoolchain\arm-none-eabi\include\c++\10.2.1\bits\hashtable.h ****       { _M_rehash_policy = __pol; }
 657:c:\program files\daisytoolchain\arm-none-eabi\include\c++\10.2.1\bits\hashtable.h **** 
 658:c:\program files\daisytoolchain\arm-none-eabi\include\c++\10.2.1\bits\hashtable.h ****       // Lookup.
 659:c:\program files\daisytoolchain\arm-none-eabi\include\c++\10.2.1\bits\hashtable.h ****       iterator
 660:c:\program files\daisytoolchain\arm-none-eabi\include\c++\10.2.1\bits\hashtable.h ****       find(const key_type& __k);
 661:c:\program files\daisytoolchain\arm-none-eabi\include\c++\10.2.1\bits\hashtable.h **** 
 662:c:\program files\daisytoolchain\arm-none-eabi\include\c++\10.2.1\bits\hashtable.h ****       const_iterator
 663:c:\program files\daisytoolchain\arm-none-eabi\include\c++\10.2.1\bits\hashtable.h ****       find(const key_type& __k) const;
 664:c:\program files\daisytoolchain\arm-none-eabi\include\c++\10.2.1\bits\hashtable.h **** 
 665:c:\program files\daisytoolchain\arm-none-eabi\include\c++\10.2.1\bits\hashtable.h ****       size_type
 666:c:\program files\daisytoolchain\arm-none-eabi\include\c++\10.2.1\bits\hashtable.h ****       count(const key_type& __k) const;
 667:c:\program files\daisytoolchain\arm-none-eabi\include\c++\10.2.1\bits\hashtable.h **** 
 668:c:\program files\daisytoolchain\arm-none-eabi\include\c++\10.2.1\bits\hashtable.h ****       std::pair<iterator, iterator>
 669:c:\program files\daisytoolchain\arm-none-eabi\include\c++\10.2.1\bits\hashtable.h ****       equal_range(const key_type& __k);
 670:c:\program files\daisytoolchain\arm-none-eabi\include\c++\10.2.1\bits\hashtable.h **** 
 671:c:\program files\daisytoolchain\arm-none-eabi\include\c++\10.2.1\bits\hashtable.h ****       std::pair<const_iterator, const_iterator>
 672:c:\program files\daisytoolchain\arm-none-eabi\include\c++\10.2.1\bits\hashtable.h ****       equal_range(const key_type& __k) const;
 673:c:\program files\daisytoolchain\arm-none-eabi\include\c++\10.2.1\bits\hashtable.h **** 
 674:c:\program files\daisytoolchain\arm-none-eabi\include\c++\10.2.1\bits\hashtable.h ****     protected:
 675:c:\program files\daisytoolchain\arm-none-eabi\include\c++\10.2.1\bits\hashtable.h ****       // Bucket index computation helpers.
 676:c:\program files\daisytoolchain\arm-none-eabi\include\c++\10.2.1\bits\hashtable.h ****       size_type
 677:c:\program files\daisytoolchain\arm-none-eabi\include\c++\10.2.1\bits\hashtable.h ****       _M_bucket_index(__node_type* __n) const noexcept
 678:c:\program files\daisytoolchain\arm-none-eabi\include\c++\10.2.1\bits\hashtable.h ****       { return __hash_code_base::_M_bucket_index(__n, _M_bucket_count); }
 679:c:\program files\daisytoolchain\arm-none-eabi\include\c++\10.2.1\bits\hashtable.h **** 
 680:c:\program files\daisytoolchain\arm-none-eabi\include\c++\10.2.1\bits\hashtable.h ****       size_type
 681:c:\program files\daisytoolchain\arm-none-eabi\include\c++\10.2.1\bits\hashtable.h ****       _M_bucket_index(const key_type& __k, __hash_code __c) const
 682:c:\program files\daisytoolchain\arm-none-eabi\include\c++\10.2.1\bits\hashtable.h ****       { return __hash_code_base::_M_bucket_index(__k, __c, _M_bucket_count); }
 683:c:\program files\daisytoolchain\arm-none-eabi\include\c++\10.2.1\bits\hashtable.h **** 
 684:c:\program files\daisytoolchain\arm-none-eabi\include\c++\10.2.1\bits\hashtable.h ****       // Find and insert helper functions and types
 685:c:\program files\daisytoolchain\arm-none-eabi\include\c++\10.2.1\bits\hashtable.h ****       // Find the node before the one matching the criteria.
 686:c:\program files\daisytoolchain\arm-none-eabi\include\c++\10.2.1\bits\hashtable.h ****       __node_base*
 687:c:\program files\daisytoolchain\arm-none-eabi\include\c++\10.2.1\bits\hashtable.h ****       _M_find_before_node(size_type, const key_type&, __hash_code) const;
 688:c:\program files\daisytoolchain\arm-none-eabi\include\c++\10.2.1\bits\hashtable.h **** 
 689:c:\program files\daisytoolchain\arm-none-eabi\include\c++\10.2.1\bits\hashtable.h ****       __node_type*
 690:c:\program files\daisytoolchain\arm-none-eabi\include\c++\10.2.1\bits\hashtable.h ****       _M_find_node(size_type __bkt, const key_type& __key,
 691:c:\program files\daisytoolchain\arm-none-eabi\include\c++\10.2.1\bits\hashtable.h **** 		   __hash_code __c) const
 692:c:\program files\daisytoolchain\arm-none-eabi\include\c++\10.2.1\bits\hashtable.h ****       {
 693:c:\program files\daisytoolchain\arm-none-eabi\include\c++\10.2.1\bits\hashtable.h **** 	__node_base* __before_n = _M_find_before_node(__bkt, __key, __c);
 694:c:\program files\daisytoolchain\arm-none-eabi\include\c++\10.2.1\bits\hashtable.h **** 	if (__before_n)
 695:c:\program files\daisytoolchain\arm-none-eabi\include\c++\10.2.1\bits\hashtable.h **** 	  return static_cast<__node_type*>(__before_n->_M_nxt);
 696:c:\program files\daisytoolchain\arm-none-eabi\include\c++\10.2.1\bits\hashtable.h **** 	return nullptr;
ARM GAS  C:\Users\theja\AppData\Local\Temp\ccGbJAvD.s 			page 16


 697:c:\program files\daisytoolchain\arm-none-eabi\include\c++\10.2.1\bits\hashtable.h ****       }
 698:c:\program files\daisytoolchain\arm-none-eabi\include\c++\10.2.1\bits\hashtable.h **** 
 699:c:\program files\daisytoolchain\arm-none-eabi\include\c++\10.2.1\bits\hashtable.h ****       // Insert a node at the beginning of a bucket.
 700:c:\program files\daisytoolchain\arm-none-eabi\include\c++\10.2.1\bits\hashtable.h ****       void
 701:c:\program files\daisytoolchain\arm-none-eabi\include\c++\10.2.1\bits\hashtable.h ****       _M_insert_bucket_begin(size_type, __node_type*);
 702:c:\program files\daisytoolchain\arm-none-eabi\include\c++\10.2.1\bits\hashtable.h **** 
 703:c:\program files\daisytoolchain\arm-none-eabi\include\c++\10.2.1\bits\hashtable.h ****       // Remove the bucket first node
 704:c:\program files\daisytoolchain\arm-none-eabi\include\c++\10.2.1\bits\hashtable.h ****       void
 705:c:\program files\daisytoolchain\arm-none-eabi\include\c++\10.2.1\bits\hashtable.h ****       _M_remove_bucket_begin(size_type __bkt, __node_type* __next_n,
 706:c:\program files\daisytoolchain\arm-none-eabi\include\c++\10.2.1\bits\hashtable.h **** 			     size_type __next_bkt);
 707:c:\program files\daisytoolchain\arm-none-eabi\include\c++\10.2.1\bits\hashtable.h **** 
 708:c:\program files\daisytoolchain\arm-none-eabi\include\c++\10.2.1\bits\hashtable.h ****       // Get the node before __n in the bucket __bkt
 709:c:\program files\daisytoolchain\arm-none-eabi\include\c++\10.2.1\bits\hashtable.h ****       __node_base*
 710:c:\program files\daisytoolchain\arm-none-eabi\include\c++\10.2.1\bits\hashtable.h ****       _M_get_previous_node(size_type __bkt, __node_base* __n);
 711:c:\program files\daisytoolchain\arm-none-eabi\include\c++\10.2.1\bits\hashtable.h **** 
 712:c:\program files\daisytoolchain\arm-none-eabi\include\c++\10.2.1\bits\hashtable.h ****       // Insert node __n with key __k and hash code __code, in bucket __bkt
 713:c:\program files\daisytoolchain\arm-none-eabi\include\c++\10.2.1\bits\hashtable.h ****       // if no rehash (assumes no element with same key already present).
 714:c:\program files\daisytoolchain\arm-none-eabi\include\c++\10.2.1\bits\hashtable.h ****       // Takes ownership of __n if insertion succeeds, throws otherwise.
 715:c:\program files\daisytoolchain\arm-none-eabi\include\c++\10.2.1\bits\hashtable.h ****       iterator
 716:c:\program files\daisytoolchain\arm-none-eabi\include\c++\10.2.1\bits\hashtable.h ****       _M_insert_unique_node(const key_type& __k, size_type __bkt,
 717:c:\program files\daisytoolchain\arm-none-eabi\include\c++\10.2.1\bits\hashtable.h **** 			    __hash_code __code, __node_type* __n,
 718:c:\program files\daisytoolchain\arm-none-eabi\include\c++\10.2.1\bits\hashtable.h **** 			    size_type __n_elt = 1);
 719:c:\program files\daisytoolchain\arm-none-eabi\include\c++\10.2.1\bits\hashtable.h **** 
 720:c:\program files\daisytoolchain\arm-none-eabi\include\c++\10.2.1\bits\hashtable.h ****       // Insert node __n with key __k and hash code __code.
 721:c:\program files\daisytoolchain\arm-none-eabi\include\c++\10.2.1\bits\hashtable.h ****       // Takes ownership of __n if insertion succeeds, throws otherwise.
 722:c:\program files\daisytoolchain\arm-none-eabi\include\c++\10.2.1\bits\hashtable.h ****       iterator
 723:c:\program files\daisytoolchain\arm-none-eabi\include\c++\10.2.1\bits\hashtable.h ****       _M_insert_multi_node(__node_type* __hint, const key_type& __k,
 724:c:\program files\daisytoolchain\arm-none-eabi\include\c++\10.2.1\bits\hashtable.h **** 			   __hash_code __code, __node_type* __n);
 725:c:\program files\daisytoolchain\arm-none-eabi\include\c++\10.2.1\bits\hashtable.h **** 
 726:c:\program files\daisytoolchain\arm-none-eabi\include\c++\10.2.1\bits\hashtable.h ****       template<typename... _Args>
 727:c:\program files\daisytoolchain\arm-none-eabi\include\c++\10.2.1\bits\hashtable.h **** 	std::pair<iterator, bool>
 728:c:\program files\daisytoolchain\arm-none-eabi\include\c++\10.2.1\bits\hashtable.h **** 	_M_emplace(true_type, _Args&&... __args);
 729:c:\program files\daisytoolchain\arm-none-eabi\include\c++\10.2.1\bits\hashtable.h **** 
 730:c:\program files\daisytoolchain\arm-none-eabi\include\c++\10.2.1\bits\hashtable.h ****       template<typename... _Args>
 731:c:\program files\daisytoolchain\arm-none-eabi\include\c++\10.2.1\bits\hashtable.h **** 	iterator
 732:c:\program files\daisytoolchain\arm-none-eabi\include\c++\10.2.1\bits\hashtable.h **** 	_M_emplace(false_type __uk, _Args&&... __args)
 733:c:\program files\daisytoolchain\arm-none-eabi\include\c++\10.2.1\bits\hashtable.h **** 	{ return _M_emplace(cend(), __uk, std::forward<_Args>(__args)...); }
 734:c:\program files\daisytoolchain\arm-none-eabi\include\c++\10.2.1\bits\hashtable.h **** 
 735:c:\program files\daisytoolchain\arm-none-eabi\include\c++\10.2.1\bits\hashtable.h ****       // Emplace with hint, useless when keys are unique.
 736:c:\program files\daisytoolchain\arm-none-eabi\include\c++\10.2.1\bits\hashtable.h ****       template<typename... _Args>
 737:c:\program files\daisytoolchain\arm-none-eabi\include\c++\10.2.1\bits\hashtable.h **** 	iterator
 738:c:\program files\daisytoolchain\arm-none-eabi\include\c++\10.2.1\bits\hashtable.h **** 	_M_emplace(const_iterator, true_type __uk, _Args&&... __args)
 739:c:\program files\daisytoolchain\arm-none-eabi\include\c++\10.2.1\bits\hashtable.h **** 	{ return _M_emplace(__uk, std::forward<_Args>(__args)...).first; }
 740:c:\program files\daisytoolchain\arm-none-eabi\include\c++\10.2.1\bits\hashtable.h **** 
 741:c:\program files\daisytoolchain\arm-none-eabi\include\c++\10.2.1\bits\hashtable.h ****       template<typename... _Args>
 742:c:\program files\daisytoolchain\arm-none-eabi\include\c++\10.2.1\bits\hashtable.h **** 	iterator
 743:c:\program files\daisytoolchain\arm-none-eabi\include\c++\10.2.1\bits\hashtable.h **** 	_M_emplace(const_iterator, false_type, _Args&&... __args);
 744:c:\program files\daisytoolchain\arm-none-eabi\include\c++\10.2.1\bits\hashtable.h **** 
 745:c:\program files\daisytoolchain\arm-none-eabi\include\c++\10.2.1\bits\hashtable.h ****       template<typename _Arg, typename _NodeGenerator>
 746:c:\program files\daisytoolchain\arm-none-eabi\include\c++\10.2.1\bits\hashtable.h **** 	std::pair<iterator, bool>
 747:c:\program files\daisytoolchain\arm-none-eabi\include\c++\10.2.1\bits\hashtable.h **** 	_M_insert(_Arg&&, const _NodeGenerator&, true_type, size_type = 1);
 748:c:\program files\daisytoolchain\arm-none-eabi\include\c++\10.2.1\bits\hashtable.h **** 
 749:c:\program files\daisytoolchain\arm-none-eabi\include\c++\10.2.1\bits\hashtable.h ****       template<typename _Arg, typename _NodeGenerator>
 750:c:\program files\daisytoolchain\arm-none-eabi\include\c++\10.2.1\bits\hashtable.h **** 	iterator
 751:c:\program files\daisytoolchain\arm-none-eabi\include\c++\10.2.1\bits\hashtable.h **** 	_M_insert(_Arg&& __arg, const _NodeGenerator& __node_gen,
 752:c:\program files\daisytoolchain\arm-none-eabi\include\c++\10.2.1\bits\hashtable.h **** 		  false_type __uk)
 753:c:\program files\daisytoolchain\arm-none-eabi\include\c++\10.2.1\bits\hashtable.h **** 	{
ARM GAS  C:\Users\theja\AppData\Local\Temp\ccGbJAvD.s 			page 17


 754:c:\program files\daisytoolchain\arm-none-eabi\include\c++\10.2.1\bits\hashtable.h **** 	  return _M_insert(cend(), std::forward<_Arg>(__arg), __node_gen,
 755:c:\program files\daisytoolchain\arm-none-eabi\include\c++\10.2.1\bits\hashtable.h **** 			   __uk);
 756:c:\program files\daisytoolchain\arm-none-eabi\include\c++\10.2.1\bits\hashtable.h **** 	}
 757:c:\program files\daisytoolchain\arm-none-eabi\include\c++\10.2.1\bits\hashtable.h **** 
 758:c:\program files\daisytoolchain\arm-none-eabi\include\c++\10.2.1\bits\hashtable.h ****       // Insert with hint, not used when keys are unique.
 759:c:\program files\daisytoolchain\arm-none-eabi\include\c++\10.2.1\bits\hashtable.h ****       template<typename _Arg, typename _NodeGenerator>
 760:c:\program files\daisytoolchain\arm-none-eabi\include\c++\10.2.1\bits\hashtable.h **** 	iterator
 761:c:\program files\daisytoolchain\arm-none-eabi\include\c++\10.2.1\bits\hashtable.h **** 	_M_insert(const_iterator, _Arg&& __arg,
 762:c:\program files\daisytoolchain\arm-none-eabi\include\c++\10.2.1\bits\hashtable.h **** 		  const _NodeGenerator& __node_gen, true_type __uk)
 763:c:\program files\daisytoolchain\arm-none-eabi\include\c++\10.2.1\bits\hashtable.h **** 	{
 764:c:\program files\daisytoolchain\arm-none-eabi\include\c++\10.2.1\bits\hashtable.h **** 	  return
 765:c:\program files\daisytoolchain\arm-none-eabi\include\c++\10.2.1\bits\hashtable.h **** 	    _M_insert(std::forward<_Arg>(__arg), __node_gen, __uk).first;
 766:c:\program files\daisytoolchain\arm-none-eabi\include\c++\10.2.1\bits\hashtable.h **** 	}
 767:c:\program files\daisytoolchain\arm-none-eabi\include\c++\10.2.1\bits\hashtable.h **** 
 768:c:\program files\daisytoolchain\arm-none-eabi\include\c++\10.2.1\bits\hashtable.h ****       // Insert with hint when keys are not unique.
 769:c:\program files\daisytoolchain\arm-none-eabi\include\c++\10.2.1\bits\hashtable.h ****       template<typename _Arg, typename _NodeGenerator>
 770:c:\program files\daisytoolchain\arm-none-eabi\include\c++\10.2.1\bits\hashtable.h **** 	iterator
 771:c:\program files\daisytoolchain\arm-none-eabi\include\c++\10.2.1\bits\hashtable.h **** 	_M_insert(const_iterator, _Arg&&,
 772:c:\program files\daisytoolchain\arm-none-eabi\include\c++\10.2.1\bits\hashtable.h **** 		  const _NodeGenerator&, false_type);
 773:c:\program files\daisytoolchain\arm-none-eabi\include\c++\10.2.1\bits\hashtable.h **** 
 774:c:\program files\daisytoolchain\arm-none-eabi\include\c++\10.2.1\bits\hashtable.h ****       size_type
 775:c:\program files\daisytoolchain\arm-none-eabi\include\c++\10.2.1\bits\hashtable.h ****       _M_erase(true_type, const key_type&);
 776:c:\program files\daisytoolchain\arm-none-eabi\include\c++\10.2.1\bits\hashtable.h **** 
 777:c:\program files\daisytoolchain\arm-none-eabi\include\c++\10.2.1\bits\hashtable.h ****       size_type
 778:c:\program files\daisytoolchain\arm-none-eabi\include\c++\10.2.1\bits\hashtable.h ****       _M_erase(false_type, const key_type&);
 779:c:\program files\daisytoolchain\arm-none-eabi\include\c++\10.2.1\bits\hashtable.h **** 
 780:c:\program files\daisytoolchain\arm-none-eabi\include\c++\10.2.1\bits\hashtable.h ****       iterator
 781:c:\program files\daisytoolchain\arm-none-eabi\include\c++\10.2.1\bits\hashtable.h ****       _M_erase(size_type __bkt, __node_base* __prev_n, __node_type* __n);
 782:c:\program files\daisytoolchain\arm-none-eabi\include\c++\10.2.1\bits\hashtable.h **** 
 783:c:\program files\daisytoolchain\arm-none-eabi\include\c++\10.2.1\bits\hashtable.h ****     public:
 784:c:\program files\daisytoolchain\arm-none-eabi\include\c++\10.2.1\bits\hashtable.h ****       // Emplace
 785:c:\program files\daisytoolchain\arm-none-eabi\include\c++\10.2.1\bits\hashtable.h ****       template<typename... _Args>
 786:c:\program files\daisytoolchain\arm-none-eabi\include\c++\10.2.1\bits\hashtable.h **** 	__ireturn_type
 787:c:\program files\daisytoolchain\arm-none-eabi\include\c++\10.2.1\bits\hashtable.h **** 	emplace(_Args&&... __args)
 788:c:\program files\daisytoolchain\arm-none-eabi\include\c++\10.2.1\bits\hashtable.h **** 	{ return _M_emplace(__unique_keys(), std::forward<_Args>(__args)...); }
 789:c:\program files\daisytoolchain\arm-none-eabi\include\c++\10.2.1\bits\hashtable.h **** 
 790:c:\program files\daisytoolchain\arm-none-eabi\include\c++\10.2.1\bits\hashtable.h ****       template<typename... _Args>
 791:c:\program files\daisytoolchain\arm-none-eabi\include\c++\10.2.1\bits\hashtable.h **** 	iterator
 792:c:\program files\daisytoolchain\arm-none-eabi\include\c++\10.2.1\bits\hashtable.h **** 	emplace_hint(const_iterator __hint, _Args&&... __args)
 793:c:\program files\daisytoolchain\arm-none-eabi\include\c++\10.2.1\bits\hashtable.h **** 	{
 794:c:\program files\daisytoolchain\arm-none-eabi\include\c++\10.2.1\bits\hashtable.h **** 	  return _M_emplace(__hint, __unique_keys(),
 795:c:\program files\daisytoolchain\arm-none-eabi\include\c++\10.2.1\bits\hashtable.h **** 			    std::forward<_Args>(__args)...);
 796:c:\program files\daisytoolchain\arm-none-eabi\include\c++\10.2.1\bits\hashtable.h **** 	}
 797:c:\program files\daisytoolchain\arm-none-eabi\include\c++\10.2.1\bits\hashtable.h **** 
 798:c:\program files\daisytoolchain\arm-none-eabi\include\c++\10.2.1\bits\hashtable.h ****       // Insert member functions via inheritance.
 799:c:\program files\daisytoolchain\arm-none-eabi\include\c++\10.2.1\bits\hashtable.h **** 
 800:c:\program files\daisytoolchain\arm-none-eabi\include\c++\10.2.1\bits\hashtable.h ****       // Erase
 801:c:\program files\daisytoolchain\arm-none-eabi\include\c++\10.2.1\bits\hashtable.h ****       iterator
 802:c:\program files\daisytoolchain\arm-none-eabi\include\c++\10.2.1\bits\hashtable.h ****       erase(const_iterator);
 803:c:\program files\daisytoolchain\arm-none-eabi\include\c++\10.2.1\bits\hashtable.h **** 
 804:c:\program files\daisytoolchain\arm-none-eabi\include\c++\10.2.1\bits\hashtable.h ****       // LWG 2059.
 805:c:\program files\daisytoolchain\arm-none-eabi\include\c++\10.2.1\bits\hashtable.h ****       iterator
 806:c:\program files\daisytoolchain\arm-none-eabi\include\c++\10.2.1\bits\hashtable.h ****       erase(iterator __it)
 807:c:\program files\daisytoolchain\arm-none-eabi\include\c++\10.2.1\bits\hashtable.h ****       { return erase(const_iterator(__it)); }
 808:c:\program files\daisytoolchain\arm-none-eabi\include\c++\10.2.1\bits\hashtable.h **** 
 809:c:\program files\daisytoolchain\arm-none-eabi\include\c++\10.2.1\bits\hashtable.h ****       size_type
 810:c:\program files\daisytoolchain\arm-none-eabi\include\c++\10.2.1\bits\hashtable.h ****       erase(const key_type& __k)
ARM GAS  C:\Users\theja\AppData\Local\Temp\ccGbJAvD.s 			page 18


 811:c:\program files\daisytoolchain\arm-none-eabi\include\c++\10.2.1\bits\hashtable.h ****       { return _M_erase(__unique_keys(), __k); }
 812:c:\program files\daisytoolchain\arm-none-eabi\include\c++\10.2.1\bits\hashtable.h **** 
 813:c:\program files\daisytoolchain\arm-none-eabi\include\c++\10.2.1\bits\hashtable.h ****       iterator
 814:c:\program files\daisytoolchain\arm-none-eabi\include\c++\10.2.1\bits\hashtable.h ****       erase(const_iterator, const_iterator);
 815:c:\program files\daisytoolchain\arm-none-eabi\include\c++\10.2.1\bits\hashtable.h **** 
 816:c:\program files\daisytoolchain\arm-none-eabi\include\c++\10.2.1\bits\hashtable.h ****       void
 817:c:\program files\daisytoolchain\arm-none-eabi\include\c++\10.2.1\bits\hashtable.h ****       clear() noexcept;
 818:c:\program files\daisytoolchain\arm-none-eabi\include\c++\10.2.1\bits\hashtable.h **** 
 819:c:\program files\daisytoolchain\arm-none-eabi\include\c++\10.2.1\bits\hashtable.h ****       // Set number of buckets keeping it appropriate for container's number
 820:c:\program files\daisytoolchain\arm-none-eabi\include\c++\10.2.1\bits\hashtable.h ****       // of elements.
 821:c:\program files\daisytoolchain\arm-none-eabi\include\c++\10.2.1\bits\hashtable.h ****       void rehash(size_type __bkt_count);
 822:c:\program files\daisytoolchain\arm-none-eabi\include\c++\10.2.1\bits\hashtable.h **** 
 823:c:\program files\daisytoolchain\arm-none-eabi\include\c++\10.2.1\bits\hashtable.h ****       // DR 1189.
 824:c:\program files\daisytoolchain\arm-none-eabi\include\c++\10.2.1\bits\hashtable.h ****       // reserve, if present, comes from _Rehash_base.
 825:c:\program files\daisytoolchain\arm-none-eabi\include\c++\10.2.1\bits\hashtable.h **** 
 826:c:\program files\daisytoolchain\arm-none-eabi\include\c++\10.2.1\bits\hashtable.h **** #if __cplusplus > 201402L
 827:c:\program files\daisytoolchain\arm-none-eabi\include\c++\10.2.1\bits\hashtable.h ****       /// Re-insert an extracted node into a container with unique keys.
 828:c:\program files\daisytoolchain\arm-none-eabi\include\c++\10.2.1\bits\hashtable.h ****       insert_return_type
 829:c:\program files\daisytoolchain\arm-none-eabi\include\c++\10.2.1\bits\hashtable.h ****       _M_reinsert_node(node_type&& __nh)
 830:c:\program files\daisytoolchain\arm-none-eabi\include\c++\10.2.1\bits\hashtable.h ****       {
 831:c:\program files\daisytoolchain\arm-none-eabi\include\c++\10.2.1\bits\hashtable.h **** 	insert_return_type __ret;
 832:c:\program files\daisytoolchain\arm-none-eabi\include\c++\10.2.1\bits\hashtable.h **** 	if (__nh.empty())
 833:c:\program files\daisytoolchain\arm-none-eabi\include\c++\10.2.1\bits\hashtable.h **** 	  __ret.position = end();
 834:c:\program files\daisytoolchain\arm-none-eabi\include\c++\10.2.1\bits\hashtable.h **** 	else
 835:c:\program files\daisytoolchain\arm-none-eabi\include\c++\10.2.1\bits\hashtable.h **** 	  {
 836:c:\program files\daisytoolchain\arm-none-eabi\include\c++\10.2.1\bits\hashtable.h **** 	    __glibcxx_assert(get_allocator() == __nh.get_allocator());
 837:c:\program files\daisytoolchain\arm-none-eabi\include\c++\10.2.1\bits\hashtable.h **** 
 838:c:\program files\daisytoolchain\arm-none-eabi\include\c++\10.2.1\bits\hashtable.h **** 	    const key_type& __k = __nh._M_key();
 839:c:\program files\daisytoolchain\arm-none-eabi\include\c++\10.2.1\bits\hashtable.h **** 	    __hash_code __code = this->_M_hash_code(__k);
 840:c:\program files\daisytoolchain\arm-none-eabi\include\c++\10.2.1\bits\hashtable.h **** 	    size_type __bkt = _M_bucket_index(__k, __code);
 841:c:\program files\daisytoolchain\arm-none-eabi\include\c++\10.2.1\bits\hashtable.h **** 	    if (__node_type* __n = _M_find_node(__bkt, __k, __code))
 842:c:\program files\daisytoolchain\arm-none-eabi\include\c++\10.2.1\bits\hashtable.h **** 	      {
 843:c:\program files\daisytoolchain\arm-none-eabi\include\c++\10.2.1\bits\hashtable.h **** 		__ret.node = std::move(__nh);
 844:c:\program files\daisytoolchain\arm-none-eabi\include\c++\10.2.1\bits\hashtable.h **** 		__ret.position = iterator(__n);
 845:c:\program files\daisytoolchain\arm-none-eabi\include\c++\10.2.1\bits\hashtable.h **** 		__ret.inserted = false;
 846:c:\program files\daisytoolchain\arm-none-eabi\include\c++\10.2.1\bits\hashtable.h **** 	      }
 847:c:\program files\daisytoolchain\arm-none-eabi\include\c++\10.2.1\bits\hashtable.h **** 	    else
 848:c:\program files\daisytoolchain\arm-none-eabi\include\c++\10.2.1\bits\hashtable.h **** 	      {
 849:c:\program files\daisytoolchain\arm-none-eabi\include\c++\10.2.1\bits\hashtable.h **** 		__ret.position
 850:c:\program files\daisytoolchain\arm-none-eabi\include\c++\10.2.1\bits\hashtable.h **** 		  = _M_insert_unique_node(__k, __bkt, __code, __nh._M_ptr);
 851:c:\program files\daisytoolchain\arm-none-eabi\include\c++\10.2.1\bits\hashtable.h **** 		__nh._M_ptr = nullptr;
 852:c:\program files\daisytoolchain\arm-none-eabi\include\c++\10.2.1\bits\hashtable.h **** 		__ret.inserted = true;
 853:c:\program files\daisytoolchain\arm-none-eabi\include\c++\10.2.1\bits\hashtable.h **** 	      }
 854:c:\program files\daisytoolchain\arm-none-eabi\include\c++\10.2.1\bits\hashtable.h **** 	  }
 855:c:\program files\daisytoolchain\arm-none-eabi\include\c++\10.2.1\bits\hashtable.h **** 	return __ret;
 856:c:\program files\daisytoolchain\arm-none-eabi\include\c++\10.2.1\bits\hashtable.h ****       }
 857:c:\program files\daisytoolchain\arm-none-eabi\include\c++\10.2.1\bits\hashtable.h **** 
 858:c:\program files\daisytoolchain\arm-none-eabi\include\c++\10.2.1\bits\hashtable.h ****       /// Re-insert an extracted node into a container with equivalent keys.
 859:c:\program files\daisytoolchain\arm-none-eabi\include\c++\10.2.1\bits\hashtable.h ****       iterator
 860:c:\program files\daisytoolchain\arm-none-eabi\include\c++\10.2.1\bits\hashtable.h ****       _M_reinsert_node_multi(const_iterator __hint, node_type&& __nh)
 861:c:\program files\daisytoolchain\arm-none-eabi\include\c++\10.2.1\bits\hashtable.h ****       {
 862:c:\program files\daisytoolchain\arm-none-eabi\include\c++\10.2.1\bits\hashtable.h **** 	if (__nh.empty())
 863:c:\program files\daisytoolchain\arm-none-eabi\include\c++\10.2.1\bits\hashtable.h **** 	  return end();
 864:c:\program files\daisytoolchain\arm-none-eabi\include\c++\10.2.1\bits\hashtable.h **** 
 865:c:\program files\daisytoolchain\arm-none-eabi\include\c++\10.2.1\bits\hashtable.h **** 	__glibcxx_assert(get_allocator() == __nh.get_allocator());
 866:c:\program files\daisytoolchain\arm-none-eabi\include\c++\10.2.1\bits\hashtable.h **** 
 867:c:\program files\daisytoolchain\arm-none-eabi\include\c++\10.2.1\bits\hashtable.h **** 	const key_type& __k = __nh._M_key();
ARM GAS  C:\Users\theja\AppData\Local\Temp\ccGbJAvD.s 			page 19


 868:c:\program files\daisytoolchain\arm-none-eabi\include\c++\10.2.1\bits\hashtable.h **** 	auto __code = this->_M_hash_code(__k);
 869:c:\program files\daisytoolchain\arm-none-eabi\include\c++\10.2.1\bits\hashtable.h **** 	auto __ret
 870:c:\program files\daisytoolchain\arm-none-eabi\include\c++\10.2.1\bits\hashtable.h **** 	  = _M_insert_multi_node(__hint._M_cur, __k, __code, __nh._M_ptr);
 871:c:\program files\daisytoolchain\arm-none-eabi\include\c++\10.2.1\bits\hashtable.h **** 	__nh._M_ptr = nullptr;
 872:c:\program files\daisytoolchain\arm-none-eabi\include\c++\10.2.1\bits\hashtable.h **** 	return __ret;
 873:c:\program files\daisytoolchain\arm-none-eabi\include\c++\10.2.1\bits\hashtable.h ****       }
 874:c:\program files\daisytoolchain\arm-none-eabi\include\c++\10.2.1\bits\hashtable.h **** 
 875:c:\program files\daisytoolchain\arm-none-eabi\include\c++\10.2.1\bits\hashtable.h ****     private:
 876:c:\program files\daisytoolchain\arm-none-eabi\include\c++\10.2.1\bits\hashtable.h ****       node_type
 877:c:\program files\daisytoolchain\arm-none-eabi\include\c++\10.2.1\bits\hashtable.h ****       _M_extract_node(size_t __bkt, __node_base* __prev_n)
 878:c:\program files\daisytoolchain\arm-none-eabi\include\c++\10.2.1\bits\hashtable.h ****       {
 879:c:\program files\daisytoolchain\arm-none-eabi\include\c++\10.2.1\bits\hashtable.h **** 	__node_type* __n = static_cast<__node_type*>(__prev_n->_M_nxt);
 880:c:\program files\daisytoolchain\arm-none-eabi\include\c++\10.2.1\bits\hashtable.h **** 	if (__prev_n == _M_buckets[__bkt])
 881:c:\program files\daisytoolchain\arm-none-eabi\include\c++\10.2.1\bits\hashtable.h **** 	  _M_remove_bucket_begin(__bkt, __n->_M_next(),
 882:c:\program files\daisytoolchain\arm-none-eabi\include\c++\10.2.1\bits\hashtable.h **** 	     __n->_M_nxt ? _M_bucket_index(__n->_M_next()) : 0);
 883:c:\program files\daisytoolchain\arm-none-eabi\include\c++\10.2.1\bits\hashtable.h **** 	else if (__n->_M_nxt)
 884:c:\program files\daisytoolchain\arm-none-eabi\include\c++\10.2.1\bits\hashtable.h **** 	  {
 885:c:\program files\daisytoolchain\arm-none-eabi\include\c++\10.2.1\bits\hashtable.h **** 	    size_type __next_bkt = _M_bucket_index(__n->_M_next());
 886:c:\program files\daisytoolchain\arm-none-eabi\include\c++\10.2.1\bits\hashtable.h **** 	    if (__next_bkt != __bkt)
 887:c:\program files\daisytoolchain\arm-none-eabi\include\c++\10.2.1\bits\hashtable.h **** 	      _M_buckets[__next_bkt] = __prev_n;
 888:c:\program files\daisytoolchain\arm-none-eabi\include\c++\10.2.1\bits\hashtable.h **** 	  }
 889:c:\program files\daisytoolchain\arm-none-eabi\include\c++\10.2.1\bits\hashtable.h **** 
 890:c:\program files\daisytoolchain\arm-none-eabi\include\c++\10.2.1\bits\hashtable.h **** 	__prev_n->_M_nxt = __n->_M_nxt;
 891:c:\program files\daisytoolchain\arm-none-eabi\include\c++\10.2.1\bits\hashtable.h **** 	__n->_M_nxt = nullptr;
 892:c:\program files\daisytoolchain\arm-none-eabi\include\c++\10.2.1\bits\hashtable.h **** 	--_M_element_count;
 893:c:\program files\daisytoolchain\arm-none-eabi\include\c++\10.2.1\bits\hashtable.h **** 	return { __n, this->_M_node_allocator() };
 894:c:\program files\daisytoolchain\arm-none-eabi\include\c++\10.2.1\bits\hashtable.h ****       }
 895:c:\program files\daisytoolchain\arm-none-eabi\include\c++\10.2.1\bits\hashtable.h **** 
 896:c:\program files\daisytoolchain\arm-none-eabi\include\c++\10.2.1\bits\hashtable.h ****     public:
 897:c:\program files\daisytoolchain\arm-none-eabi\include\c++\10.2.1\bits\hashtable.h ****       // Extract a node.
 898:c:\program files\daisytoolchain\arm-none-eabi\include\c++\10.2.1\bits\hashtable.h ****       node_type
 899:c:\program files\daisytoolchain\arm-none-eabi\include\c++\10.2.1\bits\hashtable.h ****       extract(const_iterator __pos)
 900:c:\program files\daisytoolchain\arm-none-eabi\include\c++\10.2.1\bits\hashtable.h ****       {
 901:c:\program files\daisytoolchain\arm-none-eabi\include\c++\10.2.1\bits\hashtable.h **** 	size_t __bkt = _M_bucket_index(__pos._M_cur);
 902:c:\program files\daisytoolchain\arm-none-eabi\include\c++\10.2.1\bits\hashtable.h **** 	return _M_extract_node(__bkt,
 903:c:\program files\daisytoolchain\arm-none-eabi\include\c++\10.2.1\bits\hashtable.h **** 			       _M_get_previous_node(__bkt, __pos._M_cur));
 904:c:\program files\daisytoolchain\arm-none-eabi\include\c++\10.2.1\bits\hashtable.h ****       }
 905:c:\program files\daisytoolchain\arm-none-eabi\include\c++\10.2.1\bits\hashtable.h **** 
 906:c:\program files\daisytoolchain\arm-none-eabi\include\c++\10.2.1\bits\hashtable.h ****       /// Extract a node.
 907:c:\program files\daisytoolchain\arm-none-eabi\include\c++\10.2.1\bits\hashtable.h ****       node_type
 908:c:\program files\daisytoolchain\arm-none-eabi\include\c++\10.2.1\bits\hashtable.h ****       extract(const _Key& __k)
 909:c:\program files\daisytoolchain\arm-none-eabi\include\c++\10.2.1\bits\hashtable.h ****       {
 910:c:\program files\daisytoolchain\arm-none-eabi\include\c++\10.2.1\bits\hashtable.h **** 	node_type __nh;
 911:c:\program files\daisytoolchain\arm-none-eabi\include\c++\10.2.1\bits\hashtable.h **** 	__hash_code __code = this->_M_hash_code(__k);
 912:c:\program files\daisytoolchain\arm-none-eabi\include\c++\10.2.1\bits\hashtable.h **** 	std::size_t __bkt = _M_bucket_index(__k, __code);
 913:c:\program files\daisytoolchain\arm-none-eabi\include\c++\10.2.1\bits\hashtable.h **** 	if (__node_base* __prev_node = _M_find_before_node(__bkt, __k, __code))
 914:c:\program files\daisytoolchain\arm-none-eabi\include\c++\10.2.1\bits\hashtable.h **** 	  __nh = _M_extract_node(__bkt, __prev_node);
 915:c:\program files\daisytoolchain\arm-none-eabi\include\c++\10.2.1\bits\hashtable.h **** 	return __nh;
 916:c:\program files\daisytoolchain\arm-none-eabi\include\c++\10.2.1\bits\hashtable.h ****       }
 917:c:\program files\daisytoolchain\arm-none-eabi\include\c++\10.2.1\bits\hashtable.h **** 
 918:c:\program files\daisytoolchain\arm-none-eabi\include\c++\10.2.1\bits\hashtable.h ****       /// Merge from a compatible container into one with unique keys.
 919:c:\program files\daisytoolchain\arm-none-eabi\include\c++\10.2.1\bits\hashtable.h ****       template<typename _Compatible_Hashtable>
 920:c:\program files\daisytoolchain\arm-none-eabi\include\c++\10.2.1\bits\hashtable.h **** 	void
 921:c:\program files\daisytoolchain\arm-none-eabi\include\c++\10.2.1\bits\hashtable.h **** 	_M_merge_unique(_Compatible_Hashtable& __src) noexcept
 922:c:\program files\daisytoolchain\arm-none-eabi\include\c++\10.2.1\bits\hashtable.h **** 	{
 923:c:\program files\daisytoolchain\arm-none-eabi\include\c++\10.2.1\bits\hashtable.h **** 	  static_assert(is_same_v<typename _Compatible_Hashtable::node_type,
 924:c:\program files\daisytoolchain\arm-none-eabi\include\c++\10.2.1\bits\hashtable.h **** 	      node_type>, "Node types are compatible");
ARM GAS  C:\Users\theja\AppData\Local\Temp\ccGbJAvD.s 			page 20


 925:c:\program files\daisytoolchain\arm-none-eabi\include\c++\10.2.1\bits\hashtable.h **** 	  __glibcxx_assert(get_allocator() == __src.get_allocator());
 926:c:\program files\daisytoolchain\arm-none-eabi\include\c++\10.2.1\bits\hashtable.h **** 
 927:c:\program files\daisytoolchain\arm-none-eabi\include\c++\10.2.1\bits\hashtable.h **** 	  auto __n_elt = __src.size();
 928:c:\program files\daisytoolchain\arm-none-eabi\include\c++\10.2.1\bits\hashtable.h **** 	  for (auto __i = __src.begin(), __end = __src.end(); __i != __end;)
 929:c:\program files\daisytoolchain\arm-none-eabi\include\c++\10.2.1\bits\hashtable.h **** 	    {
 930:c:\program files\daisytoolchain\arm-none-eabi\include\c++\10.2.1\bits\hashtable.h **** 	      auto __pos = __i++;
 931:c:\program files\daisytoolchain\arm-none-eabi\include\c++\10.2.1\bits\hashtable.h **** 	      const key_type& __k = this->_M_extract()(*__pos);
 932:c:\program files\daisytoolchain\arm-none-eabi\include\c++\10.2.1\bits\hashtable.h **** 	      __hash_code __code = this->_M_hash_code(__k);
 933:c:\program files\daisytoolchain\arm-none-eabi\include\c++\10.2.1\bits\hashtable.h **** 	      size_type __bkt = _M_bucket_index(__k, __code);
 934:c:\program files\daisytoolchain\arm-none-eabi\include\c++\10.2.1\bits\hashtable.h **** 	      if (_M_find_node(__bkt, __k, __code) == nullptr)
 935:c:\program files\daisytoolchain\arm-none-eabi\include\c++\10.2.1\bits\hashtable.h **** 		{
 936:c:\program files\daisytoolchain\arm-none-eabi\include\c++\10.2.1\bits\hashtable.h **** 		  auto __nh = __src.extract(__pos);
 937:c:\program files\daisytoolchain\arm-none-eabi\include\c++\10.2.1\bits\hashtable.h **** 		  _M_insert_unique_node(__k, __bkt, __code, __nh._M_ptr,
 938:c:\program files\daisytoolchain\arm-none-eabi\include\c++\10.2.1\bits\hashtable.h **** 					__n_elt);
 939:c:\program files\daisytoolchain\arm-none-eabi\include\c++\10.2.1\bits\hashtable.h **** 		  __nh._M_ptr = nullptr;
 940:c:\program files\daisytoolchain\arm-none-eabi\include\c++\10.2.1\bits\hashtable.h **** 		  __n_elt = 1;
 941:c:\program files\daisytoolchain\arm-none-eabi\include\c++\10.2.1\bits\hashtable.h **** 		}
 942:c:\program files\daisytoolchain\arm-none-eabi\include\c++\10.2.1\bits\hashtable.h **** 	      else if (__n_elt != 1)
 943:c:\program files\daisytoolchain\arm-none-eabi\include\c++\10.2.1\bits\hashtable.h **** 		--__n_elt;
 944:c:\program files\daisytoolchain\arm-none-eabi\include\c++\10.2.1\bits\hashtable.h **** 	    }
 945:c:\program files\daisytoolchain\arm-none-eabi\include\c++\10.2.1\bits\hashtable.h **** 	}
 946:c:\program files\daisytoolchain\arm-none-eabi\include\c++\10.2.1\bits\hashtable.h **** 
 947:c:\program files\daisytoolchain\arm-none-eabi\include\c++\10.2.1\bits\hashtable.h ****       /// Merge from a compatible container into one with equivalent keys.
 948:c:\program files\daisytoolchain\arm-none-eabi\include\c++\10.2.1\bits\hashtable.h ****       template<typename _Compatible_Hashtable>
 949:c:\program files\daisytoolchain\arm-none-eabi\include\c++\10.2.1\bits\hashtable.h **** 	void
 950:c:\program files\daisytoolchain\arm-none-eabi\include\c++\10.2.1\bits\hashtable.h **** 	_M_merge_multi(_Compatible_Hashtable& __src) noexcept
 951:c:\program files\daisytoolchain\arm-none-eabi\include\c++\10.2.1\bits\hashtable.h **** 	{
 952:c:\program files\daisytoolchain\arm-none-eabi\include\c++\10.2.1\bits\hashtable.h **** 	  static_assert(is_same_v<typename _Compatible_Hashtable::node_type,
 953:c:\program files\daisytoolchain\arm-none-eabi\include\c++\10.2.1\bits\hashtable.h **** 	      node_type>, "Node types are compatible");
 954:c:\program files\daisytoolchain\arm-none-eabi\include\c++\10.2.1\bits\hashtable.h **** 	  __glibcxx_assert(get_allocator() == __src.get_allocator());
 955:c:\program files\daisytoolchain\arm-none-eabi\include\c++\10.2.1\bits\hashtable.h **** 
 956:c:\program files\daisytoolchain\arm-none-eabi\include\c++\10.2.1\bits\hashtable.h **** 	  this->reserve(size() + __src.size());
 957:c:\program files\daisytoolchain\arm-none-eabi\include\c++\10.2.1\bits\hashtable.h **** 	  for (auto __i = __src.begin(), __end = __src.end(); __i != __end;)
 958:c:\program files\daisytoolchain\arm-none-eabi\include\c++\10.2.1\bits\hashtable.h **** 	    _M_reinsert_node_multi(cend(), __src.extract(__i++));
 959:c:\program files\daisytoolchain\arm-none-eabi\include\c++\10.2.1\bits\hashtable.h **** 	}
 960:c:\program files\daisytoolchain\arm-none-eabi\include\c++\10.2.1\bits\hashtable.h **** #endif // C++17
 961:c:\program files\daisytoolchain\arm-none-eabi\include\c++\10.2.1\bits\hashtable.h **** 
 962:c:\program files\daisytoolchain\arm-none-eabi\include\c++\10.2.1\bits\hashtable.h ****     private:
 963:c:\program files\daisytoolchain\arm-none-eabi\include\c++\10.2.1\bits\hashtable.h ****       // Helper rehash method used when keys are unique.
 964:c:\program files\daisytoolchain\arm-none-eabi\include\c++\10.2.1\bits\hashtable.h ****       void _M_rehash_aux(size_type __bkt_count, true_type);
 965:c:\program files\daisytoolchain\arm-none-eabi\include\c++\10.2.1\bits\hashtable.h **** 
 966:c:\program files\daisytoolchain\arm-none-eabi\include\c++\10.2.1\bits\hashtable.h ****       // Helper rehash method used when keys can be non-unique.
 967:c:\program files\daisytoolchain\arm-none-eabi\include\c++\10.2.1\bits\hashtable.h ****       void _M_rehash_aux(size_type __bkt_count, false_type);
 968:c:\program files\daisytoolchain\arm-none-eabi\include\c++\10.2.1\bits\hashtable.h **** 
 969:c:\program files\daisytoolchain\arm-none-eabi\include\c++\10.2.1\bits\hashtable.h ****       // Unconditionally change size of bucket array to n, restore
 970:c:\program files\daisytoolchain\arm-none-eabi\include\c++\10.2.1\bits\hashtable.h ****       // hash policy state to __state on exception.
 971:c:\program files\daisytoolchain\arm-none-eabi\include\c++\10.2.1\bits\hashtable.h ****       void _M_rehash(size_type __bkt_count, const __rehash_state& __state);
 972:c:\program files\daisytoolchain\arm-none-eabi\include\c++\10.2.1\bits\hashtable.h ****     };
 973:c:\program files\daisytoolchain\arm-none-eabi\include\c++\10.2.1\bits\hashtable.h **** 
 974:c:\program files\daisytoolchain\arm-none-eabi\include\c++\10.2.1\bits\hashtable.h **** 
 975:c:\program files\daisytoolchain\arm-none-eabi\include\c++\10.2.1\bits\hashtable.h ****   // Definitions of class template _Hashtable's out-of-line member functions.
 976:c:\program files\daisytoolchain\arm-none-eabi\include\c++\10.2.1\bits\hashtable.h ****   template<typename _Key, typename _Value,
 977:c:\program files\daisytoolchain\arm-none-eabi\include\c++\10.2.1\bits\hashtable.h **** 	   typename _Alloc, typename _ExtractKey, typename _Equal,
 978:c:\program files\daisytoolchain\arm-none-eabi\include\c++\10.2.1\bits\hashtable.h **** 	   typename _H1, typename _H2, typename _Hash, typename _RehashPolicy,
 979:c:\program files\daisytoolchain\arm-none-eabi\include\c++\10.2.1\bits\hashtable.h **** 	   typename _Traits>
 980:c:\program files\daisytoolchain\arm-none-eabi\include\c++\10.2.1\bits\hashtable.h ****     auto
 981:c:\program files\daisytoolchain\arm-none-eabi\include\c++\10.2.1\bits\hashtable.h ****     _Hashtable<_Key, _Value, _Alloc, _ExtractKey, _Equal,
ARM GAS  C:\Users\theja\AppData\Local\Temp\ccGbJAvD.s 			page 21


 982:c:\program files\daisytoolchain\arm-none-eabi\include\c++\10.2.1\bits\hashtable.h **** 	       _H1, _H2, _Hash, _RehashPolicy, _Traits>::
 983:c:\program files\daisytoolchain\arm-none-eabi\include\c++\10.2.1\bits\hashtable.h ****     _M_bucket_begin(size_type __bkt) const
 984:c:\program files\daisytoolchain\arm-none-eabi\include\c++\10.2.1\bits\hashtable.h ****     -> __node_type*
 985:c:\program files\daisytoolchain\arm-none-eabi\include\c++\10.2.1\bits\hashtable.h ****     {
 986:c:\program files\daisytoolchain\arm-none-eabi\include\c++\10.2.1\bits\hashtable.h ****       __node_base* __n = _M_buckets[__bkt];
 987:c:\program files\daisytoolchain\arm-none-eabi\include\c++\10.2.1\bits\hashtable.h ****       return __n ? static_cast<__node_type*>(__n->_M_nxt) : nullptr;
 988:c:\program files\daisytoolchain\arm-none-eabi\include\c++\10.2.1\bits\hashtable.h ****     }
 989:c:\program files\daisytoolchain\arm-none-eabi\include\c++\10.2.1\bits\hashtable.h **** 
 990:c:\program files\daisytoolchain\arm-none-eabi\include\c++\10.2.1\bits\hashtable.h ****   template<typename _Key, typename _Value,
 991:c:\program files\daisytoolchain\arm-none-eabi\include\c++\10.2.1\bits\hashtable.h **** 	   typename _Alloc, typename _ExtractKey, typename _Equal,
 992:c:\program files\daisytoolchain\arm-none-eabi\include\c++\10.2.1\bits\hashtable.h **** 	   typename _H1, typename _H2, typename _Hash, typename _RehashPolicy,
 993:c:\program files\daisytoolchain\arm-none-eabi\include\c++\10.2.1\bits\hashtable.h **** 	   typename _Traits>
 994:c:\program files\daisytoolchain\arm-none-eabi\include\c++\10.2.1\bits\hashtable.h ****     _Hashtable<_Key, _Value, _Alloc, _ExtractKey, _Equal,
 995:c:\program files\daisytoolchain\arm-none-eabi\include\c++\10.2.1\bits\hashtable.h **** 	       _H1, _H2, _Hash, _RehashPolicy, _Traits>::
 996:c:\program files\daisytoolchain\arm-none-eabi\include\c++\10.2.1\bits\hashtable.h ****     _Hashtable(size_type __bkt_count_hint,
 997:c:\program files\daisytoolchain\arm-none-eabi\include\c++\10.2.1\bits\hashtable.h **** 	       const _H1& __h1, const _H2& __h2, const _Hash& __h,
 998:c:\program files\daisytoolchain\arm-none-eabi\include\c++\10.2.1\bits\hashtable.h **** 	       const _Equal& __eq, const _ExtractKey& __exk,
 999:c:\program files\daisytoolchain\arm-none-eabi\include\c++\10.2.1\bits\hashtable.h **** 	       const allocator_type& __a)
1000:c:\program files\daisytoolchain\arm-none-eabi\include\c++\10.2.1\bits\hashtable.h ****     : _Hashtable(__h1, __h2, __h, __eq, __exk, __a)
1001:c:\program files\daisytoolchain\arm-none-eabi\include\c++\10.2.1\bits\hashtable.h ****     {
1002:c:\program files\daisytoolchain\arm-none-eabi\include\c++\10.2.1\bits\hashtable.h ****       auto __bkt_count = _M_rehash_policy._M_next_bkt(__bkt_count_hint);
1003:c:\program files\daisytoolchain\arm-none-eabi\include\c++\10.2.1\bits\hashtable.h ****       if (__bkt_count > _M_bucket_count)
1004:c:\program files\daisytoolchain\arm-none-eabi\include\c++\10.2.1\bits\hashtable.h **** 	{
1005:c:\program files\daisytoolchain\arm-none-eabi\include\c++\10.2.1\bits\hashtable.h **** 	  _M_buckets = _M_allocate_buckets(__bkt_count);
1006:c:\program files\daisytoolchain\arm-none-eabi\include\c++\10.2.1\bits\hashtable.h **** 	  _M_bucket_count = __bkt_count;
1007:c:\program files\daisytoolchain\arm-none-eabi\include\c++\10.2.1\bits\hashtable.h **** 	}
1008:c:\program files\daisytoolchain\arm-none-eabi\include\c++\10.2.1\bits\hashtable.h ****     }
1009:c:\program files\daisytoolchain\arm-none-eabi\include\c++\10.2.1\bits\hashtable.h **** 
1010:c:\program files\daisytoolchain\arm-none-eabi\include\c++\10.2.1\bits\hashtable.h ****   template<typename _Key, typename _Value,
1011:c:\program files\daisytoolchain\arm-none-eabi\include\c++\10.2.1\bits\hashtable.h **** 	   typename _Alloc, typename _ExtractKey, typename _Equal,
1012:c:\program files\daisytoolchain\arm-none-eabi\include\c++\10.2.1\bits\hashtable.h **** 	   typename _H1, typename _H2, typename _Hash, typename _RehashPolicy,
1013:c:\program files\daisytoolchain\arm-none-eabi\include\c++\10.2.1\bits\hashtable.h **** 	   typename _Traits>
1014:c:\program files\daisytoolchain\arm-none-eabi\include\c++\10.2.1\bits\hashtable.h ****     template<typename _InputIterator>
1015:c:\program files\daisytoolchain\arm-none-eabi\include\c++\10.2.1\bits\hashtable.h ****       _Hashtable<_Key, _Value, _Alloc, _ExtractKey, _Equal,
1016:c:\program files\daisytoolchain\arm-none-eabi\include\c++\10.2.1\bits\hashtable.h **** 		 _H1, _H2, _Hash, _RehashPolicy, _Traits>::
1017:c:\program files\daisytoolchain\arm-none-eabi\include\c++\10.2.1\bits\hashtable.h ****       _Hashtable(_InputIterator __f, _InputIterator __l,
1018:c:\program files\daisytoolchain\arm-none-eabi\include\c++\10.2.1\bits\hashtable.h **** 		 size_type __bkt_count_hint,
1019:c:\program files\daisytoolchain\arm-none-eabi\include\c++\10.2.1\bits\hashtable.h **** 		 const _H1& __h1, const _H2& __h2, const _Hash& __h,
1020:c:\program files\daisytoolchain\arm-none-eabi\include\c++\10.2.1\bits\hashtable.h **** 		 const _Equal& __eq, const _ExtractKey& __exk,
1021:c:\program files\daisytoolchain\arm-none-eabi\include\c++\10.2.1\bits\hashtable.h **** 		 const allocator_type& __a)
1022:c:\program files\daisytoolchain\arm-none-eabi\include\c++\10.2.1\bits\hashtable.h ****       : _Hashtable(__h1, __h2, __h, __eq, __exk, __a)
1023:c:\program files\daisytoolchain\arm-none-eabi\include\c++\10.2.1\bits\hashtable.h ****       {
1024:c:\program files\daisytoolchain\arm-none-eabi\include\c++\10.2.1\bits\hashtable.h **** 	auto __nb_elems = __detail::__distance_fw(__f, __l);
1025:c:\program files\daisytoolchain\arm-none-eabi\include\c++\10.2.1\bits\hashtable.h **** 	auto __bkt_count =
1026:c:\program files\daisytoolchain\arm-none-eabi\include\c++\10.2.1\bits\hashtable.h **** 	  _M_rehash_policy._M_next_bkt(
1027:c:\program files\daisytoolchain\arm-none-eabi\include\c++\10.2.1\bits\hashtable.h **** 	    std::max(_M_rehash_policy._M_bkt_for_elements(__nb_elems),
1028:c:\program files\daisytoolchain\arm-none-eabi\include\c++\10.2.1\bits\hashtable.h **** 		     __bkt_count_hint));
1029:c:\program files\daisytoolchain\arm-none-eabi\include\c++\10.2.1\bits\hashtable.h **** 
1030:c:\program files\daisytoolchain\arm-none-eabi\include\c++\10.2.1\bits\hashtable.h **** 	if (__bkt_count > _M_bucket_count)
1031:c:\program files\daisytoolchain\arm-none-eabi\include\c++\10.2.1\bits\hashtable.h **** 	  {
1032:c:\program files\daisytoolchain\arm-none-eabi\include\c++\10.2.1\bits\hashtable.h **** 	    _M_buckets = _M_allocate_buckets(__bkt_count);
1033:c:\program files\daisytoolchain\arm-none-eabi\include\c++\10.2.1\bits\hashtable.h **** 	    _M_bucket_count = __bkt_count;
1034:c:\program files\daisytoolchain\arm-none-eabi\include\c++\10.2.1\bits\hashtable.h **** 	  }
1035:c:\program files\daisytoolchain\arm-none-eabi\include\c++\10.2.1\bits\hashtable.h **** 
1036:c:\program files\daisytoolchain\arm-none-eabi\include\c++\10.2.1\bits\hashtable.h **** 	for (; __f != __l; ++__f)
1037:c:\program files\daisytoolchain\arm-none-eabi\include\c++\10.2.1\bits\hashtable.h **** 	  this->insert(*__f);
1038:c:\program files\daisytoolchain\arm-none-eabi\include\c++\10.2.1\bits\hashtable.h ****       }
ARM GAS  C:\Users\theja\AppData\Local\Temp\ccGbJAvD.s 			page 22


1039:c:\program files\daisytoolchain\arm-none-eabi\include\c++\10.2.1\bits\hashtable.h **** 
1040:c:\program files\daisytoolchain\arm-none-eabi\include\c++\10.2.1\bits\hashtable.h ****   template<typename _Key, typename _Value,
1041:c:\program files\daisytoolchain\arm-none-eabi\include\c++\10.2.1\bits\hashtable.h **** 	   typename _Alloc, typename _ExtractKey, typename _Equal,
1042:c:\program files\daisytoolchain\arm-none-eabi\include\c++\10.2.1\bits\hashtable.h **** 	   typename _H1, typename _H2, typename _Hash, typename _RehashPolicy,
1043:c:\program files\daisytoolchain\arm-none-eabi\include\c++\10.2.1\bits\hashtable.h **** 	   typename _Traits>
1044:c:\program files\daisytoolchain\arm-none-eabi\include\c++\10.2.1\bits\hashtable.h ****     auto
1045:c:\program files\daisytoolchain\arm-none-eabi\include\c++\10.2.1\bits\hashtable.h ****     _Hashtable<_Key, _Value, _Alloc, _ExtractKey, _Equal,
1046:c:\program files\daisytoolchain\arm-none-eabi\include\c++\10.2.1\bits\hashtable.h **** 	       _H1, _H2, _Hash, _RehashPolicy, _Traits>::
1047:c:\program files\daisytoolchain\arm-none-eabi\include\c++\10.2.1\bits\hashtable.h ****     operator=(const _Hashtable& __ht)
1048:c:\program files\daisytoolchain\arm-none-eabi\include\c++\10.2.1\bits\hashtable.h ****     -> _Hashtable&
1049:c:\program files\daisytoolchain\arm-none-eabi\include\c++\10.2.1\bits\hashtable.h ****     {
1050:c:\program files\daisytoolchain\arm-none-eabi\include\c++\10.2.1\bits\hashtable.h ****       if (&__ht == this)
1051:c:\program files\daisytoolchain\arm-none-eabi\include\c++\10.2.1\bits\hashtable.h **** 	return *this;
1052:c:\program files\daisytoolchain\arm-none-eabi\include\c++\10.2.1\bits\hashtable.h **** 
1053:c:\program files\daisytoolchain\arm-none-eabi\include\c++\10.2.1\bits\hashtable.h ****       if (__node_alloc_traits::_S_propagate_on_copy_assign())
1054:c:\program files\daisytoolchain\arm-none-eabi\include\c++\10.2.1\bits\hashtable.h **** 	{
1055:c:\program files\daisytoolchain\arm-none-eabi\include\c++\10.2.1\bits\hashtable.h **** 	  auto& __this_alloc = this->_M_node_allocator();
1056:c:\program files\daisytoolchain\arm-none-eabi\include\c++\10.2.1\bits\hashtable.h **** 	  auto& __that_alloc = __ht._M_node_allocator();
1057:c:\program files\daisytoolchain\arm-none-eabi\include\c++\10.2.1\bits\hashtable.h **** 	  if (!__node_alloc_traits::_S_always_equal()
1058:c:\program files\daisytoolchain\arm-none-eabi\include\c++\10.2.1\bits\hashtable.h **** 	      && __this_alloc != __that_alloc)
1059:c:\program files\daisytoolchain\arm-none-eabi\include\c++\10.2.1\bits\hashtable.h **** 	    {
1060:c:\program files\daisytoolchain\arm-none-eabi\include\c++\10.2.1\bits\hashtable.h **** 	      // Replacement allocator cannot free existing storage.
1061:c:\program files\daisytoolchain\arm-none-eabi\include\c++\10.2.1\bits\hashtable.h **** 	      this->_M_deallocate_nodes(_M_begin());
1062:c:\program files\daisytoolchain\arm-none-eabi\include\c++\10.2.1\bits\hashtable.h **** 	      _M_before_begin._M_nxt = nullptr;
1063:c:\program files\daisytoolchain\arm-none-eabi\include\c++\10.2.1\bits\hashtable.h **** 	      _M_deallocate_buckets();
1064:c:\program files\daisytoolchain\arm-none-eabi\include\c++\10.2.1\bits\hashtable.h **** 	      _M_buckets = nullptr;
1065:c:\program files\daisytoolchain\arm-none-eabi\include\c++\10.2.1\bits\hashtable.h **** 	      std::__alloc_on_copy(__this_alloc, __that_alloc);
1066:c:\program files\daisytoolchain\arm-none-eabi\include\c++\10.2.1\bits\hashtable.h **** 	      __hashtable_base::operator=(__ht);
1067:c:\program files\daisytoolchain\arm-none-eabi\include\c++\10.2.1\bits\hashtable.h **** 	      _M_bucket_count = __ht._M_bucket_count;
1068:c:\program files\daisytoolchain\arm-none-eabi\include\c++\10.2.1\bits\hashtable.h **** 	      _M_element_count = __ht._M_element_count;
1069:c:\program files\daisytoolchain\arm-none-eabi\include\c++\10.2.1\bits\hashtable.h **** 	      _M_rehash_policy = __ht._M_rehash_policy;
1070:c:\program files\daisytoolchain\arm-none-eabi\include\c++\10.2.1\bits\hashtable.h **** 	      __alloc_node_gen_t __alloc_node_gen(*this);
1071:c:\program files\daisytoolchain\arm-none-eabi\include\c++\10.2.1\bits\hashtable.h **** 	      __try
1072:c:\program files\daisytoolchain\arm-none-eabi\include\c++\10.2.1\bits\hashtable.h **** 		{
1073:c:\program files\daisytoolchain\arm-none-eabi\include\c++\10.2.1\bits\hashtable.h **** 		  _M_assign(__ht, __alloc_node_gen);
1074:c:\program files\daisytoolchain\arm-none-eabi\include\c++\10.2.1\bits\hashtable.h **** 		}
1075:c:\program files\daisytoolchain\arm-none-eabi\include\c++\10.2.1\bits\hashtable.h **** 	      __catch(...)
1076:c:\program files\daisytoolchain\arm-none-eabi\include\c++\10.2.1\bits\hashtable.h **** 		{
1077:c:\program files\daisytoolchain\arm-none-eabi\include\c++\10.2.1\bits\hashtable.h **** 		  // _M_assign took care of deallocating all memory. Now we
1078:c:\program files\daisytoolchain\arm-none-eabi\include\c++\10.2.1\bits\hashtable.h **** 		  // must make sure this instance remains in a usable state.
1079:c:\program files\daisytoolchain\arm-none-eabi\include\c++\10.2.1\bits\hashtable.h **** 		  _M_reset();
1080:c:\program files\daisytoolchain\arm-none-eabi\include\c++\10.2.1\bits\hashtable.h **** 		  __throw_exception_again;
1081:c:\program files\daisytoolchain\arm-none-eabi\include\c++\10.2.1\bits\hashtable.h **** 		}
1082:c:\program files\daisytoolchain\arm-none-eabi\include\c++\10.2.1\bits\hashtable.h **** 	      return *this;
1083:c:\program files\daisytoolchain\arm-none-eabi\include\c++\10.2.1\bits\hashtable.h **** 	    }
1084:c:\program files\daisytoolchain\arm-none-eabi\include\c++\10.2.1\bits\hashtable.h **** 	  std::__alloc_on_copy(__this_alloc, __that_alloc);
1085:c:\program files\daisytoolchain\arm-none-eabi\include\c++\10.2.1\bits\hashtable.h **** 	}
1086:c:\program files\daisytoolchain\arm-none-eabi\include\c++\10.2.1\bits\hashtable.h **** 
1087:c:\program files\daisytoolchain\arm-none-eabi\include\c++\10.2.1\bits\hashtable.h ****       // Reuse allocated buckets and nodes.
1088:c:\program files\daisytoolchain\arm-none-eabi\include\c++\10.2.1\bits\hashtable.h ****       _M_assign_elements(__ht);
1089:c:\program files\daisytoolchain\arm-none-eabi\include\c++\10.2.1\bits\hashtable.h ****       return *this;
1090:c:\program files\daisytoolchain\arm-none-eabi\include\c++\10.2.1\bits\hashtable.h ****     }
1091:c:\program files\daisytoolchain\arm-none-eabi\include\c++\10.2.1\bits\hashtable.h **** 
1092:c:\program files\daisytoolchain\arm-none-eabi\include\c++\10.2.1\bits\hashtable.h ****   template<typename _Key, typename _Value,
1093:c:\program files\daisytoolchain\arm-none-eabi\include\c++\10.2.1\bits\hashtable.h **** 	   typename _Alloc, typename _ExtractKey, typename _Equal,
1094:c:\program files\daisytoolchain\arm-none-eabi\include\c++\10.2.1\bits\hashtable.h **** 	   typename _H1, typename _H2, typename _Hash, typename _RehashPolicy,
1095:c:\program files\daisytoolchain\arm-none-eabi\include\c++\10.2.1\bits\hashtable.h **** 	   typename _Traits>
ARM GAS  C:\Users\theja\AppData\Local\Temp\ccGbJAvD.s 			page 23


1096:c:\program files\daisytoolchain\arm-none-eabi\include\c++\10.2.1\bits\hashtable.h ****     template<typename _Ht>
1097:c:\program files\daisytoolchain\arm-none-eabi\include\c++\10.2.1\bits\hashtable.h ****       void
1098:c:\program files\daisytoolchain\arm-none-eabi\include\c++\10.2.1\bits\hashtable.h ****       _Hashtable<_Key, _Value, _Alloc, _ExtractKey, _Equal,
1099:c:\program files\daisytoolchain\arm-none-eabi\include\c++\10.2.1\bits\hashtable.h **** 		 _H1, _H2, _Hash, _RehashPolicy, _Traits>::
1100:c:\program files\daisytoolchain\arm-none-eabi\include\c++\10.2.1\bits\hashtable.h ****       _M_assign_elements(_Ht&& __ht)
1101:c:\program files\daisytoolchain\arm-none-eabi\include\c++\10.2.1\bits\hashtable.h ****       {
1102:c:\program files\daisytoolchain\arm-none-eabi\include\c++\10.2.1\bits\hashtable.h **** 	__bucket_type* __former_buckets = nullptr;
1103:c:\program files\daisytoolchain\arm-none-eabi\include\c++\10.2.1\bits\hashtable.h **** 	std::size_t __former_bucket_count = _M_bucket_count;
1104:c:\program files\daisytoolchain\arm-none-eabi\include\c++\10.2.1\bits\hashtable.h **** 	const __rehash_state& __former_state = _M_rehash_policy._M_state();
1105:c:\program files\daisytoolchain\arm-none-eabi\include\c++\10.2.1\bits\hashtable.h **** 
1106:c:\program files\daisytoolchain\arm-none-eabi\include\c++\10.2.1\bits\hashtable.h **** 	if (_M_bucket_count != __ht._M_bucket_count)
1107:c:\program files\daisytoolchain\arm-none-eabi\include\c++\10.2.1\bits\hashtable.h **** 	  {
1108:c:\program files\daisytoolchain\arm-none-eabi\include\c++\10.2.1\bits\hashtable.h **** 	    __former_buckets = _M_buckets;
1109:c:\program files\daisytoolchain\arm-none-eabi\include\c++\10.2.1\bits\hashtable.h **** 	    _M_buckets = _M_allocate_buckets(__ht._M_bucket_count);
1110:c:\program files\daisytoolchain\arm-none-eabi\include\c++\10.2.1\bits\hashtable.h **** 	    _M_bucket_count = __ht._M_bucket_count;
1111:c:\program files\daisytoolchain\arm-none-eabi\include\c++\10.2.1\bits\hashtable.h **** 	  }
1112:c:\program files\daisytoolchain\arm-none-eabi\include\c++\10.2.1\bits\hashtable.h **** 	else
1113:c:\program files\daisytoolchain\arm-none-eabi\include\c++\10.2.1\bits\hashtable.h **** 	  __builtin_memset(_M_buckets, 0,
1114:c:\program files\daisytoolchain\arm-none-eabi\include\c++\10.2.1\bits\hashtable.h **** 			   _M_bucket_count * sizeof(__bucket_type));
1115:c:\program files\daisytoolchain\arm-none-eabi\include\c++\10.2.1\bits\hashtable.h **** 
1116:c:\program files\daisytoolchain\arm-none-eabi\include\c++\10.2.1\bits\hashtable.h **** 	__try
1117:c:\program files\daisytoolchain\arm-none-eabi\include\c++\10.2.1\bits\hashtable.h **** 	  {
1118:c:\program files\daisytoolchain\arm-none-eabi\include\c++\10.2.1\bits\hashtable.h **** 	    __hashtable_base::operator=(std::forward<_Ht>(__ht));
1119:c:\program files\daisytoolchain\arm-none-eabi\include\c++\10.2.1\bits\hashtable.h **** 	    _M_element_count = __ht._M_element_count;
1120:c:\program files\daisytoolchain\arm-none-eabi\include\c++\10.2.1\bits\hashtable.h **** 	    _M_rehash_policy = __ht._M_rehash_policy;
1121:c:\program files\daisytoolchain\arm-none-eabi\include\c++\10.2.1\bits\hashtable.h **** 	    __reuse_or_alloc_node_gen_t __roan(_M_begin(), *this);
1122:c:\program files\daisytoolchain\arm-none-eabi\include\c++\10.2.1\bits\hashtable.h **** 	    _M_before_begin._M_nxt = nullptr;
1123:c:\program files\daisytoolchain\arm-none-eabi\include\c++\10.2.1\bits\hashtable.h **** 	    _M_assign(std::forward<_Ht>(__ht), __roan);
1124:c:\program files\daisytoolchain\arm-none-eabi\include\c++\10.2.1\bits\hashtable.h **** 	    if (__former_buckets)
1125:c:\program files\daisytoolchain\arm-none-eabi\include\c++\10.2.1\bits\hashtable.h **** 	      _M_deallocate_buckets(__former_buckets, __former_bucket_count);
1126:c:\program files\daisytoolchain\arm-none-eabi\include\c++\10.2.1\bits\hashtable.h **** 	  }
1127:c:\program files\daisytoolchain\arm-none-eabi\include\c++\10.2.1\bits\hashtable.h **** 	__catch(...)
1128:c:\program files\daisytoolchain\arm-none-eabi\include\c++\10.2.1\bits\hashtable.h **** 	  {
1129:c:\program files\daisytoolchain\arm-none-eabi\include\c++\10.2.1\bits\hashtable.h **** 	    if (__former_buckets)
1130:c:\program files\daisytoolchain\arm-none-eabi\include\c++\10.2.1\bits\hashtable.h **** 	      {
1131:c:\program files\daisytoolchain\arm-none-eabi\include\c++\10.2.1\bits\hashtable.h **** 		// Restore previous buckets.
1132:c:\program files\daisytoolchain\arm-none-eabi\include\c++\10.2.1\bits\hashtable.h **** 		_M_deallocate_buckets();
1133:c:\program files\daisytoolchain\arm-none-eabi\include\c++\10.2.1\bits\hashtable.h **** 		_M_rehash_policy._M_reset(__former_state);
1134:c:\program files\daisytoolchain\arm-none-eabi\include\c++\10.2.1\bits\hashtable.h **** 		_M_buckets = __former_buckets;
1135:c:\program files\daisytoolchain\arm-none-eabi\include\c++\10.2.1\bits\hashtable.h **** 		_M_bucket_count = __former_bucket_count;
1136:c:\program files\daisytoolchain\arm-none-eabi\include\c++\10.2.1\bits\hashtable.h **** 	      }
1137:c:\program files\daisytoolchain\arm-none-eabi\include\c++\10.2.1\bits\hashtable.h **** 	    __builtin_memset(_M_buckets, 0,
1138:c:\program files\daisytoolchain\arm-none-eabi\include\c++\10.2.1\bits\hashtable.h **** 			     _M_bucket_count * sizeof(__bucket_type));
1139:c:\program files\daisytoolchain\arm-none-eabi\include\c++\10.2.1\bits\hashtable.h **** 	    __throw_exception_again;
1140:c:\program files\daisytoolchain\arm-none-eabi\include\c++\10.2.1\bits\hashtable.h **** 	  }
1141:c:\program files\daisytoolchain\arm-none-eabi\include\c++\10.2.1\bits\hashtable.h ****       }
1142:c:\program files\daisytoolchain\arm-none-eabi\include\c++\10.2.1\bits\hashtable.h **** 
1143:c:\program files\daisytoolchain\arm-none-eabi\include\c++\10.2.1\bits\hashtable.h ****   template<typename _Key, typename _Value,
1144:c:\program files\daisytoolchain\arm-none-eabi\include\c++\10.2.1\bits\hashtable.h **** 	   typename _Alloc, typename _ExtractKey, typename _Equal,
1145:c:\program files\daisytoolchain\arm-none-eabi\include\c++\10.2.1\bits\hashtable.h **** 	   typename _H1, typename _H2, typename _Hash, typename _RehashPolicy,
1146:c:\program files\daisytoolchain\arm-none-eabi\include\c++\10.2.1\bits\hashtable.h **** 	   typename _Traits>
1147:c:\program files\daisytoolchain\arm-none-eabi\include\c++\10.2.1\bits\hashtable.h ****     template<typename _Ht, typename _NodeGenerator>
1148:c:\program files\daisytoolchain\arm-none-eabi\include\c++\10.2.1\bits\hashtable.h ****       void
1149:c:\program files\daisytoolchain\arm-none-eabi\include\c++\10.2.1\bits\hashtable.h ****       _Hashtable<_Key, _Value, _Alloc, _ExtractKey, _Equal,
1150:c:\program files\daisytoolchain\arm-none-eabi\include\c++\10.2.1\bits\hashtable.h **** 		 _H1, _H2, _Hash, _RehashPolicy, _Traits>::
1151:c:\program files\daisytoolchain\arm-none-eabi\include\c++\10.2.1\bits\hashtable.h ****       _M_assign(_Ht&& __ht, const _NodeGenerator& __node_gen)
1152:c:\program files\daisytoolchain\arm-none-eabi\include\c++\10.2.1\bits\hashtable.h ****       {
ARM GAS  C:\Users\theja\AppData\Local\Temp\ccGbJAvD.s 			page 24


1153:c:\program files\daisytoolchain\arm-none-eabi\include\c++\10.2.1\bits\hashtable.h **** 	__bucket_type* __buckets = nullptr;
1154:c:\program files\daisytoolchain\arm-none-eabi\include\c++\10.2.1\bits\hashtable.h **** 	if (!_M_buckets)
1155:c:\program files\daisytoolchain\arm-none-eabi\include\c++\10.2.1\bits\hashtable.h **** 	  _M_buckets = __buckets = _M_allocate_buckets(_M_bucket_count);
1156:c:\program files\daisytoolchain\arm-none-eabi\include\c++\10.2.1\bits\hashtable.h **** 
1157:c:\program files\daisytoolchain\arm-none-eabi\include\c++\10.2.1\bits\hashtable.h **** 	__try
1158:c:\program files\daisytoolchain\arm-none-eabi\include\c++\10.2.1\bits\hashtable.h **** 	  {
1159:c:\program files\daisytoolchain\arm-none-eabi\include\c++\10.2.1\bits\hashtable.h **** 	    if (!__ht._M_before_begin._M_nxt)
1160:c:\program files\daisytoolchain\arm-none-eabi\include\c++\10.2.1\bits\hashtable.h **** 	      return;
1161:c:\program files\daisytoolchain\arm-none-eabi\include\c++\10.2.1\bits\hashtable.h **** 
1162:c:\program files\daisytoolchain\arm-none-eabi\include\c++\10.2.1\bits\hashtable.h **** 	    // First deal with the special first node pointed to by
1163:c:\program files\daisytoolchain\arm-none-eabi\include\c++\10.2.1\bits\hashtable.h **** 	    // _M_before_begin.
1164:c:\program files\daisytoolchain\arm-none-eabi\include\c++\10.2.1\bits\hashtable.h **** 	    __node_type* __ht_n = __ht._M_begin();
1165:c:\program files\daisytoolchain\arm-none-eabi\include\c++\10.2.1\bits\hashtable.h **** 	    __node_type* __this_n
1166:c:\program files\daisytoolchain\arm-none-eabi\include\c++\10.2.1\bits\hashtable.h **** 	      = __node_gen(__fwd_value_for<_Ht>(__ht_n->_M_v()));
1167:c:\program files\daisytoolchain\arm-none-eabi\include\c++\10.2.1\bits\hashtable.h **** 	    this->_M_copy_code(__this_n, __ht_n);
1168:c:\program files\daisytoolchain\arm-none-eabi\include\c++\10.2.1\bits\hashtable.h **** 	    _M_before_begin._M_nxt = __this_n;
1169:c:\program files\daisytoolchain\arm-none-eabi\include\c++\10.2.1\bits\hashtable.h **** 	    _M_buckets[_M_bucket_index(__this_n)] = &_M_before_begin;
1170:c:\program files\daisytoolchain\arm-none-eabi\include\c++\10.2.1\bits\hashtable.h **** 
1171:c:\program files\daisytoolchain\arm-none-eabi\include\c++\10.2.1\bits\hashtable.h **** 	    // Then deal with other nodes.
1172:c:\program files\daisytoolchain\arm-none-eabi\include\c++\10.2.1\bits\hashtable.h **** 	    __node_base* __prev_n = __this_n;
1173:c:\program files\daisytoolchain\arm-none-eabi\include\c++\10.2.1\bits\hashtable.h **** 	    for (__ht_n = __ht_n->_M_next(); __ht_n; __ht_n = __ht_n->_M_next())
1174:c:\program files\daisytoolchain\arm-none-eabi\include\c++\10.2.1\bits\hashtable.h **** 	      {
1175:c:\program files\daisytoolchain\arm-none-eabi\include\c++\10.2.1\bits\hashtable.h **** 		__this_n = __node_gen(__fwd_value_for<_Ht>(__ht_n->_M_v()));
1176:c:\program files\daisytoolchain\arm-none-eabi\include\c++\10.2.1\bits\hashtable.h **** 		__prev_n->_M_nxt = __this_n;
1177:c:\program files\daisytoolchain\arm-none-eabi\include\c++\10.2.1\bits\hashtable.h **** 		this->_M_copy_code(__this_n, __ht_n);
1178:c:\program files\daisytoolchain\arm-none-eabi\include\c++\10.2.1\bits\hashtable.h **** 		size_type __bkt = _M_bucket_index(__this_n);
1179:c:\program files\daisytoolchain\arm-none-eabi\include\c++\10.2.1\bits\hashtable.h **** 		if (!_M_buckets[__bkt])
1180:c:\program files\daisytoolchain\arm-none-eabi\include\c++\10.2.1\bits\hashtable.h **** 		  _M_buckets[__bkt] = __prev_n;
1181:c:\program files\daisytoolchain\arm-none-eabi\include\c++\10.2.1\bits\hashtable.h **** 		__prev_n = __this_n;
1182:c:\program files\daisytoolchain\arm-none-eabi\include\c++\10.2.1\bits\hashtable.h **** 	      }
1183:c:\program files\daisytoolchain\arm-none-eabi\include\c++\10.2.1\bits\hashtable.h **** 	  }
1184:c:\program files\daisytoolchain\arm-none-eabi\include\c++\10.2.1\bits\hashtable.h **** 	__catch(...)
1185:c:\program files\daisytoolchain\arm-none-eabi\include\c++\10.2.1\bits\hashtable.h **** 	  {
1186:c:\program files\daisytoolchain\arm-none-eabi\include\c++\10.2.1\bits\hashtable.h **** 	    clear();
1187:c:\program files\daisytoolchain\arm-none-eabi\include\c++\10.2.1\bits\hashtable.h **** 	    if (__buckets)
1188:c:\program files\daisytoolchain\arm-none-eabi\include\c++\10.2.1\bits\hashtable.h **** 	      _M_deallocate_buckets();
1189:c:\program files\daisytoolchain\arm-none-eabi\include\c++\10.2.1\bits\hashtable.h **** 	    __throw_exception_again;
1190:c:\program files\daisytoolchain\arm-none-eabi\include\c++\10.2.1\bits\hashtable.h **** 	  }
1191:c:\program files\daisytoolchain\arm-none-eabi\include\c++\10.2.1\bits\hashtable.h ****       }
1192:c:\program files\daisytoolchain\arm-none-eabi\include\c++\10.2.1\bits\hashtable.h **** 
1193:c:\program files\daisytoolchain\arm-none-eabi\include\c++\10.2.1\bits\hashtable.h ****   template<typename _Key, typename _Value,
1194:c:\program files\daisytoolchain\arm-none-eabi\include\c++\10.2.1\bits\hashtable.h **** 	   typename _Alloc, typename _ExtractKey, typename _Equal,
1195:c:\program files\daisytoolchain\arm-none-eabi\include\c++\10.2.1\bits\hashtable.h **** 	   typename _H1, typename _H2, typename _Hash, typename _RehashPolicy,
1196:c:\program files\daisytoolchain\arm-none-eabi\include\c++\10.2.1\bits\hashtable.h **** 	   typename _Traits>
1197:c:\program files\daisytoolchain\arm-none-eabi\include\c++\10.2.1\bits\hashtable.h ****     void
1198:c:\program files\daisytoolchain\arm-none-eabi\include\c++\10.2.1\bits\hashtable.h ****     _Hashtable<_Key, _Value, _Alloc, _ExtractKey, _Equal,
1199:c:\program files\daisytoolchain\arm-none-eabi\include\c++\10.2.1\bits\hashtable.h **** 	       _H1, _H2, _Hash, _RehashPolicy, _Traits>::
1200:c:\program files\daisytoolchain\arm-none-eabi\include\c++\10.2.1\bits\hashtable.h ****     _M_reset() noexcept
1201:c:\program files\daisytoolchain\arm-none-eabi\include\c++\10.2.1\bits\hashtable.h ****     {
1202:c:\program files\daisytoolchain\arm-none-eabi\include\c++\10.2.1\bits\hashtable.h ****       _M_rehash_policy._M_reset();
1203:c:\program files\daisytoolchain\arm-none-eabi\include\c++\10.2.1\bits\hashtable.h ****       _M_bucket_count = 1;
1204:c:\program files\daisytoolchain\arm-none-eabi\include\c++\10.2.1\bits\hashtable.h ****       _M_single_bucket = nullptr;
1205:c:\program files\daisytoolchain\arm-none-eabi\include\c++\10.2.1\bits\hashtable.h ****       _M_buckets = &_M_single_bucket;
1206:c:\program files\daisytoolchain\arm-none-eabi\include\c++\10.2.1\bits\hashtable.h ****       _M_before_begin._M_nxt = nullptr;
1207:c:\program files\daisytoolchain\arm-none-eabi\include\c++\10.2.1\bits\hashtable.h ****       _M_element_count = 0;
1208:c:\program files\daisytoolchain\arm-none-eabi\include\c++\10.2.1\bits\hashtable.h ****     }
1209:c:\program files\daisytoolchain\arm-none-eabi\include\c++\10.2.1\bits\hashtable.h **** 
ARM GAS  C:\Users\theja\AppData\Local\Temp\ccGbJAvD.s 			page 25


1210:c:\program files\daisytoolchain\arm-none-eabi\include\c++\10.2.1\bits\hashtable.h ****   template<typename _Key, typename _Value,
1211:c:\program files\daisytoolchain\arm-none-eabi\include\c++\10.2.1\bits\hashtable.h **** 	   typename _Alloc, typename _ExtractKey, typename _Equal,
1212:c:\program files\daisytoolchain\arm-none-eabi\include\c++\10.2.1\bits\hashtable.h **** 	   typename _H1, typename _H2, typename _Hash, typename _RehashPolicy,
1213:c:\program files\daisytoolchain\arm-none-eabi\include\c++\10.2.1\bits\hashtable.h **** 	   typename _Traits>
1214:c:\program files\daisytoolchain\arm-none-eabi\include\c++\10.2.1\bits\hashtable.h ****     void
1215:c:\program files\daisytoolchain\arm-none-eabi\include\c++\10.2.1\bits\hashtable.h ****     _Hashtable<_Key, _Value, _Alloc, _ExtractKey, _Equal,
1216:c:\program files\daisytoolchain\arm-none-eabi\include\c++\10.2.1\bits\hashtable.h **** 	       _H1, _H2, _Hash, _RehashPolicy, _Traits>::
1217:c:\program files\daisytoolchain\arm-none-eabi\include\c++\10.2.1\bits\hashtable.h ****     _M_move_assign(_Hashtable&& __ht, true_type)
1218:c:\program files\daisytoolchain\arm-none-eabi\include\c++\10.2.1\bits\hashtable.h ****     {
1219:c:\program files\daisytoolchain\arm-none-eabi\include\c++\10.2.1\bits\hashtable.h ****       this->_M_deallocate_nodes(_M_begin());
1220:c:\program files\daisytoolchain\arm-none-eabi\include\c++\10.2.1\bits\hashtable.h ****       _M_deallocate_buckets();
1221:c:\program files\daisytoolchain\arm-none-eabi\include\c++\10.2.1\bits\hashtable.h ****       __hashtable_base::operator=(std::move(__ht));
1222:c:\program files\daisytoolchain\arm-none-eabi\include\c++\10.2.1\bits\hashtable.h ****       _M_rehash_policy = __ht._M_rehash_policy;
1223:c:\program files\daisytoolchain\arm-none-eabi\include\c++\10.2.1\bits\hashtable.h ****       if (!__ht._M_uses_single_bucket())
1224:c:\program files\daisytoolchain\arm-none-eabi\include\c++\10.2.1\bits\hashtable.h **** 	_M_buckets = __ht._M_buckets;
1225:c:\program files\daisytoolchain\arm-none-eabi\include\c++\10.2.1\bits\hashtable.h ****       else
1226:c:\program files\daisytoolchain\arm-none-eabi\include\c++\10.2.1\bits\hashtable.h **** 	{
1227:c:\program files\daisytoolchain\arm-none-eabi\include\c++\10.2.1\bits\hashtable.h **** 	  _M_buckets = &_M_single_bucket;
1228:c:\program files\daisytoolchain\arm-none-eabi\include\c++\10.2.1\bits\hashtable.h **** 	  _M_single_bucket = __ht._M_single_bucket;
1229:c:\program files\daisytoolchain\arm-none-eabi\include\c++\10.2.1\bits\hashtable.h **** 	}
1230:c:\program files\daisytoolchain\arm-none-eabi\include\c++\10.2.1\bits\hashtable.h ****       _M_bucket_count = __ht._M_bucket_count;
1231:c:\program files\daisytoolchain\arm-none-eabi\include\c++\10.2.1\bits\hashtable.h ****       _M_before_begin._M_nxt = __ht._M_before_begin._M_nxt;
1232:c:\program files\daisytoolchain\arm-none-eabi\include\c++\10.2.1\bits\hashtable.h ****       _M_element_count = __ht._M_element_count;
1233:c:\program files\daisytoolchain\arm-none-eabi\include\c++\10.2.1\bits\hashtable.h ****       std::__alloc_on_move(this->_M_node_allocator(), __ht._M_node_allocator());
1234:c:\program files\daisytoolchain\arm-none-eabi\include\c++\10.2.1\bits\hashtable.h **** 
1235:c:\program files\daisytoolchain\arm-none-eabi\include\c++\10.2.1\bits\hashtable.h ****       // Fix buckets containing the _M_before_begin pointers that can't be
1236:c:\program files\daisytoolchain\arm-none-eabi\include\c++\10.2.1\bits\hashtable.h ****       // moved.
1237:c:\program files\daisytoolchain\arm-none-eabi\include\c++\10.2.1\bits\hashtable.h ****       if (_M_begin())
1238:c:\program files\daisytoolchain\arm-none-eabi\include\c++\10.2.1\bits\hashtable.h **** 	_M_buckets[_M_bucket_index(_M_begin())] = &_M_before_begin;
1239:c:\program files\daisytoolchain\arm-none-eabi\include\c++\10.2.1\bits\hashtable.h ****       __ht._M_reset();
1240:c:\program files\daisytoolchain\arm-none-eabi\include\c++\10.2.1\bits\hashtable.h ****     }
1241:c:\program files\daisytoolchain\arm-none-eabi\include\c++\10.2.1\bits\hashtable.h **** 
1242:c:\program files\daisytoolchain\arm-none-eabi\include\c++\10.2.1\bits\hashtable.h ****   template<typename _Key, typename _Value,
1243:c:\program files\daisytoolchain\arm-none-eabi\include\c++\10.2.1\bits\hashtable.h **** 	   typename _Alloc, typename _ExtractKey, typename _Equal,
1244:c:\program files\daisytoolchain\arm-none-eabi\include\c++\10.2.1\bits\hashtable.h **** 	   typename _H1, typename _H2, typename _Hash, typename _RehashPolicy,
1245:c:\program files\daisytoolchain\arm-none-eabi\include\c++\10.2.1\bits\hashtable.h **** 	   typename _Traits>
1246:c:\program files\daisytoolchain\arm-none-eabi\include\c++\10.2.1\bits\hashtable.h ****     void
1247:c:\program files\daisytoolchain\arm-none-eabi\include\c++\10.2.1\bits\hashtable.h ****     _Hashtable<_Key, _Value, _Alloc, _ExtractKey, _Equal,
1248:c:\program files\daisytoolchain\arm-none-eabi\include\c++\10.2.1\bits\hashtable.h **** 	       _H1, _H2, _Hash, _RehashPolicy, _Traits>::
1249:c:\program files\daisytoolchain\arm-none-eabi\include\c++\10.2.1\bits\hashtable.h ****     _M_move_assign(_Hashtable&& __ht, false_type)
1250:c:\program files\daisytoolchain\arm-none-eabi\include\c++\10.2.1\bits\hashtable.h ****     {
1251:c:\program files\daisytoolchain\arm-none-eabi\include\c++\10.2.1\bits\hashtable.h ****       if (__ht._M_node_allocator() == this->_M_node_allocator())
1252:c:\program files\daisytoolchain\arm-none-eabi\include\c++\10.2.1\bits\hashtable.h **** 	_M_move_assign(std::move(__ht), true_type());
1253:c:\program files\daisytoolchain\arm-none-eabi\include\c++\10.2.1\bits\hashtable.h ****       else
1254:c:\program files\daisytoolchain\arm-none-eabi\include\c++\10.2.1\bits\hashtable.h **** 	{
1255:c:\program files\daisytoolchain\arm-none-eabi\include\c++\10.2.1\bits\hashtable.h **** 	  // Can't move memory, move elements then.
1256:c:\program files\daisytoolchain\arm-none-eabi\include\c++\10.2.1\bits\hashtable.h **** 	  _M_assign_elements(std::move(__ht));
1257:c:\program files\daisytoolchain\arm-none-eabi\include\c++\10.2.1\bits\hashtable.h **** 	  __ht.clear();
1258:c:\program files\daisytoolchain\arm-none-eabi\include\c++\10.2.1\bits\hashtable.h **** 	}
1259:c:\program files\daisytoolchain\arm-none-eabi\include\c++\10.2.1\bits\hashtable.h ****     }
1260:c:\program files\daisytoolchain\arm-none-eabi\include\c++\10.2.1\bits\hashtable.h **** 
1261:c:\program files\daisytoolchain\arm-none-eabi\include\c++\10.2.1\bits\hashtable.h ****   template<typename _Key, typename _Value,
1262:c:\program files\daisytoolchain\arm-none-eabi\include\c++\10.2.1\bits\hashtable.h **** 	   typename _Alloc, typename _ExtractKey, typename _Equal,
1263:c:\program files\daisytoolchain\arm-none-eabi\include\c++\10.2.1\bits\hashtable.h **** 	   typename _H1, typename _H2, typename _Hash, typename _RehashPolicy,
1264:c:\program files\daisytoolchain\arm-none-eabi\include\c++\10.2.1\bits\hashtable.h **** 	   typename _Traits>
1265:c:\program files\daisytoolchain\arm-none-eabi\include\c++\10.2.1\bits\hashtable.h ****     _Hashtable<_Key, _Value, _Alloc, _ExtractKey, _Equal,
1266:c:\program files\daisytoolchain\arm-none-eabi\include\c++\10.2.1\bits\hashtable.h **** 	       _H1, _H2, _Hash, _RehashPolicy, _Traits>::
ARM GAS  C:\Users\theja\AppData\Local\Temp\ccGbJAvD.s 			page 26


1267:c:\program files\daisytoolchain\arm-none-eabi\include\c++\10.2.1\bits\hashtable.h ****     _Hashtable(const _Hashtable& __ht)
1268:c:\program files\daisytoolchain\arm-none-eabi\include\c++\10.2.1\bits\hashtable.h ****     : __hashtable_base(__ht),
1269:c:\program files\daisytoolchain\arm-none-eabi\include\c++\10.2.1\bits\hashtable.h ****       __map_base(__ht),
1270:c:\program files\daisytoolchain\arm-none-eabi\include\c++\10.2.1\bits\hashtable.h ****       __rehash_base(__ht),
1271:c:\program files\daisytoolchain\arm-none-eabi\include\c++\10.2.1\bits\hashtable.h ****       __hashtable_alloc(
1272:c:\program files\daisytoolchain\arm-none-eabi\include\c++\10.2.1\bits\hashtable.h **** 	__node_alloc_traits::_S_select_on_copy(__ht._M_node_allocator())),
1273:c:\program files\daisytoolchain\arm-none-eabi\include\c++\10.2.1\bits\hashtable.h ****       _M_buckets(nullptr),
1274:c:\program files\daisytoolchain\arm-none-eabi\include\c++\10.2.1\bits\hashtable.h ****       _M_bucket_count(__ht._M_bucket_count),
1275:c:\program files\daisytoolchain\arm-none-eabi\include\c++\10.2.1\bits\hashtable.h ****       _M_element_count(__ht._M_element_count),
1276:c:\program files\daisytoolchain\arm-none-eabi\include\c++\10.2.1\bits\hashtable.h ****       _M_rehash_policy(__ht._M_rehash_policy)
1277:c:\program files\daisytoolchain\arm-none-eabi\include\c++\10.2.1\bits\hashtable.h ****     {
1278:c:\program files\daisytoolchain\arm-none-eabi\include\c++\10.2.1\bits\hashtable.h ****       __alloc_node_gen_t __alloc_node_gen(*this);
1279:c:\program files\daisytoolchain\arm-none-eabi\include\c++\10.2.1\bits\hashtable.h ****       _M_assign(__ht, __alloc_node_gen);
1280:c:\program files\daisytoolchain\arm-none-eabi\include\c++\10.2.1\bits\hashtable.h ****     }
1281:c:\program files\daisytoolchain\arm-none-eabi\include\c++\10.2.1\bits\hashtable.h **** 
1282:c:\program files\daisytoolchain\arm-none-eabi\include\c++\10.2.1\bits\hashtable.h ****   template<typename _Key, typename _Value,
1283:c:\program files\daisytoolchain\arm-none-eabi\include\c++\10.2.1\bits\hashtable.h **** 	   typename _Alloc, typename _ExtractKey, typename _Equal,
1284:c:\program files\daisytoolchain\arm-none-eabi\include\c++\10.2.1\bits\hashtable.h **** 	   typename _H1, typename _H2, typename _Hash, typename _RehashPolicy,
1285:c:\program files\daisytoolchain\arm-none-eabi\include\c++\10.2.1\bits\hashtable.h **** 	   typename _Traits>
1286:c:\program files\daisytoolchain\arm-none-eabi\include\c++\10.2.1\bits\hashtable.h ****     _Hashtable<_Key, _Value, _Alloc, _ExtractKey, _Equal,
1287:c:\program files\daisytoolchain\arm-none-eabi\include\c++\10.2.1\bits\hashtable.h **** 	       _H1, _H2, _Hash, _RehashPolicy, _Traits>::
1288:c:\program files\daisytoolchain\arm-none-eabi\include\c++\10.2.1\bits\hashtable.h ****     _Hashtable(_Hashtable&& __ht) noexcept
1289:c:\program files\daisytoolchain\arm-none-eabi\include\c++\10.2.1\bits\hashtable.h ****     : __hashtable_base(__ht),
1290:c:\program files\daisytoolchain\arm-none-eabi\include\c++\10.2.1\bits\hashtable.h ****       __map_base(__ht),
1291:c:\program files\daisytoolchain\arm-none-eabi\include\c++\10.2.1\bits\hashtable.h ****       __rehash_base(__ht),
1292:c:\program files\daisytoolchain\arm-none-eabi\include\c++\10.2.1\bits\hashtable.h ****       __hashtable_alloc(std::move(__ht._M_base_alloc())),
1293:c:\program files\daisytoolchain\arm-none-eabi\include\c++\10.2.1\bits\hashtable.h ****       _M_buckets(__ht._M_buckets),
1294:c:\program files\daisytoolchain\arm-none-eabi\include\c++\10.2.1\bits\hashtable.h ****       _M_bucket_count(__ht._M_bucket_count),
1295:c:\program files\daisytoolchain\arm-none-eabi\include\c++\10.2.1\bits\hashtable.h ****       _M_before_begin(__ht._M_before_begin._M_nxt),
1296:c:\program files\daisytoolchain\arm-none-eabi\include\c++\10.2.1\bits\hashtable.h ****       _M_element_count(__ht._M_element_count),
1297:c:\program files\daisytoolchain\arm-none-eabi\include\c++\10.2.1\bits\hashtable.h ****       _M_rehash_policy(__ht._M_rehash_policy)
1298:c:\program files\daisytoolchain\arm-none-eabi\include\c++\10.2.1\bits\hashtable.h ****     {
1299:c:\program files\daisytoolchain\arm-none-eabi\include\c++\10.2.1\bits\hashtable.h ****       // Update, if necessary, buckets if __ht is using its single bucket.
1300:c:\program files\daisytoolchain\arm-none-eabi\include\c++\10.2.1\bits\hashtable.h ****       if (__ht._M_uses_single_bucket())
1301:c:\program files\daisytoolchain\arm-none-eabi\include\c++\10.2.1\bits\hashtable.h **** 	{
1302:c:\program files\daisytoolchain\arm-none-eabi\include\c++\10.2.1\bits\hashtable.h **** 	  _M_buckets = &_M_single_bucket;
1303:c:\program files\daisytoolchain\arm-none-eabi\include\c++\10.2.1\bits\hashtable.h **** 	  _M_single_bucket = __ht._M_single_bucket;
1304:c:\program files\daisytoolchain\arm-none-eabi\include\c++\10.2.1\bits\hashtable.h **** 	}
1305:c:\program files\daisytoolchain\arm-none-eabi\include\c++\10.2.1\bits\hashtable.h **** 
1306:c:\program files\daisytoolchain\arm-none-eabi\include\c++\10.2.1\bits\hashtable.h ****       // Update, if necessary, bucket pointing to before begin that hasn't
1307:c:\program files\daisytoolchain\arm-none-eabi\include\c++\10.2.1\bits\hashtable.h ****       // moved.
1308:c:\program files\daisytoolchain\arm-none-eabi\include\c++\10.2.1\bits\hashtable.h ****       if (_M_begin())
1309:c:\program files\daisytoolchain\arm-none-eabi\include\c++\10.2.1\bits\hashtable.h **** 	_M_buckets[_M_bucket_index(_M_begin())] = &_M_before_begin;
1310:c:\program files\daisytoolchain\arm-none-eabi\include\c++\10.2.1\bits\hashtable.h **** 
1311:c:\program files\daisytoolchain\arm-none-eabi\include\c++\10.2.1\bits\hashtable.h ****       __ht._M_reset();
1312:c:\program files\daisytoolchain\arm-none-eabi\include\c++\10.2.1\bits\hashtable.h ****     }
1313:c:\program files\daisytoolchain\arm-none-eabi\include\c++\10.2.1\bits\hashtable.h **** 
1314:c:\program files\daisytoolchain\arm-none-eabi\include\c++\10.2.1\bits\hashtable.h ****   template<typename _Key, typename _Value,
1315:c:\program files\daisytoolchain\arm-none-eabi\include\c++\10.2.1\bits\hashtable.h **** 	   typename _Alloc, typename _ExtractKey, typename _Equal,
1316:c:\program files\daisytoolchain\arm-none-eabi\include\c++\10.2.1\bits\hashtable.h **** 	   typename _H1, typename _H2, typename _Hash, typename _RehashPolicy,
1317:c:\program files\daisytoolchain\arm-none-eabi\include\c++\10.2.1\bits\hashtable.h **** 	   typename _Traits>
1318:c:\program files\daisytoolchain\arm-none-eabi\include\c++\10.2.1\bits\hashtable.h ****     _Hashtable<_Key, _Value, _Alloc, _ExtractKey, _Equal,
1319:c:\program files\daisytoolchain\arm-none-eabi\include\c++\10.2.1\bits\hashtable.h **** 	       _H1, _H2, _Hash, _RehashPolicy, _Traits>::
1320:c:\program files\daisytoolchain\arm-none-eabi\include\c++\10.2.1\bits\hashtable.h ****     _Hashtable(const _Hashtable& __ht, const allocator_type& __a)
1321:c:\program files\daisytoolchain\arm-none-eabi\include\c++\10.2.1\bits\hashtable.h ****     : __hashtable_base(__ht),
1322:c:\program files\daisytoolchain\arm-none-eabi\include\c++\10.2.1\bits\hashtable.h ****       __map_base(__ht),
1323:c:\program files\daisytoolchain\arm-none-eabi\include\c++\10.2.1\bits\hashtable.h ****       __rehash_base(__ht),
ARM GAS  C:\Users\theja\AppData\Local\Temp\ccGbJAvD.s 			page 27


1324:c:\program files\daisytoolchain\arm-none-eabi\include\c++\10.2.1\bits\hashtable.h ****       __hashtable_alloc(__node_alloc_type(__a)),
1325:c:\program files\daisytoolchain\arm-none-eabi\include\c++\10.2.1\bits\hashtable.h ****       _M_buckets(),
1326:c:\program files\daisytoolchain\arm-none-eabi\include\c++\10.2.1\bits\hashtable.h ****       _M_bucket_count(__ht._M_bucket_count),
1327:c:\program files\daisytoolchain\arm-none-eabi\include\c++\10.2.1\bits\hashtable.h ****       _M_element_count(__ht._M_element_count),
1328:c:\program files\daisytoolchain\arm-none-eabi\include\c++\10.2.1\bits\hashtable.h ****       _M_rehash_policy(__ht._M_rehash_policy)
1329:c:\program files\daisytoolchain\arm-none-eabi\include\c++\10.2.1\bits\hashtable.h ****     {
1330:c:\program files\daisytoolchain\arm-none-eabi\include\c++\10.2.1\bits\hashtable.h ****       __alloc_node_gen_t __alloc_node_gen(*this);
1331:c:\program files\daisytoolchain\arm-none-eabi\include\c++\10.2.1\bits\hashtable.h ****       _M_assign(__ht, __alloc_node_gen);
1332:c:\program files\daisytoolchain\arm-none-eabi\include\c++\10.2.1\bits\hashtable.h ****     }
1333:c:\program files\daisytoolchain\arm-none-eabi\include\c++\10.2.1\bits\hashtable.h **** 
1334:c:\program files\daisytoolchain\arm-none-eabi\include\c++\10.2.1\bits\hashtable.h ****   template<typename _Key, typename _Value,
1335:c:\program files\daisytoolchain\arm-none-eabi\include\c++\10.2.1\bits\hashtable.h **** 	   typename _Alloc, typename _ExtractKey, typename _Equal,
1336:c:\program files\daisytoolchain\arm-none-eabi\include\c++\10.2.1\bits\hashtable.h **** 	   typename _H1, typename _H2, typename _Hash, typename _RehashPolicy,
1337:c:\program files\daisytoolchain\arm-none-eabi\include\c++\10.2.1\bits\hashtable.h **** 	   typename _Traits>
1338:c:\program files\daisytoolchain\arm-none-eabi\include\c++\10.2.1\bits\hashtable.h ****     _Hashtable<_Key, _Value, _Alloc, _ExtractKey, _Equal,
1339:c:\program files\daisytoolchain\arm-none-eabi\include\c++\10.2.1\bits\hashtable.h **** 	       _H1, _H2, _Hash, _RehashPolicy, _Traits>::
1340:c:\program files\daisytoolchain\arm-none-eabi\include\c++\10.2.1\bits\hashtable.h ****     _Hashtable(_Hashtable&& __ht, const allocator_type& __a)
1341:c:\program files\daisytoolchain\arm-none-eabi\include\c++\10.2.1\bits\hashtable.h ****     : __hashtable_base(__ht),
1342:c:\program files\daisytoolchain\arm-none-eabi\include\c++\10.2.1\bits\hashtable.h ****       __map_base(__ht),
1343:c:\program files\daisytoolchain\arm-none-eabi\include\c++\10.2.1\bits\hashtable.h ****       __rehash_base(__ht),
1344:c:\program files\daisytoolchain\arm-none-eabi\include\c++\10.2.1\bits\hashtable.h ****       __hashtable_alloc(__node_alloc_type(__a)),
1345:c:\program files\daisytoolchain\arm-none-eabi\include\c++\10.2.1\bits\hashtable.h ****       _M_buckets(nullptr),
1346:c:\program files\daisytoolchain\arm-none-eabi\include\c++\10.2.1\bits\hashtable.h ****       _M_bucket_count(__ht._M_bucket_count),
1347:c:\program files\daisytoolchain\arm-none-eabi\include\c++\10.2.1\bits\hashtable.h ****       _M_element_count(__ht._M_element_count),
1348:c:\program files\daisytoolchain\arm-none-eabi\include\c++\10.2.1\bits\hashtable.h ****       _M_rehash_policy(__ht._M_rehash_policy)
1349:c:\program files\daisytoolchain\arm-none-eabi\include\c++\10.2.1\bits\hashtable.h ****     {
1350:c:\program files\daisytoolchain\arm-none-eabi\include\c++\10.2.1\bits\hashtable.h ****       if (__ht._M_node_allocator() == this->_M_node_allocator())
1351:c:\program files\daisytoolchain\arm-none-eabi\include\c++\10.2.1\bits\hashtable.h **** 	{
1352:c:\program files\daisytoolchain\arm-none-eabi\include\c++\10.2.1\bits\hashtable.h **** 	  if (__ht._M_uses_single_bucket())
1353:c:\program files\daisytoolchain\arm-none-eabi\include\c++\10.2.1\bits\hashtable.h **** 	    {
1354:c:\program files\daisytoolchain\arm-none-eabi\include\c++\10.2.1\bits\hashtable.h **** 	      _M_buckets = &_M_single_bucket;
1355:c:\program files\daisytoolchain\arm-none-eabi\include\c++\10.2.1\bits\hashtable.h **** 	      _M_single_bucket = __ht._M_single_bucket;
1356:c:\program files\daisytoolchain\arm-none-eabi\include\c++\10.2.1\bits\hashtable.h **** 	    }
1357:c:\program files\daisytoolchain\arm-none-eabi\include\c++\10.2.1\bits\hashtable.h **** 	  else
1358:c:\program files\daisytoolchain\arm-none-eabi\include\c++\10.2.1\bits\hashtable.h **** 	    _M_buckets = __ht._M_buckets;
1359:c:\program files\daisytoolchain\arm-none-eabi\include\c++\10.2.1\bits\hashtable.h **** 
1360:c:\program files\daisytoolchain\arm-none-eabi\include\c++\10.2.1\bits\hashtable.h **** 	  _M_before_begin._M_nxt = __ht._M_before_begin._M_nxt;
1361:c:\program files\daisytoolchain\arm-none-eabi\include\c++\10.2.1\bits\hashtable.h **** 	  // Update, if necessary, bucket pointing to before begin that hasn't
1362:c:\program files\daisytoolchain\arm-none-eabi\include\c++\10.2.1\bits\hashtable.h **** 	  // moved.
1363:c:\program files\daisytoolchain\arm-none-eabi\include\c++\10.2.1\bits\hashtable.h **** 	  if (_M_begin())
1364:c:\program files\daisytoolchain\arm-none-eabi\include\c++\10.2.1\bits\hashtable.h **** 	    _M_buckets[_M_bucket_index(_M_begin())] = &_M_before_begin;
1365:c:\program files\daisytoolchain\arm-none-eabi\include\c++\10.2.1\bits\hashtable.h **** 	  __ht._M_reset();
1366:c:\program files\daisytoolchain\arm-none-eabi\include\c++\10.2.1\bits\hashtable.h **** 	}
1367:c:\program files\daisytoolchain\arm-none-eabi\include\c++\10.2.1\bits\hashtable.h ****       else
1368:c:\program files\daisytoolchain\arm-none-eabi\include\c++\10.2.1\bits\hashtable.h **** 	{
1369:c:\program files\daisytoolchain\arm-none-eabi\include\c++\10.2.1\bits\hashtable.h **** 	  __alloc_node_gen_t __alloc_gen(*this);
1370:c:\program files\daisytoolchain\arm-none-eabi\include\c++\10.2.1\bits\hashtable.h **** 
1371:c:\program files\daisytoolchain\arm-none-eabi\include\c++\10.2.1\bits\hashtable.h **** 	  using _Fwd_Ht = typename
1372:c:\program files\daisytoolchain\arm-none-eabi\include\c++\10.2.1\bits\hashtable.h **** 	    conditional<__move_if_noexcept_cond<value_type>::value,
1373:c:\program files\daisytoolchain\arm-none-eabi\include\c++\10.2.1\bits\hashtable.h **** 			const _Hashtable&, _Hashtable&&>::type;
1374:c:\program files\daisytoolchain\arm-none-eabi\include\c++\10.2.1\bits\hashtable.h **** 	  _M_assign(std::forward<_Fwd_Ht>(__ht), __alloc_gen);
1375:c:\program files\daisytoolchain\arm-none-eabi\include\c++\10.2.1\bits\hashtable.h **** 	  __ht.clear();
1376:c:\program files\daisytoolchain\arm-none-eabi\include\c++\10.2.1\bits\hashtable.h **** 	}
1377:c:\program files\daisytoolchain\arm-none-eabi\include\c++\10.2.1\bits\hashtable.h ****     }
1378:c:\program files\daisytoolchain\arm-none-eabi\include\c++\10.2.1\bits\hashtable.h **** 
1379:c:\program files\daisytoolchain\arm-none-eabi\include\c++\10.2.1\bits\hashtable.h ****   template<typename _Key, typename _Value,
1380:c:\program files\daisytoolchain\arm-none-eabi\include\c++\10.2.1\bits\hashtable.h **** 	   typename _Alloc, typename _ExtractKey, typename _Equal,
ARM GAS  C:\Users\theja\AppData\Local\Temp\ccGbJAvD.s 			page 28


1381:c:\program files\daisytoolchain\arm-none-eabi\include\c++\10.2.1\bits\hashtable.h **** 	   typename _H1, typename _H2, typename _Hash, typename _RehashPolicy,
1382:c:\program files\daisytoolchain\arm-none-eabi\include\c++\10.2.1\bits\hashtable.h **** 	   typename _Traits>
1383:c:\program files\daisytoolchain\arm-none-eabi\include\c++\10.2.1\bits\hashtable.h ****     _Hashtable<_Key, _Value, _Alloc, _ExtractKey, _Equal,
  59              		.loc 2 1383 5 is_stmt 1 view .LVU4
  60              	.LBB1987:
  61              	.LBI1934:
1384:c:\program files\daisytoolchain\arm-none-eabi\include\c++\10.2.1\bits\hashtable.h **** 	       _H1, _H2, _Hash, _RehashPolicy, _Traits>::
1385:c:\program files\daisytoolchain\arm-none-eabi\include\c++\10.2.1\bits\hashtable.h ****     ~_Hashtable() noexcept
1386:c:\program files\daisytoolchain\arm-none-eabi\include\c++\10.2.1\bits\hashtable.h ****     {
1387:c:\program files\daisytoolchain\arm-none-eabi\include\c++\10.2.1\bits\hashtable.h ****       clear();
1388:c:\program files\daisytoolchain\arm-none-eabi\include\c++\10.2.1\bits\hashtable.h ****       _M_deallocate_buckets();
1389:c:\program files\daisytoolchain\arm-none-eabi\include\c++\10.2.1\bits\hashtable.h ****     }
1390:c:\program files\daisytoolchain\arm-none-eabi\include\c++\10.2.1\bits\hashtable.h **** 
1391:c:\program files\daisytoolchain\arm-none-eabi\include\c++\10.2.1\bits\hashtable.h ****   template<typename _Key, typename _Value,
1392:c:\program files\daisytoolchain\arm-none-eabi\include\c++\10.2.1\bits\hashtable.h **** 	   typename _Alloc, typename _ExtractKey, typename _Equal,
1393:c:\program files\daisytoolchain\arm-none-eabi\include\c++\10.2.1\bits\hashtable.h **** 	   typename _H1, typename _H2, typename _Hash, typename _RehashPolicy,
1394:c:\program files\daisytoolchain\arm-none-eabi\include\c++\10.2.1\bits\hashtable.h **** 	   typename _Traits>
1395:c:\program files\daisytoolchain\arm-none-eabi\include\c++\10.2.1\bits\hashtable.h ****     void
1396:c:\program files\daisytoolchain\arm-none-eabi\include\c++\10.2.1\bits\hashtable.h ****     _Hashtable<_Key, _Value, _Alloc, _ExtractKey, _Equal,
1397:c:\program files\daisytoolchain\arm-none-eabi\include\c++\10.2.1\bits\hashtable.h **** 	       _H1, _H2, _Hash, _RehashPolicy, _Traits>::
1398:c:\program files\daisytoolchain\arm-none-eabi\include\c++\10.2.1\bits\hashtable.h ****     swap(_Hashtable& __x)
1399:c:\program files\daisytoolchain\arm-none-eabi\include\c++\10.2.1\bits\hashtable.h ****     noexcept(__and_<__is_nothrow_swappable<_H1>,
1400:c:\program files\daisytoolchain\arm-none-eabi\include\c++\10.2.1\bits\hashtable.h **** 	                __is_nothrow_swappable<_Equal>>::value)
1401:c:\program files\daisytoolchain\arm-none-eabi\include\c++\10.2.1\bits\hashtable.h ****     {
1402:c:\program files\daisytoolchain\arm-none-eabi\include\c++\10.2.1\bits\hashtable.h ****       // The only base class with member variables is hash_code_base.
1403:c:\program files\daisytoolchain\arm-none-eabi\include\c++\10.2.1\bits\hashtable.h ****       // We define _Hash_code_base::_M_swap because different
1404:c:\program files\daisytoolchain\arm-none-eabi\include\c++\10.2.1\bits\hashtable.h ****       // specializations have different members.
1405:c:\program files\daisytoolchain\arm-none-eabi\include\c++\10.2.1\bits\hashtable.h ****       this->_M_swap(__x);
1406:c:\program files\daisytoolchain\arm-none-eabi\include\c++\10.2.1\bits\hashtable.h **** 
1407:c:\program files\daisytoolchain\arm-none-eabi\include\c++\10.2.1\bits\hashtable.h ****       std::__alloc_on_swap(this->_M_node_allocator(), __x._M_node_allocator());
1408:c:\program files\daisytoolchain\arm-none-eabi\include\c++\10.2.1\bits\hashtable.h ****       std::swap(_M_rehash_policy, __x._M_rehash_policy);
1409:c:\program files\daisytoolchain\arm-none-eabi\include\c++\10.2.1\bits\hashtable.h **** 
1410:c:\program files\daisytoolchain\arm-none-eabi\include\c++\10.2.1\bits\hashtable.h ****       // Deal properly with potentially moved instances.
1411:c:\program files\daisytoolchain\arm-none-eabi\include\c++\10.2.1\bits\hashtable.h ****       if (this->_M_uses_single_bucket())
1412:c:\program files\daisytoolchain\arm-none-eabi\include\c++\10.2.1\bits\hashtable.h **** 	{
1413:c:\program files\daisytoolchain\arm-none-eabi\include\c++\10.2.1\bits\hashtable.h **** 	  if (!__x._M_uses_single_bucket())
1414:c:\program files\daisytoolchain\arm-none-eabi\include\c++\10.2.1\bits\hashtable.h **** 	    {
1415:c:\program files\daisytoolchain\arm-none-eabi\include\c++\10.2.1\bits\hashtable.h **** 	      _M_buckets = __x._M_buckets;
1416:c:\program files\daisytoolchain\arm-none-eabi\include\c++\10.2.1\bits\hashtable.h **** 	      __x._M_buckets = &__x._M_single_bucket;
1417:c:\program files\daisytoolchain\arm-none-eabi\include\c++\10.2.1\bits\hashtable.h **** 	    }
1418:c:\program files\daisytoolchain\arm-none-eabi\include\c++\10.2.1\bits\hashtable.h **** 	}
1419:c:\program files\daisytoolchain\arm-none-eabi\include\c++\10.2.1\bits\hashtable.h ****       else if (__x._M_uses_single_bucket())
1420:c:\program files\daisytoolchain\arm-none-eabi\include\c++\10.2.1\bits\hashtable.h **** 	{
1421:c:\program files\daisytoolchain\arm-none-eabi\include\c++\10.2.1\bits\hashtable.h **** 	  __x._M_buckets = _M_buckets;
1422:c:\program files\daisytoolchain\arm-none-eabi\include\c++\10.2.1\bits\hashtable.h **** 	  _M_buckets = &_M_single_bucket;
1423:c:\program files\daisytoolchain\arm-none-eabi\include\c++\10.2.1\bits\hashtable.h **** 	}	
1424:c:\program files\daisytoolchain\arm-none-eabi\include\c++\10.2.1\bits\hashtable.h ****       else
1425:c:\program files\daisytoolchain\arm-none-eabi\include\c++\10.2.1\bits\hashtable.h **** 	std::swap(_M_buckets, __x._M_buckets);
1426:c:\program files\daisytoolchain\arm-none-eabi\include\c++\10.2.1\bits\hashtable.h **** 
1427:c:\program files\daisytoolchain\arm-none-eabi\include\c++\10.2.1\bits\hashtable.h ****       std::swap(_M_bucket_count, __x._M_bucket_count);
1428:c:\program files\daisytoolchain\arm-none-eabi\include\c++\10.2.1\bits\hashtable.h ****       std::swap(_M_before_begin._M_nxt, __x._M_before_begin._M_nxt);
1429:c:\program files\daisytoolchain\arm-none-eabi\include\c++\10.2.1\bits\hashtable.h ****       std::swap(_M_element_count, __x._M_element_count);
1430:c:\program files\daisytoolchain\arm-none-eabi\include\c++\10.2.1\bits\hashtable.h ****       std::swap(_M_single_bucket, __x._M_single_bucket);
1431:c:\program files\daisytoolchain\arm-none-eabi\include\c++\10.2.1\bits\hashtable.h **** 
1432:c:\program files\daisytoolchain\arm-none-eabi\include\c++\10.2.1\bits\hashtable.h ****       // Fix buckets containing the _M_before_begin pointers that can't be
1433:c:\program files\daisytoolchain\arm-none-eabi\include\c++\10.2.1\bits\hashtable.h ****       // swapped.
1434:c:\program files\daisytoolchain\arm-none-eabi\include\c++\10.2.1\bits\hashtable.h ****       if (_M_begin())
ARM GAS  C:\Users\theja\AppData\Local\Temp\ccGbJAvD.s 			page 29


1435:c:\program files\daisytoolchain\arm-none-eabi\include\c++\10.2.1\bits\hashtable.h **** 	_M_buckets[_M_bucket_index(_M_begin())] = &_M_before_begin;
1436:c:\program files\daisytoolchain\arm-none-eabi\include\c++\10.2.1\bits\hashtable.h **** 
1437:c:\program files\daisytoolchain\arm-none-eabi\include\c++\10.2.1\bits\hashtable.h ****       if (__x._M_begin())
1438:c:\program files\daisytoolchain\arm-none-eabi\include\c++\10.2.1\bits\hashtable.h **** 	__x._M_buckets[__x._M_bucket_index(__x._M_begin())]
1439:c:\program files\daisytoolchain\arm-none-eabi\include\c++\10.2.1\bits\hashtable.h **** 	  = &__x._M_before_begin;
1440:c:\program files\daisytoolchain\arm-none-eabi\include\c++\10.2.1\bits\hashtable.h ****     }
1441:c:\program files\daisytoolchain\arm-none-eabi\include\c++\10.2.1\bits\hashtable.h **** 
1442:c:\program files\daisytoolchain\arm-none-eabi\include\c++\10.2.1\bits\hashtable.h ****   template<typename _Key, typename _Value,
1443:c:\program files\daisytoolchain\arm-none-eabi\include\c++\10.2.1\bits\hashtable.h **** 	   typename _Alloc, typename _ExtractKey, typename _Equal,
1444:c:\program files\daisytoolchain\arm-none-eabi\include\c++\10.2.1\bits\hashtable.h **** 	   typename _H1, typename _H2, typename _Hash, typename _RehashPolicy,
1445:c:\program files\daisytoolchain\arm-none-eabi\include\c++\10.2.1\bits\hashtable.h **** 	   typename _Traits>
1446:c:\program files\daisytoolchain\arm-none-eabi\include\c++\10.2.1\bits\hashtable.h ****     auto
1447:c:\program files\daisytoolchain\arm-none-eabi\include\c++\10.2.1\bits\hashtable.h ****     _Hashtable<_Key, _Value, _Alloc, _ExtractKey, _Equal,
1448:c:\program files\daisytoolchain\arm-none-eabi\include\c++\10.2.1\bits\hashtable.h **** 	       _H1, _H2, _Hash, _RehashPolicy, _Traits>::
1449:c:\program files\daisytoolchain\arm-none-eabi\include\c++\10.2.1\bits\hashtable.h ****     find(const key_type& __k)
1450:c:\program files\daisytoolchain\arm-none-eabi\include\c++\10.2.1\bits\hashtable.h ****     -> iterator
1451:c:\program files\daisytoolchain\arm-none-eabi\include\c++\10.2.1\bits\hashtable.h ****     {
1452:c:\program files\daisytoolchain\arm-none-eabi\include\c++\10.2.1\bits\hashtable.h ****       __hash_code __code = this->_M_hash_code(__k);
1453:c:\program files\daisytoolchain\arm-none-eabi\include\c++\10.2.1\bits\hashtable.h ****       std::size_t __bkt = _M_bucket_index(__k, __code);
1454:c:\program files\daisytoolchain\arm-none-eabi\include\c++\10.2.1\bits\hashtable.h ****       __node_type* __p = _M_find_node(__bkt, __k, __code);
1455:c:\program files\daisytoolchain\arm-none-eabi\include\c++\10.2.1\bits\hashtable.h ****       return __p ? iterator(__p) : end();
1456:c:\program files\daisytoolchain\arm-none-eabi\include\c++\10.2.1\bits\hashtable.h ****     }
1457:c:\program files\daisytoolchain\arm-none-eabi\include\c++\10.2.1\bits\hashtable.h **** 
1458:c:\program files\daisytoolchain\arm-none-eabi\include\c++\10.2.1\bits\hashtable.h ****   template<typename _Key, typename _Value,
1459:c:\program files\daisytoolchain\arm-none-eabi\include\c++\10.2.1\bits\hashtable.h **** 	   typename _Alloc, typename _ExtractKey, typename _Equal,
1460:c:\program files\daisytoolchain\arm-none-eabi\include\c++\10.2.1\bits\hashtable.h **** 	   typename _H1, typename _H2, typename _Hash, typename _RehashPolicy,
1461:c:\program files\daisytoolchain\arm-none-eabi\include\c++\10.2.1\bits\hashtable.h **** 	   typename _Traits>
1462:c:\program files\daisytoolchain\arm-none-eabi\include\c++\10.2.1\bits\hashtable.h ****     auto
1463:c:\program files\daisytoolchain\arm-none-eabi\include\c++\10.2.1\bits\hashtable.h ****     _Hashtable<_Key, _Value, _Alloc, _ExtractKey, _Equal,
1464:c:\program files\daisytoolchain\arm-none-eabi\include\c++\10.2.1\bits\hashtable.h **** 	       _H1, _H2, _Hash, _RehashPolicy, _Traits>::
1465:c:\program files\daisytoolchain\arm-none-eabi\include\c++\10.2.1\bits\hashtable.h ****     find(const key_type& __k) const
1466:c:\program files\daisytoolchain\arm-none-eabi\include\c++\10.2.1\bits\hashtable.h ****     -> const_iterator
1467:c:\program files\daisytoolchain\arm-none-eabi\include\c++\10.2.1\bits\hashtable.h ****     {
1468:c:\program files\daisytoolchain\arm-none-eabi\include\c++\10.2.1\bits\hashtable.h ****       __hash_code __code = this->_M_hash_code(__k);
1469:c:\program files\daisytoolchain\arm-none-eabi\include\c++\10.2.1\bits\hashtable.h ****       std::size_t __bkt = _M_bucket_index(__k, __code);
1470:c:\program files\daisytoolchain\arm-none-eabi\include\c++\10.2.1\bits\hashtable.h ****       __node_type* __p = _M_find_node(__bkt, __k, __code);
1471:c:\program files\daisytoolchain\arm-none-eabi\include\c++\10.2.1\bits\hashtable.h ****       return __p ? const_iterator(__p) : end();
1472:c:\program files\daisytoolchain\arm-none-eabi\include\c++\10.2.1\bits\hashtable.h ****     }
1473:c:\program files\daisytoolchain\arm-none-eabi\include\c++\10.2.1\bits\hashtable.h **** 
1474:c:\program files\daisytoolchain\arm-none-eabi\include\c++\10.2.1\bits\hashtable.h ****   template<typename _Key, typename _Value,
1475:c:\program files\daisytoolchain\arm-none-eabi\include\c++\10.2.1\bits\hashtable.h **** 	   typename _Alloc, typename _ExtractKey, typename _Equal,
1476:c:\program files\daisytoolchain\arm-none-eabi\include\c++\10.2.1\bits\hashtable.h **** 	   typename _H1, typename _H2, typename _Hash, typename _RehashPolicy,
1477:c:\program files\daisytoolchain\arm-none-eabi\include\c++\10.2.1\bits\hashtable.h **** 	   typename _Traits>
1478:c:\program files\daisytoolchain\arm-none-eabi\include\c++\10.2.1\bits\hashtable.h ****     auto
1479:c:\program files\daisytoolchain\arm-none-eabi\include\c++\10.2.1\bits\hashtable.h ****     _Hashtable<_Key, _Value, _Alloc, _ExtractKey, _Equal,
1480:c:\program files\daisytoolchain\arm-none-eabi\include\c++\10.2.1\bits\hashtable.h **** 	       _H1, _H2, _Hash, _RehashPolicy, _Traits>::
1481:c:\program files\daisytoolchain\arm-none-eabi\include\c++\10.2.1\bits\hashtable.h ****     count(const key_type& __k) const
1482:c:\program files\daisytoolchain\arm-none-eabi\include\c++\10.2.1\bits\hashtable.h ****     -> size_type
1483:c:\program files\daisytoolchain\arm-none-eabi\include\c++\10.2.1\bits\hashtable.h ****     {
1484:c:\program files\daisytoolchain\arm-none-eabi\include\c++\10.2.1\bits\hashtable.h ****       __hash_code __code = this->_M_hash_code(__k);
1485:c:\program files\daisytoolchain\arm-none-eabi\include\c++\10.2.1\bits\hashtable.h ****       std::size_t __bkt = _M_bucket_index(__k, __code);
1486:c:\program files\daisytoolchain\arm-none-eabi\include\c++\10.2.1\bits\hashtable.h ****       __node_type* __p = _M_bucket_begin(__bkt);
1487:c:\program files\daisytoolchain\arm-none-eabi\include\c++\10.2.1\bits\hashtable.h ****       if (!__p)
1488:c:\program files\daisytoolchain\arm-none-eabi\include\c++\10.2.1\bits\hashtable.h **** 	return 0;
1489:c:\program files\daisytoolchain\arm-none-eabi\include\c++\10.2.1\bits\hashtable.h **** 
1490:c:\program files\daisytoolchain\arm-none-eabi\include\c++\10.2.1\bits\hashtable.h ****       std::size_t __result = 0;
1491:c:\program files\daisytoolchain\arm-none-eabi\include\c++\10.2.1\bits\hashtable.h ****       for (;; __p = __p->_M_next())
ARM GAS  C:\Users\theja\AppData\Local\Temp\ccGbJAvD.s 			page 30


1492:c:\program files\daisytoolchain\arm-none-eabi\include\c++\10.2.1\bits\hashtable.h **** 	{
1493:c:\program files\daisytoolchain\arm-none-eabi\include\c++\10.2.1\bits\hashtable.h **** 	  if (this->_M_equals(__k, __code, __p))
1494:c:\program files\daisytoolchain\arm-none-eabi\include\c++\10.2.1\bits\hashtable.h **** 	    ++__result;
1495:c:\program files\daisytoolchain\arm-none-eabi\include\c++\10.2.1\bits\hashtable.h **** 	  else if (__result)
1496:c:\program files\daisytoolchain\arm-none-eabi\include\c++\10.2.1\bits\hashtable.h **** 	    // All equivalent values are next to each other, if we
1497:c:\program files\daisytoolchain\arm-none-eabi\include\c++\10.2.1\bits\hashtable.h **** 	    // found a non-equivalent value after an equivalent one it
1498:c:\program files\daisytoolchain\arm-none-eabi\include\c++\10.2.1\bits\hashtable.h **** 	    // means that we won't find any new equivalent value.
1499:c:\program files\daisytoolchain\arm-none-eabi\include\c++\10.2.1\bits\hashtable.h **** 	    break;
1500:c:\program files\daisytoolchain\arm-none-eabi\include\c++\10.2.1\bits\hashtable.h **** 	  if (!__p->_M_nxt || _M_bucket_index(__p->_M_next()) != __bkt)
1501:c:\program files\daisytoolchain\arm-none-eabi\include\c++\10.2.1\bits\hashtable.h **** 	    break;
1502:c:\program files\daisytoolchain\arm-none-eabi\include\c++\10.2.1\bits\hashtable.h **** 	}
1503:c:\program files\daisytoolchain\arm-none-eabi\include\c++\10.2.1\bits\hashtable.h ****       return __result;
1504:c:\program files\daisytoolchain\arm-none-eabi\include\c++\10.2.1\bits\hashtable.h ****     }
1505:c:\program files\daisytoolchain\arm-none-eabi\include\c++\10.2.1\bits\hashtable.h **** 
1506:c:\program files\daisytoolchain\arm-none-eabi\include\c++\10.2.1\bits\hashtable.h ****   template<typename _Key, typename _Value,
1507:c:\program files\daisytoolchain\arm-none-eabi\include\c++\10.2.1\bits\hashtable.h **** 	   typename _Alloc, typename _ExtractKey, typename _Equal,
1508:c:\program files\daisytoolchain\arm-none-eabi\include\c++\10.2.1\bits\hashtable.h **** 	   typename _H1, typename _H2, typename _Hash, typename _RehashPolicy,
1509:c:\program files\daisytoolchain\arm-none-eabi\include\c++\10.2.1\bits\hashtable.h **** 	   typename _Traits>
1510:c:\program files\daisytoolchain\arm-none-eabi\include\c++\10.2.1\bits\hashtable.h ****     auto
1511:c:\program files\daisytoolchain\arm-none-eabi\include\c++\10.2.1\bits\hashtable.h ****     _Hashtable<_Key, _Value, _Alloc, _ExtractKey, _Equal,
1512:c:\program files\daisytoolchain\arm-none-eabi\include\c++\10.2.1\bits\hashtable.h **** 	       _H1, _H2, _Hash, _RehashPolicy, _Traits>::
1513:c:\program files\daisytoolchain\arm-none-eabi\include\c++\10.2.1\bits\hashtable.h ****     equal_range(const key_type& __k)
1514:c:\program files\daisytoolchain\arm-none-eabi\include\c++\10.2.1\bits\hashtable.h ****     -> pair<iterator, iterator>
1515:c:\program files\daisytoolchain\arm-none-eabi\include\c++\10.2.1\bits\hashtable.h ****     {
1516:c:\program files\daisytoolchain\arm-none-eabi\include\c++\10.2.1\bits\hashtable.h ****       __hash_code __code = this->_M_hash_code(__k);
1517:c:\program files\daisytoolchain\arm-none-eabi\include\c++\10.2.1\bits\hashtable.h ****       std::size_t __bkt = _M_bucket_index(__k, __code);
1518:c:\program files\daisytoolchain\arm-none-eabi\include\c++\10.2.1\bits\hashtable.h ****       __node_type* __p = _M_find_node(__bkt, __k, __code);
1519:c:\program files\daisytoolchain\arm-none-eabi\include\c++\10.2.1\bits\hashtable.h **** 
1520:c:\program files\daisytoolchain\arm-none-eabi\include\c++\10.2.1\bits\hashtable.h ****       if (__p)
1521:c:\program files\daisytoolchain\arm-none-eabi\include\c++\10.2.1\bits\hashtable.h **** 	{
1522:c:\program files\daisytoolchain\arm-none-eabi\include\c++\10.2.1\bits\hashtable.h **** 	  __node_type* __p1 = __p->_M_next();
1523:c:\program files\daisytoolchain\arm-none-eabi\include\c++\10.2.1\bits\hashtable.h **** 	  while (__p1 && _M_bucket_index(__p1) == __bkt
1524:c:\program files\daisytoolchain\arm-none-eabi\include\c++\10.2.1\bits\hashtable.h **** 		 && this->_M_equals(__k, __code, __p1))
1525:c:\program files\daisytoolchain\arm-none-eabi\include\c++\10.2.1\bits\hashtable.h **** 	    __p1 = __p1->_M_next();
1526:c:\program files\daisytoolchain\arm-none-eabi\include\c++\10.2.1\bits\hashtable.h **** 
1527:c:\program files\daisytoolchain\arm-none-eabi\include\c++\10.2.1\bits\hashtable.h **** 	  return std::make_pair(iterator(__p), iterator(__p1));
1528:c:\program files\daisytoolchain\arm-none-eabi\include\c++\10.2.1\bits\hashtable.h **** 	}
1529:c:\program files\daisytoolchain\arm-none-eabi\include\c++\10.2.1\bits\hashtable.h ****       else
1530:c:\program files\daisytoolchain\arm-none-eabi\include\c++\10.2.1\bits\hashtable.h **** 	return std::make_pair(end(), end());
1531:c:\program files\daisytoolchain\arm-none-eabi\include\c++\10.2.1\bits\hashtable.h ****     }
1532:c:\program files\daisytoolchain\arm-none-eabi\include\c++\10.2.1\bits\hashtable.h **** 
1533:c:\program files\daisytoolchain\arm-none-eabi\include\c++\10.2.1\bits\hashtable.h ****   template<typename _Key, typename _Value,
1534:c:\program files\daisytoolchain\arm-none-eabi\include\c++\10.2.1\bits\hashtable.h **** 	   typename _Alloc, typename _ExtractKey, typename _Equal,
1535:c:\program files\daisytoolchain\arm-none-eabi\include\c++\10.2.1\bits\hashtable.h **** 	   typename _H1, typename _H2, typename _Hash, typename _RehashPolicy,
1536:c:\program files\daisytoolchain\arm-none-eabi\include\c++\10.2.1\bits\hashtable.h **** 	   typename _Traits>
1537:c:\program files\daisytoolchain\arm-none-eabi\include\c++\10.2.1\bits\hashtable.h ****     auto
1538:c:\program files\daisytoolchain\arm-none-eabi\include\c++\10.2.1\bits\hashtable.h ****     _Hashtable<_Key, _Value, _Alloc, _ExtractKey, _Equal,
1539:c:\program files\daisytoolchain\arm-none-eabi\include\c++\10.2.1\bits\hashtable.h **** 	       _H1, _H2, _Hash, _RehashPolicy, _Traits>::
1540:c:\program files\daisytoolchain\arm-none-eabi\include\c++\10.2.1\bits\hashtable.h ****     equal_range(const key_type& __k) const
1541:c:\program files\daisytoolchain\arm-none-eabi\include\c++\10.2.1\bits\hashtable.h ****     -> pair<const_iterator, const_iterator>
1542:c:\program files\daisytoolchain\arm-none-eabi\include\c++\10.2.1\bits\hashtable.h ****     {
1543:c:\program files\daisytoolchain\arm-none-eabi\include\c++\10.2.1\bits\hashtable.h ****       __hash_code __code = this->_M_hash_code(__k);
1544:c:\program files\daisytoolchain\arm-none-eabi\include\c++\10.2.1\bits\hashtable.h ****       std::size_t __bkt = _M_bucket_index(__k, __code);
1545:c:\program files\daisytoolchain\arm-none-eabi\include\c++\10.2.1\bits\hashtable.h ****       __node_type* __p = _M_find_node(__bkt, __k, __code);
1546:c:\program files\daisytoolchain\arm-none-eabi\include\c++\10.2.1\bits\hashtable.h **** 
1547:c:\program files\daisytoolchain\arm-none-eabi\include\c++\10.2.1\bits\hashtable.h ****       if (__p)
1548:c:\program files\daisytoolchain\arm-none-eabi\include\c++\10.2.1\bits\hashtable.h **** 	{
ARM GAS  C:\Users\theja\AppData\Local\Temp\ccGbJAvD.s 			page 31


1549:c:\program files\daisytoolchain\arm-none-eabi\include\c++\10.2.1\bits\hashtable.h **** 	  __node_type* __p1 = __p->_M_next();
1550:c:\program files\daisytoolchain\arm-none-eabi\include\c++\10.2.1\bits\hashtable.h **** 	  while (__p1 && _M_bucket_index(__p1) == __bkt
1551:c:\program files\daisytoolchain\arm-none-eabi\include\c++\10.2.1\bits\hashtable.h **** 		 && this->_M_equals(__k, __code, __p1))
1552:c:\program files\daisytoolchain\arm-none-eabi\include\c++\10.2.1\bits\hashtable.h **** 	    __p1 = __p1->_M_next();
1553:c:\program files\daisytoolchain\arm-none-eabi\include\c++\10.2.1\bits\hashtable.h **** 
1554:c:\program files\daisytoolchain\arm-none-eabi\include\c++\10.2.1\bits\hashtable.h **** 	  return std::make_pair(const_iterator(__p), const_iterator(__p1));
1555:c:\program files\daisytoolchain\arm-none-eabi\include\c++\10.2.1\bits\hashtable.h **** 	}
1556:c:\program files\daisytoolchain\arm-none-eabi\include\c++\10.2.1\bits\hashtable.h ****       else
1557:c:\program files\daisytoolchain\arm-none-eabi\include\c++\10.2.1\bits\hashtable.h **** 	return std::make_pair(end(), end());
1558:c:\program files\daisytoolchain\arm-none-eabi\include\c++\10.2.1\bits\hashtable.h ****     }
1559:c:\program files\daisytoolchain\arm-none-eabi\include\c++\10.2.1\bits\hashtable.h **** 
1560:c:\program files\daisytoolchain\arm-none-eabi\include\c++\10.2.1\bits\hashtable.h ****   // Find the node whose key compares equal to k in the bucket bkt.
1561:c:\program files\daisytoolchain\arm-none-eabi\include\c++\10.2.1\bits\hashtable.h ****   // Return nullptr if no node is found.
1562:c:\program files\daisytoolchain\arm-none-eabi\include\c++\10.2.1\bits\hashtable.h ****   template<typename _Key, typename _Value,
1563:c:\program files\daisytoolchain\arm-none-eabi\include\c++\10.2.1\bits\hashtable.h **** 	   typename _Alloc, typename _ExtractKey, typename _Equal,
1564:c:\program files\daisytoolchain\arm-none-eabi\include\c++\10.2.1\bits\hashtable.h **** 	   typename _H1, typename _H2, typename _Hash, typename _RehashPolicy,
1565:c:\program files\daisytoolchain\arm-none-eabi\include\c++\10.2.1\bits\hashtable.h **** 	   typename _Traits>
1566:c:\program files\daisytoolchain\arm-none-eabi\include\c++\10.2.1\bits\hashtable.h ****     auto
1567:c:\program files\daisytoolchain\arm-none-eabi\include\c++\10.2.1\bits\hashtable.h ****     _Hashtable<_Key, _Value, _Alloc, _ExtractKey, _Equal,
1568:c:\program files\daisytoolchain\arm-none-eabi\include\c++\10.2.1\bits\hashtable.h **** 	       _H1, _H2, _Hash, _RehashPolicy, _Traits>::
1569:c:\program files\daisytoolchain\arm-none-eabi\include\c++\10.2.1\bits\hashtable.h ****     _M_find_before_node(size_type __bkt, const key_type& __k,
1570:c:\program files\daisytoolchain\arm-none-eabi\include\c++\10.2.1\bits\hashtable.h **** 			__hash_code __code) const
1571:c:\program files\daisytoolchain\arm-none-eabi\include\c++\10.2.1\bits\hashtable.h ****     -> __node_base*
1572:c:\program files\daisytoolchain\arm-none-eabi\include\c++\10.2.1\bits\hashtable.h ****     {
1573:c:\program files\daisytoolchain\arm-none-eabi\include\c++\10.2.1\bits\hashtable.h ****       __node_base* __prev_p = _M_buckets[__bkt];
1574:c:\program files\daisytoolchain\arm-none-eabi\include\c++\10.2.1\bits\hashtable.h ****       if (!__prev_p)
1575:c:\program files\daisytoolchain\arm-none-eabi\include\c++\10.2.1\bits\hashtable.h **** 	return nullptr;
1576:c:\program files\daisytoolchain\arm-none-eabi\include\c++\10.2.1\bits\hashtable.h **** 
1577:c:\program files\daisytoolchain\arm-none-eabi\include\c++\10.2.1\bits\hashtable.h ****       for (__node_type* __p = static_cast<__node_type*>(__prev_p->_M_nxt);;
1578:c:\program files\daisytoolchain\arm-none-eabi\include\c++\10.2.1\bits\hashtable.h **** 	   __p = __p->_M_next())
1579:c:\program files\daisytoolchain\arm-none-eabi\include\c++\10.2.1\bits\hashtable.h **** 	{
1580:c:\program files\daisytoolchain\arm-none-eabi\include\c++\10.2.1\bits\hashtable.h **** 	  if (this->_M_equals(__k, __code, __p))
1581:c:\program files\daisytoolchain\arm-none-eabi\include\c++\10.2.1\bits\hashtable.h **** 	    return __prev_p;
1582:c:\program files\daisytoolchain\arm-none-eabi\include\c++\10.2.1\bits\hashtable.h **** 
1583:c:\program files\daisytoolchain\arm-none-eabi\include\c++\10.2.1\bits\hashtable.h **** 	  if (!__p->_M_nxt || _M_bucket_index(__p->_M_next()) != __bkt)
1584:c:\program files\daisytoolchain\arm-none-eabi\include\c++\10.2.1\bits\hashtable.h **** 	    break;
1585:c:\program files\daisytoolchain\arm-none-eabi\include\c++\10.2.1\bits\hashtable.h **** 	  __prev_p = __p;
1586:c:\program files\daisytoolchain\arm-none-eabi\include\c++\10.2.1\bits\hashtable.h **** 	}
1587:c:\program files\daisytoolchain\arm-none-eabi\include\c++\10.2.1\bits\hashtable.h ****       return nullptr;
1588:c:\program files\daisytoolchain\arm-none-eabi\include\c++\10.2.1\bits\hashtable.h ****     }
1589:c:\program files\daisytoolchain\arm-none-eabi\include\c++\10.2.1\bits\hashtable.h **** 
1590:c:\program files\daisytoolchain\arm-none-eabi\include\c++\10.2.1\bits\hashtable.h ****   template<typename _Key, typename _Value,
1591:c:\program files\daisytoolchain\arm-none-eabi\include\c++\10.2.1\bits\hashtable.h **** 	   typename _Alloc, typename _ExtractKey, typename _Equal,
1592:c:\program files\daisytoolchain\arm-none-eabi\include\c++\10.2.1\bits\hashtable.h **** 	   typename _H1, typename _H2, typename _Hash, typename _RehashPolicy,
1593:c:\program files\daisytoolchain\arm-none-eabi\include\c++\10.2.1\bits\hashtable.h **** 	   typename _Traits>
1594:c:\program files\daisytoolchain\arm-none-eabi\include\c++\10.2.1\bits\hashtable.h ****     void
1595:c:\program files\daisytoolchain\arm-none-eabi\include\c++\10.2.1\bits\hashtable.h ****     _Hashtable<_Key, _Value, _Alloc, _ExtractKey, _Equal,
1596:c:\program files\daisytoolchain\arm-none-eabi\include\c++\10.2.1\bits\hashtable.h **** 	       _H1, _H2, _Hash, _RehashPolicy, _Traits>::
1597:c:\program files\daisytoolchain\arm-none-eabi\include\c++\10.2.1\bits\hashtable.h ****     _M_insert_bucket_begin(size_type __bkt, __node_type* __node)
1598:c:\program files\daisytoolchain\arm-none-eabi\include\c++\10.2.1\bits\hashtable.h ****     {
1599:c:\program files\daisytoolchain\arm-none-eabi\include\c++\10.2.1\bits\hashtable.h ****       if (_M_buckets[__bkt])
1600:c:\program files\daisytoolchain\arm-none-eabi\include\c++\10.2.1\bits\hashtable.h **** 	{
1601:c:\program files\daisytoolchain\arm-none-eabi\include\c++\10.2.1\bits\hashtable.h **** 	  // Bucket is not empty, we just need to insert the new node
1602:c:\program files\daisytoolchain\arm-none-eabi\include\c++\10.2.1\bits\hashtable.h **** 	  // after the bucket before begin.
1603:c:\program files\daisytoolchain\arm-none-eabi\include\c++\10.2.1\bits\hashtable.h **** 	  __node->_M_nxt = _M_buckets[__bkt]->_M_nxt;
1604:c:\program files\daisytoolchain\arm-none-eabi\include\c++\10.2.1\bits\hashtable.h **** 	  _M_buckets[__bkt]->_M_nxt = __node;
1605:c:\program files\daisytoolchain\arm-none-eabi\include\c++\10.2.1\bits\hashtable.h **** 	}
ARM GAS  C:\Users\theja\AppData\Local\Temp\ccGbJAvD.s 			page 32


1606:c:\program files\daisytoolchain\arm-none-eabi\include\c++\10.2.1\bits\hashtable.h ****       else
1607:c:\program files\daisytoolchain\arm-none-eabi\include\c++\10.2.1\bits\hashtable.h **** 	{
1608:c:\program files\daisytoolchain\arm-none-eabi\include\c++\10.2.1\bits\hashtable.h **** 	  // The bucket is empty, the new node is inserted at the
1609:c:\program files\daisytoolchain\arm-none-eabi\include\c++\10.2.1\bits\hashtable.h **** 	  // beginning of the singly-linked list and the bucket will
1610:c:\program files\daisytoolchain\arm-none-eabi\include\c++\10.2.1\bits\hashtable.h **** 	  // contain _M_before_begin pointer.
1611:c:\program files\daisytoolchain\arm-none-eabi\include\c++\10.2.1\bits\hashtable.h **** 	  __node->_M_nxt = _M_before_begin._M_nxt;
1612:c:\program files\daisytoolchain\arm-none-eabi\include\c++\10.2.1\bits\hashtable.h **** 	  _M_before_begin._M_nxt = __node;
1613:c:\program files\daisytoolchain\arm-none-eabi\include\c++\10.2.1\bits\hashtable.h **** 	  if (__node->_M_nxt)
1614:c:\program files\daisytoolchain\arm-none-eabi\include\c++\10.2.1\bits\hashtable.h **** 	    // We must update former begin bucket that is pointing to
1615:c:\program files\daisytoolchain\arm-none-eabi\include\c++\10.2.1\bits\hashtable.h **** 	    // _M_before_begin.
1616:c:\program files\daisytoolchain\arm-none-eabi\include\c++\10.2.1\bits\hashtable.h **** 	    _M_buckets[_M_bucket_index(__node->_M_next())] = __node;
1617:c:\program files\daisytoolchain\arm-none-eabi\include\c++\10.2.1\bits\hashtable.h **** 	  _M_buckets[__bkt] = &_M_before_begin;
1618:c:\program files\daisytoolchain\arm-none-eabi\include\c++\10.2.1\bits\hashtable.h **** 	}
1619:c:\program files\daisytoolchain\arm-none-eabi\include\c++\10.2.1\bits\hashtable.h ****     }
1620:c:\program files\daisytoolchain\arm-none-eabi\include\c++\10.2.1\bits\hashtable.h **** 
1621:c:\program files\daisytoolchain\arm-none-eabi\include\c++\10.2.1\bits\hashtable.h ****   template<typename _Key, typename _Value,
1622:c:\program files\daisytoolchain\arm-none-eabi\include\c++\10.2.1\bits\hashtable.h **** 	   typename _Alloc, typename _ExtractKey, typename _Equal,
1623:c:\program files\daisytoolchain\arm-none-eabi\include\c++\10.2.1\bits\hashtable.h **** 	   typename _H1, typename _H2, typename _Hash, typename _RehashPolicy,
1624:c:\program files\daisytoolchain\arm-none-eabi\include\c++\10.2.1\bits\hashtable.h **** 	   typename _Traits>
1625:c:\program files\daisytoolchain\arm-none-eabi\include\c++\10.2.1\bits\hashtable.h ****     void
1626:c:\program files\daisytoolchain\arm-none-eabi\include\c++\10.2.1\bits\hashtable.h ****     _Hashtable<_Key, _Value, _Alloc, _ExtractKey, _Equal,
1627:c:\program files\daisytoolchain\arm-none-eabi\include\c++\10.2.1\bits\hashtable.h **** 	       _H1, _H2, _Hash, _RehashPolicy, _Traits>::
1628:c:\program files\daisytoolchain\arm-none-eabi\include\c++\10.2.1\bits\hashtable.h ****     _M_remove_bucket_begin(size_type __bkt, __node_type* __next,
1629:c:\program files\daisytoolchain\arm-none-eabi\include\c++\10.2.1\bits\hashtable.h **** 			   size_type __next_bkt)
1630:c:\program files\daisytoolchain\arm-none-eabi\include\c++\10.2.1\bits\hashtable.h ****     {
1631:c:\program files\daisytoolchain\arm-none-eabi\include\c++\10.2.1\bits\hashtable.h ****       if (!__next || __next_bkt != __bkt)
1632:c:\program files\daisytoolchain\arm-none-eabi\include\c++\10.2.1\bits\hashtable.h **** 	{
1633:c:\program files\daisytoolchain\arm-none-eabi\include\c++\10.2.1\bits\hashtable.h **** 	  // Bucket is now empty
1634:c:\program files\daisytoolchain\arm-none-eabi\include\c++\10.2.1\bits\hashtable.h **** 	  // First update next bucket if any
1635:c:\program files\daisytoolchain\arm-none-eabi\include\c++\10.2.1\bits\hashtable.h **** 	  if (__next)
1636:c:\program files\daisytoolchain\arm-none-eabi\include\c++\10.2.1\bits\hashtable.h **** 	    _M_buckets[__next_bkt] = _M_buckets[__bkt];
1637:c:\program files\daisytoolchain\arm-none-eabi\include\c++\10.2.1\bits\hashtable.h **** 
1638:c:\program files\daisytoolchain\arm-none-eabi\include\c++\10.2.1\bits\hashtable.h **** 	  // Second update before begin node if necessary
1639:c:\program files\daisytoolchain\arm-none-eabi\include\c++\10.2.1\bits\hashtable.h **** 	  if (&_M_before_begin == _M_buckets[__bkt])
1640:c:\program files\daisytoolchain\arm-none-eabi\include\c++\10.2.1\bits\hashtable.h **** 	    _M_before_begin._M_nxt = __next;
1641:c:\program files\daisytoolchain\arm-none-eabi\include\c++\10.2.1\bits\hashtable.h **** 	  _M_buckets[__bkt] = nullptr;
1642:c:\program files\daisytoolchain\arm-none-eabi\include\c++\10.2.1\bits\hashtable.h **** 	}
1643:c:\program files\daisytoolchain\arm-none-eabi\include\c++\10.2.1\bits\hashtable.h ****     }
1644:c:\program files\daisytoolchain\arm-none-eabi\include\c++\10.2.1\bits\hashtable.h **** 
1645:c:\program files\daisytoolchain\arm-none-eabi\include\c++\10.2.1\bits\hashtable.h ****   template<typename _Key, typename _Value,
1646:c:\program files\daisytoolchain\arm-none-eabi\include\c++\10.2.1\bits\hashtable.h **** 	   typename _Alloc, typename _ExtractKey, typename _Equal,
1647:c:\program files\daisytoolchain\arm-none-eabi\include\c++\10.2.1\bits\hashtable.h **** 	   typename _H1, typename _H2, typename _Hash, typename _RehashPolicy,
1648:c:\program files\daisytoolchain\arm-none-eabi\include\c++\10.2.1\bits\hashtable.h **** 	   typename _Traits>
1649:c:\program files\daisytoolchain\arm-none-eabi\include\c++\10.2.1\bits\hashtable.h ****     auto
1650:c:\program files\daisytoolchain\arm-none-eabi\include\c++\10.2.1\bits\hashtable.h ****     _Hashtable<_Key, _Value, _Alloc, _ExtractKey, _Equal,
1651:c:\program files\daisytoolchain\arm-none-eabi\include\c++\10.2.1\bits\hashtable.h **** 	       _H1, _H2, _Hash, _RehashPolicy, _Traits>::
1652:c:\program files\daisytoolchain\arm-none-eabi\include\c++\10.2.1\bits\hashtable.h ****     _M_get_previous_node(size_type __bkt, __node_base* __n)
1653:c:\program files\daisytoolchain\arm-none-eabi\include\c++\10.2.1\bits\hashtable.h ****     -> __node_base*
1654:c:\program files\daisytoolchain\arm-none-eabi\include\c++\10.2.1\bits\hashtable.h ****     {
1655:c:\program files\daisytoolchain\arm-none-eabi\include\c++\10.2.1\bits\hashtable.h ****       __node_base* __prev_n = _M_buckets[__bkt];
1656:c:\program files\daisytoolchain\arm-none-eabi\include\c++\10.2.1\bits\hashtable.h ****       while (__prev_n->_M_nxt != __n)
1657:c:\program files\daisytoolchain\arm-none-eabi\include\c++\10.2.1\bits\hashtable.h **** 	__prev_n = __prev_n->_M_nxt;
1658:c:\program files\daisytoolchain\arm-none-eabi\include\c++\10.2.1\bits\hashtable.h ****       return __prev_n;
1659:c:\program files\daisytoolchain\arm-none-eabi\include\c++\10.2.1\bits\hashtable.h ****     }
1660:c:\program files\daisytoolchain\arm-none-eabi\include\c++\10.2.1\bits\hashtable.h **** 
1661:c:\program files\daisytoolchain\arm-none-eabi\include\c++\10.2.1\bits\hashtable.h ****   template<typename _Key, typename _Value,
1662:c:\program files\daisytoolchain\arm-none-eabi\include\c++\10.2.1\bits\hashtable.h **** 	   typename _Alloc, typename _ExtractKey, typename _Equal,
ARM GAS  C:\Users\theja\AppData\Local\Temp\ccGbJAvD.s 			page 33


1663:c:\program files\daisytoolchain\arm-none-eabi\include\c++\10.2.1\bits\hashtable.h **** 	   typename _H1, typename _H2, typename _Hash, typename _RehashPolicy,
1664:c:\program files\daisytoolchain\arm-none-eabi\include\c++\10.2.1\bits\hashtable.h **** 	   typename _Traits>
1665:c:\program files\daisytoolchain\arm-none-eabi\include\c++\10.2.1\bits\hashtable.h ****     template<typename... _Args>
1666:c:\program files\daisytoolchain\arm-none-eabi\include\c++\10.2.1\bits\hashtable.h ****       auto
1667:c:\program files\daisytoolchain\arm-none-eabi\include\c++\10.2.1\bits\hashtable.h ****       _Hashtable<_Key, _Value, _Alloc, _ExtractKey, _Equal,
1668:c:\program files\daisytoolchain\arm-none-eabi\include\c++\10.2.1\bits\hashtable.h **** 		 _H1, _H2, _Hash, _RehashPolicy, _Traits>::
1669:c:\program files\daisytoolchain\arm-none-eabi\include\c++\10.2.1\bits\hashtable.h ****       _M_emplace(true_type, _Args&&... __args)
1670:c:\program files\daisytoolchain\arm-none-eabi\include\c++\10.2.1\bits\hashtable.h ****       -> pair<iterator, bool>
1671:c:\program files\daisytoolchain\arm-none-eabi\include\c++\10.2.1\bits\hashtable.h ****       {
1672:c:\program files\daisytoolchain\arm-none-eabi\include\c++\10.2.1\bits\hashtable.h **** 	// First build the node to get access to the hash code
1673:c:\program files\daisytoolchain\arm-none-eabi\include\c++\10.2.1\bits\hashtable.h **** 	_Scoped_node __node { this, std::forward<_Args>(__args)...  };
1674:c:\program files\daisytoolchain\arm-none-eabi\include\c++\10.2.1\bits\hashtable.h **** 	const key_type& __k = this->_M_extract()(__node._M_node->_M_v());
1675:c:\program files\daisytoolchain\arm-none-eabi\include\c++\10.2.1\bits\hashtable.h **** 	__hash_code __code = this->_M_hash_code(__k);
1676:c:\program files\daisytoolchain\arm-none-eabi\include\c++\10.2.1\bits\hashtable.h **** 	size_type __bkt = _M_bucket_index(__k, __code);
1677:c:\program files\daisytoolchain\arm-none-eabi\include\c++\10.2.1\bits\hashtable.h **** 	if (__node_type* __p = _M_find_node(__bkt, __k, __code))
1678:c:\program files\daisytoolchain\arm-none-eabi\include\c++\10.2.1\bits\hashtable.h **** 	  // There is already an equivalent node, no insertion
1679:c:\program files\daisytoolchain\arm-none-eabi\include\c++\10.2.1\bits\hashtable.h **** 	  return std::make_pair(iterator(__p), false);
1680:c:\program files\daisytoolchain\arm-none-eabi\include\c++\10.2.1\bits\hashtable.h **** 
1681:c:\program files\daisytoolchain\arm-none-eabi\include\c++\10.2.1\bits\hashtable.h **** 	// Insert the node
1682:c:\program files\daisytoolchain\arm-none-eabi\include\c++\10.2.1\bits\hashtable.h **** 	auto __pos = _M_insert_unique_node(__k, __bkt, __code, __node._M_node);
1683:c:\program files\daisytoolchain\arm-none-eabi\include\c++\10.2.1\bits\hashtable.h **** 	__node._M_node = nullptr;
1684:c:\program files\daisytoolchain\arm-none-eabi\include\c++\10.2.1\bits\hashtable.h **** 	return { __pos, true };
1685:c:\program files\daisytoolchain\arm-none-eabi\include\c++\10.2.1\bits\hashtable.h ****       }
1686:c:\program files\daisytoolchain\arm-none-eabi\include\c++\10.2.1\bits\hashtable.h **** 
1687:c:\program files\daisytoolchain\arm-none-eabi\include\c++\10.2.1\bits\hashtable.h ****   template<typename _Key, typename _Value,
1688:c:\program files\daisytoolchain\arm-none-eabi\include\c++\10.2.1\bits\hashtable.h **** 	   typename _Alloc, typename _ExtractKey, typename _Equal,
1689:c:\program files\daisytoolchain\arm-none-eabi\include\c++\10.2.1\bits\hashtable.h **** 	   typename _H1, typename _H2, typename _Hash, typename _RehashPolicy,
1690:c:\program files\daisytoolchain\arm-none-eabi\include\c++\10.2.1\bits\hashtable.h **** 	   typename _Traits>
1691:c:\program files\daisytoolchain\arm-none-eabi\include\c++\10.2.1\bits\hashtable.h ****     template<typename... _Args>
1692:c:\program files\daisytoolchain\arm-none-eabi\include\c++\10.2.1\bits\hashtable.h ****       auto
1693:c:\program files\daisytoolchain\arm-none-eabi\include\c++\10.2.1\bits\hashtable.h ****       _Hashtable<_Key, _Value, _Alloc, _ExtractKey, _Equal,
1694:c:\program files\daisytoolchain\arm-none-eabi\include\c++\10.2.1\bits\hashtable.h **** 		 _H1, _H2, _Hash, _RehashPolicy, _Traits>::
1695:c:\program files\daisytoolchain\arm-none-eabi\include\c++\10.2.1\bits\hashtable.h ****       _M_emplace(const_iterator __hint, false_type, _Args&&... __args)
1696:c:\program files\daisytoolchain\arm-none-eabi\include\c++\10.2.1\bits\hashtable.h ****       -> iterator
1697:c:\program files\daisytoolchain\arm-none-eabi\include\c++\10.2.1\bits\hashtable.h ****       {
1698:c:\program files\daisytoolchain\arm-none-eabi\include\c++\10.2.1\bits\hashtable.h **** 	// First build the node to get its hash code.
1699:c:\program files\daisytoolchain\arm-none-eabi\include\c++\10.2.1\bits\hashtable.h **** 	_Scoped_node __node { this, std::forward<_Args>(__args)...  };
1700:c:\program files\daisytoolchain\arm-none-eabi\include\c++\10.2.1\bits\hashtable.h **** 	const key_type& __k = this->_M_extract()(__node._M_node->_M_v());
1701:c:\program files\daisytoolchain\arm-none-eabi\include\c++\10.2.1\bits\hashtable.h **** 
1702:c:\program files\daisytoolchain\arm-none-eabi\include\c++\10.2.1\bits\hashtable.h **** 	__hash_code __code = this->_M_hash_code(__k);
1703:c:\program files\daisytoolchain\arm-none-eabi\include\c++\10.2.1\bits\hashtable.h **** 	auto __pos
1704:c:\program files\daisytoolchain\arm-none-eabi\include\c++\10.2.1\bits\hashtable.h **** 	  = _M_insert_multi_node(__hint._M_cur, __k, __code, __node._M_node);
1705:c:\program files\daisytoolchain\arm-none-eabi\include\c++\10.2.1\bits\hashtable.h **** 	__node._M_node = nullptr;
1706:c:\program files\daisytoolchain\arm-none-eabi\include\c++\10.2.1\bits\hashtable.h **** 	return __pos;
1707:c:\program files\daisytoolchain\arm-none-eabi\include\c++\10.2.1\bits\hashtable.h ****       }
1708:c:\program files\daisytoolchain\arm-none-eabi\include\c++\10.2.1\bits\hashtable.h **** 
1709:c:\program files\daisytoolchain\arm-none-eabi\include\c++\10.2.1\bits\hashtable.h ****   template<typename _Key, typename _Value,
1710:c:\program files\daisytoolchain\arm-none-eabi\include\c++\10.2.1\bits\hashtable.h **** 	   typename _Alloc, typename _ExtractKey, typename _Equal,
1711:c:\program files\daisytoolchain\arm-none-eabi\include\c++\10.2.1\bits\hashtable.h **** 	   typename _H1, typename _H2, typename _Hash, typename _RehashPolicy,
1712:c:\program files\daisytoolchain\arm-none-eabi\include\c++\10.2.1\bits\hashtable.h **** 	   typename _Traits>
1713:c:\program files\daisytoolchain\arm-none-eabi\include\c++\10.2.1\bits\hashtable.h ****     auto
1714:c:\program files\daisytoolchain\arm-none-eabi\include\c++\10.2.1\bits\hashtable.h ****     _Hashtable<_Key, _Value, _Alloc, _ExtractKey, _Equal,
1715:c:\program files\daisytoolchain\arm-none-eabi\include\c++\10.2.1\bits\hashtable.h **** 	       _H1, _H2, _Hash, _RehashPolicy, _Traits>::
1716:c:\program files\daisytoolchain\arm-none-eabi\include\c++\10.2.1\bits\hashtable.h ****     _M_insert_unique_node(const key_type& __k, size_type __bkt,
1717:c:\program files\daisytoolchain\arm-none-eabi\include\c++\10.2.1\bits\hashtable.h **** 			  __hash_code __code, __node_type* __node,
1718:c:\program files\daisytoolchain\arm-none-eabi\include\c++\10.2.1\bits\hashtable.h **** 			  size_type __n_elt)
1719:c:\program files\daisytoolchain\arm-none-eabi\include\c++\10.2.1\bits\hashtable.h ****     -> iterator
ARM GAS  C:\Users\theja\AppData\Local\Temp\ccGbJAvD.s 			page 34


1720:c:\program files\daisytoolchain\arm-none-eabi\include\c++\10.2.1\bits\hashtable.h ****     {
1721:c:\program files\daisytoolchain\arm-none-eabi\include\c++\10.2.1\bits\hashtable.h ****       const __rehash_state& __saved_state = _M_rehash_policy._M_state();
1722:c:\program files\daisytoolchain\arm-none-eabi\include\c++\10.2.1\bits\hashtable.h ****       std::pair<bool, std::size_t> __do_rehash
1723:c:\program files\daisytoolchain\arm-none-eabi\include\c++\10.2.1\bits\hashtable.h **** 	= _M_rehash_policy._M_need_rehash(_M_bucket_count, _M_element_count,
1724:c:\program files\daisytoolchain\arm-none-eabi\include\c++\10.2.1\bits\hashtable.h **** 					  __n_elt);
1725:c:\program files\daisytoolchain\arm-none-eabi\include\c++\10.2.1\bits\hashtable.h **** 
1726:c:\program files\daisytoolchain\arm-none-eabi\include\c++\10.2.1\bits\hashtable.h ****       if (__do_rehash.first)
1727:c:\program files\daisytoolchain\arm-none-eabi\include\c++\10.2.1\bits\hashtable.h **** 	{
1728:c:\program files\daisytoolchain\arm-none-eabi\include\c++\10.2.1\bits\hashtable.h **** 	  _M_rehash(__do_rehash.second, __saved_state);
1729:c:\program files\daisytoolchain\arm-none-eabi\include\c++\10.2.1\bits\hashtable.h **** 	  __bkt = _M_bucket_index(__k, __code);
1730:c:\program files\daisytoolchain\arm-none-eabi\include\c++\10.2.1\bits\hashtable.h **** 	}
1731:c:\program files\daisytoolchain\arm-none-eabi\include\c++\10.2.1\bits\hashtable.h **** 
1732:c:\program files\daisytoolchain\arm-none-eabi\include\c++\10.2.1\bits\hashtable.h ****       this->_M_store_code(__node, __code);
1733:c:\program files\daisytoolchain\arm-none-eabi\include\c++\10.2.1\bits\hashtable.h **** 
1734:c:\program files\daisytoolchain\arm-none-eabi\include\c++\10.2.1\bits\hashtable.h ****       // Always insert at the beginning of the bucket.
1735:c:\program files\daisytoolchain\arm-none-eabi\include\c++\10.2.1\bits\hashtable.h ****       _M_insert_bucket_begin(__bkt, __node);
1736:c:\program files\daisytoolchain\arm-none-eabi\include\c++\10.2.1\bits\hashtable.h ****       ++_M_element_count;
1737:c:\program files\daisytoolchain\arm-none-eabi\include\c++\10.2.1\bits\hashtable.h ****       return iterator(__node);
1738:c:\program files\daisytoolchain\arm-none-eabi\include\c++\10.2.1\bits\hashtable.h ****     }
1739:c:\program files\daisytoolchain\arm-none-eabi\include\c++\10.2.1\bits\hashtable.h **** 
1740:c:\program files\daisytoolchain\arm-none-eabi\include\c++\10.2.1\bits\hashtable.h ****   template<typename _Key, typename _Value,
1741:c:\program files\daisytoolchain\arm-none-eabi\include\c++\10.2.1\bits\hashtable.h **** 	   typename _Alloc, typename _ExtractKey, typename _Equal,
1742:c:\program files\daisytoolchain\arm-none-eabi\include\c++\10.2.1\bits\hashtable.h **** 	   typename _H1, typename _H2, typename _Hash, typename _RehashPolicy,
1743:c:\program files\daisytoolchain\arm-none-eabi\include\c++\10.2.1\bits\hashtable.h **** 	   typename _Traits>
1744:c:\program files\daisytoolchain\arm-none-eabi\include\c++\10.2.1\bits\hashtable.h ****     auto
1745:c:\program files\daisytoolchain\arm-none-eabi\include\c++\10.2.1\bits\hashtable.h ****     _Hashtable<_Key, _Value, _Alloc, _ExtractKey, _Equal,
1746:c:\program files\daisytoolchain\arm-none-eabi\include\c++\10.2.1\bits\hashtable.h **** 	       _H1, _H2, _Hash, _RehashPolicy, _Traits>::
1747:c:\program files\daisytoolchain\arm-none-eabi\include\c++\10.2.1\bits\hashtable.h ****     _M_insert_multi_node(__node_type* __hint, const key_type& __k,
1748:c:\program files\daisytoolchain\arm-none-eabi\include\c++\10.2.1\bits\hashtable.h **** 			 __hash_code __code, __node_type* __node)
1749:c:\program files\daisytoolchain\arm-none-eabi\include\c++\10.2.1\bits\hashtable.h ****     -> iterator
1750:c:\program files\daisytoolchain\arm-none-eabi\include\c++\10.2.1\bits\hashtable.h ****     {
1751:c:\program files\daisytoolchain\arm-none-eabi\include\c++\10.2.1\bits\hashtable.h ****       const __rehash_state& __saved_state = _M_rehash_policy._M_state();
1752:c:\program files\daisytoolchain\arm-none-eabi\include\c++\10.2.1\bits\hashtable.h ****       std::pair<bool, std::size_t> __do_rehash
1753:c:\program files\daisytoolchain\arm-none-eabi\include\c++\10.2.1\bits\hashtable.h **** 	= _M_rehash_policy._M_need_rehash(_M_bucket_count, _M_element_count, 1);
1754:c:\program files\daisytoolchain\arm-none-eabi\include\c++\10.2.1\bits\hashtable.h **** 
1755:c:\program files\daisytoolchain\arm-none-eabi\include\c++\10.2.1\bits\hashtable.h ****       if (__do_rehash.first)
1756:c:\program files\daisytoolchain\arm-none-eabi\include\c++\10.2.1\bits\hashtable.h **** 	_M_rehash(__do_rehash.second, __saved_state);
1757:c:\program files\daisytoolchain\arm-none-eabi\include\c++\10.2.1\bits\hashtable.h **** 
1758:c:\program files\daisytoolchain\arm-none-eabi\include\c++\10.2.1\bits\hashtable.h ****       this->_M_store_code(__node, __code);
1759:c:\program files\daisytoolchain\arm-none-eabi\include\c++\10.2.1\bits\hashtable.h ****       size_type __bkt = _M_bucket_index(__k, __code);
1760:c:\program files\daisytoolchain\arm-none-eabi\include\c++\10.2.1\bits\hashtable.h **** 
1761:c:\program files\daisytoolchain\arm-none-eabi\include\c++\10.2.1\bits\hashtable.h ****       // Find the node before an equivalent one or use hint if it exists and
1762:c:\program files\daisytoolchain\arm-none-eabi\include\c++\10.2.1\bits\hashtable.h ****       // if it is equivalent.
1763:c:\program files\daisytoolchain\arm-none-eabi\include\c++\10.2.1\bits\hashtable.h ****       __node_base* __prev
1764:c:\program files\daisytoolchain\arm-none-eabi\include\c++\10.2.1\bits\hashtable.h **** 	= __builtin_expect(__hint != nullptr, false)
1765:c:\program files\daisytoolchain\arm-none-eabi\include\c++\10.2.1\bits\hashtable.h **** 	  && this->_M_equals(__k, __code, __hint)
1766:c:\program files\daisytoolchain\arm-none-eabi\include\c++\10.2.1\bits\hashtable.h **** 	    ? __hint
1767:c:\program files\daisytoolchain\arm-none-eabi\include\c++\10.2.1\bits\hashtable.h **** 	    : _M_find_before_node(__bkt, __k, __code);
1768:c:\program files\daisytoolchain\arm-none-eabi\include\c++\10.2.1\bits\hashtable.h ****       if (__prev)
1769:c:\program files\daisytoolchain\arm-none-eabi\include\c++\10.2.1\bits\hashtable.h **** 	{
1770:c:\program files\daisytoolchain\arm-none-eabi\include\c++\10.2.1\bits\hashtable.h **** 	  // Insert after the node before the equivalent one.
1771:c:\program files\daisytoolchain\arm-none-eabi\include\c++\10.2.1\bits\hashtable.h **** 	  __node->_M_nxt = __prev->_M_nxt;
1772:c:\program files\daisytoolchain\arm-none-eabi\include\c++\10.2.1\bits\hashtable.h **** 	  __prev->_M_nxt = __node;
1773:c:\program files\daisytoolchain\arm-none-eabi\include\c++\10.2.1\bits\hashtable.h **** 	  if (__builtin_expect(__prev == __hint, false))
1774:c:\program files\daisytoolchain\arm-none-eabi\include\c++\10.2.1\bits\hashtable.h **** 	    // hint might be the last bucket node, in this case we need to
1775:c:\program files\daisytoolchain\arm-none-eabi\include\c++\10.2.1\bits\hashtable.h **** 	    // update next bucket.
1776:c:\program files\daisytoolchain\arm-none-eabi\include\c++\10.2.1\bits\hashtable.h **** 	    if (__node->_M_nxt
ARM GAS  C:\Users\theja\AppData\Local\Temp\ccGbJAvD.s 			page 35


1777:c:\program files\daisytoolchain\arm-none-eabi\include\c++\10.2.1\bits\hashtable.h **** 		&& !this->_M_equals(__k, __code, __node->_M_next()))
1778:c:\program files\daisytoolchain\arm-none-eabi\include\c++\10.2.1\bits\hashtable.h **** 	      {
1779:c:\program files\daisytoolchain\arm-none-eabi\include\c++\10.2.1\bits\hashtable.h **** 		size_type __next_bkt = _M_bucket_index(__node->_M_next());
1780:c:\program files\daisytoolchain\arm-none-eabi\include\c++\10.2.1\bits\hashtable.h **** 		if (__next_bkt != __bkt)
1781:c:\program files\daisytoolchain\arm-none-eabi\include\c++\10.2.1\bits\hashtable.h **** 		  _M_buckets[__next_bkt] = __node;
1782:c:\program files\daisytoolchain\arm-none-eabi\include\c++\10.2.1\bits\hashtable.h **** 	      }
1783:c:\program files\daisytoolchain\arm-none-eabi\include\c++\10.2.1\bits\hashtable.h **** 	}
1784:c:\program files\daisytoolchain\arm-none-eabi\include\c++\10.2.1\bits\hashtable.h ****       else
1785:c:\program files\daisytoolchain\arm-none-eabi\include\c++\10.2.1\bits\hashtable.h **** 	// The inserted node has no equivalent in the hashtable. We must
1786:c:\program files\daisytoolchain\arm-none-eabi\include\c++\10.2.1\bits\hashtable.h **** 	// insert the new node at the beginning of the bucket to preserve
1787:c:\program files\daisytoolchain\arm-none-eabi\include\c++\10.2.1\bits\hashtable.h **** 	// equivalent elements' relative positions.
1788:c:\program files\daisytoolchain\arm-none-eabi\include\c++\10.2.1\bits\hashtable.h **** 	_M_insert_bucket_begin(__bkt, __node);
1789:c:\program files\daisytoolchain\arm-none-eabi\include\c++\10.2.1\bits\hashtable.h ****       ++_M_element_count;
1790:c:\program files\daisytoolchain\arm-none-eabi\include\c++\10.2.1\bits\hashtable.h ****       return iterator(__node);
1791:c:\program files\daisytoolchain\arm-none-eabi\include\c++\10.2.1\bits\hashtable.h ****     }
1792:c:\program files\daisytoolchain\arm-none-eabi\include\c++\10.2.1\bits\hashtable.h **** 
1793:c:\program files\daisytoolchain\arm-none-eabi\include\c++\10.2.1\bits\hashtable.h ****   // Insert v if no element with its key is already present.
1794:c:\program files\daisytoolchain\arm-none-eabi\include\c++\10.2.1\bits\hashtable.h ****   template<typename _Key, typename _Value,
1795:c:\program files\daisytoolchain\arm-none-eabi\include\c++\10.2.1\bits\hashtable.h **** 	   typename _Alloc, typename _ExtractKey, typename _Equal,
1796:c:\program files\daisytoolchain\arm-none-eabi\include\c++\10.2.1\bits\hashtable.h **** 	   typename _H1, typename _H2, typename _Hash, typename _RehashPolicy,
1797:c:\program files\daisytoolchain\arm-none-eabi\include\c++\10.2.1\bits\hashtable.h **** 	   typename _Traits>
1798:c:\program files\daisytoolchain\arm-none-eabi\include\c++\10.2.1\bits\hashtable.h ****     template<typename _Arg, typename _NodeGenerator>
1799:c:\program files\daisytoolchain\arm-none-eabi\include\c++\10.2.1\bits\hashtable.h ****       auto
1800:c:\program files\daisytoolchain\arm-none-eabi\include\c++\10.2.1\bits\hashtable.h ****       _Hashtable<_Key, _Value, _Alloc, _ExtractKey, _Equal,
1801:c:\program files\daisytoolchain\arm-none-eabi\include\c++\10.2.1\bits\hashtable.h **** 		 _H1, _H2, _Hash, _RehashPolicy, _Traits>::
1802:c:\program files\daisytoolchain\arm-none-eabi\include\c++\10.2.1\bits\hashtable.h ****       _M_insert(_Arg&& __v, const _NodeGenerator& __node_gen, true_type,
1803:c:\program files\daisytoolchain\arm-none-eabi\include\c++\10.2.1\bits\hashtable.h **** 		size_type __n_elt)
1804:c:\program files\daisytoolchain\arm-none-eabi\include\c++\10.2.1\bits\hashtable.h ****       -> pair<iterator, bool>
1805:c:\program files\daisytoolchain\arm-none-eabi\include\c++\10.2.1\bits\hashtable.h ****       {
1806:c:\program files\daisytoolchain\arm-none-eabi\include\c++\10.2.1\bits\hashtable.h **** 	const key_type& __k = this->_M_extract()(__v);
1807:c:\program files\daisytoolchain\arm-none-eabi\include\c++\10.2.1\bits\hashtable.h **** 	__hash_code __code = this->_M_hash_code(__k);
1808:c:\program files\daisytoolchain\arm-none-eabi\include\c++\10.2.1\bits\hashtable.h **** 	size_type __bkt = _M_bucket_index(__k, __code);
1809:c:\program files\daisytoolchain\arm-none-eabi\include\c++\10.2.1\bits\hashtable.h **** 
1810:c:\program files\daisytoolchain\arm-none-eabi\include\c++\10.2.1\bits\hashtable.h **** 	if (__node_type* __node = _M_find_node(__bkt, __k, __code))
1811:c:\program files\daisytoolchain\arm-none-eabi\include\c++\10.2.1\bits\hashtable.h **** 	  return { iterator(__node), false };
1812:c:\program files\daisytoolchain\arm-none-eabi\include\c++\10.2.1\bits\hashtable.h **** 
1813:c:\program files\daisytoolchain\arm-none-eabi\include\c++\10.2.1\bits\hashtable.h **** 	_Scoped_node __node{ __node_gen(std::forward<_Arg>(__v)), this };
1814:c:\program files\daisytoolchain\arm-none-eabi\include\c++\10.2.1\bits\hashtable.h **** 	auto __pos
1815:c:\program files\daisytoolchain\arm-none-eabi\include\c++\10.2.1\bits\hashtable.h **** 	  = _M_insert_unique_node(__k, __bkt, __code, __node._M_node, __n_elt);
1816:c:\program files\daisytoolchain\arm-none-eabi\include\c++\10.2.1\bits\hashtable.h **** 	__node._M_node = nullptr;
1817:c:\program files\daisytoolchain\arm-none-eabi\include\c++\10.2.1\bits\hashtable.h **** 	return { __pos, true };
1818:c:\program files\daisytoolchain\arm-none-eabi\include\c++\10.2.1\bits\hashtable.h ****       }
1819:c:\program files\daisytoolchain\arm-none-eabi\include\c++\10.2.1\bits\hashtable.h **** 
1820:c:\program files\daisytoolchain\arm-none-eabi\include\c++\10.2.1\bits\hashtable.h ****   // Insert v unconditionally.
1821:c:\program files\daisytoolchain\arm-none-eabi\include\c++\10.2.1\bits\hashtable.h ****   template<typename _Key, typename _Value,
1822:c:\program files\daisytoolchain\arm-none-eabi\include\c++\10.2.1\bits\hashtable.h **** 	   typename _Alloc, typename _ExtractKey, typename _Equal,
1823:c:\program files\daisytoolchain\arm-none-eabi\include\c++\10.2.1\bits\hashtable.h **** 	   typename _H1, typename _H2, typename _Hash, typename _RehashPolicy,
1824:c:\program files\daisytoolchain\arm-none-eabi\include\c++\10.2.1\bits\hashtable.h **** 	   typename _Traits>
1825:c:\program files\daisytoolchain\arm-none-eabi\include\c++\10.2.1\bits\hashtable.h ****     template<typename _Arg, typename _NodeGenerator>
1826:c:\program files\daisytoolchain\arm-none-eabi\include\c++\10.2.1\bits\hashtable.h ****       auto
1827:c:\program files\daisytoolchain\arm-none-eabi\include\c++\10.2.1\bits\hashtable.h ****       _Hashtable<_Key, _Value, _Alloc, _ExtractKey, _Equal,
1828:c:\program files\daisytoolchain\arm-none-eabi\include\c++\10.2.1\bits\hashtable.h **** 		 _H1, _H2, _Hash, _RehashPolicy, _Traits>::
1829:c:\program files\daisytoolchain\arm-none-eabi\include\c++\10.2.1\bits\hashtable.h ****       _M_insert(const_iterator __hint, _Arg&& __v,
1830:c:\program files\daisytoolchain\arm-none-eabi\include\c++\10.2.1\bits\hashtable.h **** 		const _NodeGenerator& __node_gen, false_type)
1831:c:\program files\daisytoolchain\arm-none-eabi\include\c++\10.2.1\bits\hashtable.h ****       -> iterator
1832:c:\program files\daisytoolchain\arm-none-eabi\include\c++\10.2.1\bits\hashtable.h ****       {
1833:c:\program files\daisytoolchain\arm-none-eabi\include\c++\10.2.1\bits\hashtable.h **** 	// First compute the hash code so that we don't do anything if it
ARM GAS  C:\Users\theja\AppData\Local\Temp\ccGbJAvD.s 			page 36


1834:c:\program files\daisytoolchain\arm-none-eabi\include\c++\10.2.1\bits\hashtable.h **** 	// throws.
