ARM GAS  C:\Users\theja\AppData\Local\Temp\ccQkboaj.s 			page 1


   1              		.cpu cortex-m7
   2              		.eabi_attribute 28, 1
   3              		.eabi_attribute 20, 1
   4              		.eabi_attribute 21, 1
   5              		.eabi_attribute 23, 3
   6              		.eabi_attribute 24, 1
   7              		.eabi_attribute 25, 1
   8              		.eabi_attribute 26, 1
   9              		.eabi_attribute 30, 2
  10              		.eabi_attribute 34, 1
  11              		.eabi_attribute 18, 4
  12              		.file	"DrumSynth.cpp"
  13              		.text
  14              	.Ltext0:
  15              		.cfi_sections	.debug_frame
  16              		.section	.text._ZN9DrumSynthC2Ef,"ax",%progbits
  17              		.align	1
  18              		.p2align 2,,3
  19              		.global	_ZN9DrumSynthC2Ef
  20              		.arch armv7e-m
  21              		.syntax unified
  22              		.thumb
  23              		.thumb_func
  24              		.fpu fpv5-d16
  26              	_ZN9DrumSynthC2Ef:
  27              	.LVL0:
  28              	.LFB3527:
  29              		.file 1 "DrumSynth.cpp"
   1:DrumSynth.cpp **** /*
   2:DrumSynth.cpp **** GNU General Public License v3.0
   3:DrumSynth.cpp **** Author: Jack Payne
   4:DrumSynth.cpp **** 
   5:DrumSynth.cpp ****  _______             __                                __                                  __ 
   6:DrumSynth.cpp **** /       \           /  |                              /  |                                /  |
   7:DrumSynth.cpp **** BBBBBBB  |  ______  BB/  ________   ______    _______ BB |____    ______    ______    ____BB |
   8:DrumSynth.cpp **** BB |__BB | /      \ /  |/        | /      \  /       |BB      \  /      \  /      \  /    BB |
   9:DrumSynth.cpp **** BB    BB< /BBBBBB  |BB |BBBBBBBB/  BBBBBB  |/BBBBBBB/ BBBBBBB  |/BBBBBB  |/BBBBBB  |/BBBBBBB |
  10:DrumSynth.cpp **** BBBBBBB  |BB |  BB/ BB |  /  BB/   /    BB |BB |      BB |  BB |BB |  BB |BB |  BB/ BB |  BB |
  11:DrumSynth.cpp **** BB |__BB |BB |      BB | /BBBB/__ /BBBBBBB |BB \_____ BB |  BB |BB \__BB |BB |      BB \__BB |
  12:DrumSynth.cpp **** BB    BB/ BB |      BB |/BB      |BB    BB |BB       |BB |  BB |BB    BB/ BB |      BB    BB |
  13:DrumSynth.cpp **** BBBBBBB/  BB/       BB/ BBBBBBBB/  BBBBBBB/  BBBBBBB/ BB/   BB/  BBBBBB/  BB/        BBBBBBB/	v1.0
  14:DrumSynth.cpp **** */
  15:DrumSynth.cpp **** 
  16:DrumSynth.cpp **** #include "DrumSynth.h"
  17:DrumSynth.cpp **** 
  18:DrumSynth.cpp **** DrumSynth::DrumSynth(float sample_rate) {
  30              		.loc 1 18 1 view -0
  31              		.cfi_startproc
  32              		@ args = 0, pretend = 0, frame = 8
  33              		@ frame_needed = 0, uses_anonymous_args = 0
  34              		.loc 1 18 1 is_stmt 0 view .LVU1
  35 0000 2DE9F041 		push	{r4, r5, r6, r7, r8, lr}
  36              		.cfi_def_cfa_offset 24
  37              		.cfi_offset 4, -24
  38              		.cfi_offset 5, -20
  39              		.cfi_offset 6, -16
  40              		.cfi_offset 7, -12
ARM GAS  C:\Users\theja\AppData\Local\Temp\ccQkboaj.s 			page 2


  41              		.cfi_offset 8, -8
  42              		.cfi_offset 14, -4
  43 0004 2DED048B 		vpush.64	{d8, d9}
  44              		.cfi_def_cfa_offset 40
  45              		.cfi_offset 80, -40
  46              		.cfi_offset 81, -36
  47              		.cfi_offset 82, -32
  48              		.cfi_offset 83, -28
  49              	.LBB76:
  50              	.LBB77:
  51              	.LBB78:
  52              		.file 2 "../../DaisySP//Source/Synthesis/oscillator.h"
   1:../../DaisySP//Source/Synthesis/oscillator.h **** /*
   2:../../DaisySP//Source/Synthesis/oscillator.h **** Copyright (c) 2020 Electrosmith, Corp
   3:../../DaisySP//Source/Synthesis/oscillator.h **** 
   4:../../DaisySP//Source/Synthesis/oscillator.h **** Use of this source code is governed by an MIT-style
   5:../../DaisySP//Source/Synthesis/oscillator.h **** license that can be found in the LICENSE file or at
   6:../../DaisySP//Source/Synthesis/oscillator.h **** https://opensource.org/licenses/MIT.
   7:../../DaisySP//Source/Synthesis/oscillator.h **** */
   8:../../DaisySP//Source/Synthesis/oscillator.h **** 
   9:../../DaisySP//Source/Synthesis/oscillator.h **** #pragma once
  10:../../DaisySP//Source/Synthesis/oscillator.h **** #ifndef DSY_OSCILLATOR_H
  11:../../DaisySP//Source/Synthesis/oscillator.h **** #define DSY_OSCILLATOR_H
  12:../../DaisySP//Source/Synthesis/oscillator.h **** #include <stdint.h>
  13:../../DaisySP//Source/Synthesis/oscillator.h **** #include "Utility/dsp.h"
  14:../../DaisySP//Source/Synthesis/oscillator.h **** #ifdef __cplusplus
  15:../../DaisySP//Source/Synthesis/oscillator.h **** 
  16:../../DaisySP//Source/Synthesis/oscillator.h **** namespace daisysp
  17:../../DaisySP//Source/Synthesis/oscillator.h **** {
  18:../../DaisySP//Source/Synthesis/oscillator.h **** /** Synthesis of several waveforms, including polyBLEP bandlimited waveforms.
  19:../../DaisySP//Source/Synthesis/oscillator.h **** */
  20:../../DaisySP//Source/Synthesis/oscillator.h **** class Oscillator
  21:../../DaisySP//Source/Synthesis/oscillator.h **** {
  22:../../DaisySP//Source/Synthesis/oscillator.h ****   public:
  23:../../DaisySP//Source/Synthesis/oscillator.h ****     Oscillator() {}
  24:../../DaisySP//Source/Synthesis/oscillator.h ****     ~Oscillator() {}
  25:../../DaisySP//Source/Synthesis/oscillator.h ****     /** Choices for output waveforms, POLYBLEP are appropriately labeled. Others are naive forms.
  26:../../DaisySP//Source/Synthesis/oscillator.h ****     */
  27:../../DaisySP//Source/Synthesis/oscillator.h ****     enum
  28:../../DaisySP//Source/Synthesis/oscillator.h ****     {
  29:../../DaisySP//Source/Synthesis/oscillator.h ****         WAVE_SIN,
  30:../../DaisySP//Source/Synthesis/oscillator.h ****         WAVE_TRI,
  31:../../DaisySP//Source/Synthesis/oscillator.h ****         WAVE_SAW,
  32:../../DaisySP//Source/Synthesis/oscillator.h ****         WAVE_RAMP,
  33:../../DaisySP//Source/Synthesis/oscillator.h ****         WAVE_SQUARE,
  34:../../DaisySP//Source/Synthesis/oscillator.h ****         WAVE_POLYBLEP_TRI,
  35:../../DaisySP//Source/Synthesis/oscillator.h ****         WAVE_POLYBLEP_SAW,
  36:../../DaisySP//Source/Synthesis/oscillator.h ****         WAVE_POLYBLEP_SQUARE,
  37:../../DaisySP//Source/Synthesis/oscillator.h ****         WAVE_LAST,
  38:../../DaisySP//Source/Synthesis/oscillator.h ****     };
  39:../../DaisySP//Source/Synthesis/oscillator.h **** 
  40:../../DaisySP//Source/Synthesis/oscillator.h **** 
  41:../../DaisySP//Source/Synthesis/oscillator.h ****     /** Initializes the Oscillator
  42:../../DaisySP//Source/Synthesis/oscillator.h **** 
  43:../../DaisySP//Source/Synthesis/oscillator.h ****         \param sample_rate - sample rate of the audio engine being run, and the frequency that the 
  44:../../DaisySP//Source/Synthesis/oscillator.h **** 
  45:../../DaisySP//Source/Synthesis/oscillator.h ****         Defaults:
ARM GAS  C:\Users\theja\AppData\Local\Temp\ccQkboaj.s 			page 3


  46:../../DaisySP//Source/Synthesis/oscillator.h ****         - freq_ = 100 Hz
  47:../../DaisySP//Source/Synthesis/oscillator.h ****         - amp_ = 0.5
  48:../../DaisySP//Source/Synthesis/oscillator.h ****         - waveform_ = sine wave.
  49:../../DaisySP//Source/Synthesis/oscillator.h ****     */
  50:../../DaisySP//Source/Synthesis/oscillator.h ****     void Init(float sample_rate)
  51:../../DaisySP//Source/Synthesis/oscillator.h ****     {
  52:../../DaisySP//Source/Synthesis/oscillator.h ****         sr_        = sample_rate;
  53:../../DaisySP//Source/Synthesis/oscillator.h ****         sr_recip_  = 1.0f / sample_rate;
  53              		.loc 2 53 27 view .LVU2
  54 0008 B7EE009A 		vmov.f32	s18, #1.0e+0
  55              	.LBE78:
  56              	.LBE77:
  57              		.loc 1 18 39 view .LVU3
  58 000c 5E4B     		ldr	r3, .L4
  59              	.LBE76:
  60              		.loc 1 18 1 view .LVU4
  61 000e B0EE408A 		vmov.f32	s16, s0
  62              	.LBB139:
  63              		.loc 1 18 39 view .LVU5
  64 0012 0025     		movs	r5, #0
  65 0014 C0F8A430 		str	r3, [r0, #164]	@ float
  66 0018 0026     		movs	r6, #0
  67              	.LBB87:
  68              	.LBB79:
  69              		.loc 2 53 27 view .LVU6
  70 001a C9EE009A 		vdiv.f32	s19, s18, s0
  71              	.LBE79:
  72              	.LBE87:
  73              		.loc 1 18 39 view .LVU7
  74 001e 5B4B     		ldr	r3, .L4+4
  75              	.LBB88:
  76              	.LBB80:
  54:../../DaisySP//Source/Synthesis/oscillator.h ****         freq_      = 100.0f;
  77              		.loc 2 54 20 view .LVU8
  78 0020 DFED5B8A 		vldr.32	s17, .L4+8
  55:../../DaisySP//Source/Synthesis/oscillator.h ****         amp_       = 0.5f;
  79              		.loc 2 55 20 view .LVU9
  80 0024 4FF07C57 		mov	r7, #1056964608
  81              	.LBE80:
  82              	.LBE88:
  83              		.loc 1 18 39 view .LVU10
  84 0028 C0F8E030 		str	r3, [r0, #224]	@ float
  85              	.LBE139:
  86              		.loc 1 18 1 view .LVU11
  87 002c 82B0     		sub	sp, sp, #8
  88              		.cfi_def_cfa_offset 48
  89              	.LBB140:
  90              		.loc 1 18 39 view .LVU12
  91 002e 594B     		ldr	r3, .L4+12
  92              	.LBE140:
  93              		.loc 1 18 1 view .LVU13
  94 0030 0446     		mov	r4, r0
  95              	.LVL1:
  96              	.LBB141:
  97              	.LBB89:
  98              	.LBI89:
  23:../../DaisySP//Source/Synthesis/oscillator.h ****     ~Oscillator() {}
ARM GAS  C:\Users\theja\AppData\Local\Temp\ccQkboaj.s 			page 4


  99              		.loc 2 23 5 is_stmt 1 view .LVU14
  23:../../DaisySP//Source/Synthesis/oscillator.h ****     ~Oscillator() {}
 100              		.loc 2 23 5 is_stmt 0 view .LVU15
 101              	.LBE89:
 102              	.LBB90:
 103              	.LBI90:
 104              		.file 3 "../../DaisySP//Source/Control/adenv.h"
   1:../../DaisySP//Source/Control/adenv.h **** /*
   2:../../DaisySP//Source/Control/adenv.h **** Copyright (c) 2020 Electrosmith, Corp
   3:../../DaisySP//Source/Control/adenv.h **** 
   4:../../DaisySP//Source/Control/adenv.h **** Use of this source code is governed by an MIT-style
   5:../../DaisySP//Source/Control/adenv.h **** license that can be found in the LICENSE file or at
   6:../../DaisySP//Source/Control/adenv.h **** https://opensource.org/licenses/MIT.
   7:../../DaisySP//Source/Control/adenv.h **** */
   8:../../DaisySP//Source/Control/adenv.h **** 
   9:../../DaisySP//Source/Control/adenv.h **** #pragma once
  10:../../DaisySP//Source/Control/adenv.h **** #ifndef ADENV_H
  11:../../DaisySP//Source/Control/adenv.h **** #define ADENV_H
  12:../../DaisySP//Source/Control/adenv.h **** #include <stdint.h>
  13:../../DaisySP//Source/Control/adenv.h **** #ifdef __cplusplus
  14:../../DaisySP//Source/Control/adenv.h **** 
  15:../../DaisySP//Source/Control/adenv.h **** namespace daisysp
  16:../../DaisySP//Source/Control/adenv.h **** {
  17:../../DaisySP//Source/Control/adenv.h **** /** Distinct stages that the phase of the envelope can be located in.
  18:../../DaisySP//Source/Control/adenv.h ****     @see AdEnv
  19:../../DaisySP//Source/Control/adenv.h **** */
  20:../../DaisySP//Source/Control/adenv.h **** enum AdEnvSegment
  21:../../DaisySP//Source/Control/adenv.h **** {
  22:../../DaisySP//Source/Control/adenv.h ****     /** located at phase location 0, and not currently running */
  23:../../DaisySP//Source/Control/adenv.h ****     ADENV_SEG_IDLE,
  24:../../DaisySP//Source/Control/adenv.h ****     /** First segment of envelope where phase moves from MIN value to MAX value */
  25:../../DaisySP//Source/Control/adenv.h ****     ADENV_SEG_ATTACK,
  26:../../DaisySP//Source/Control/adenv.h ****     /** Second segment of envelope where phase moves from MAX to MIN value */
  27:../../DaisySP//Source/Control/adenv.h ****     ADENV_SEG_DECAY,
  28:../../DaisySP//Source/Control/adenv.h ****     /** The final segment of the envelope (currently decay) */
  29:../../DaisySP//Source/Control/adenv.h ****     ADENV_SEG_LAST,
  30:../../DaisySP//Source/Control/adenv.h **** };
  31:../../DaisySP//Source/Control/adenv.h **** 
  32:../../DaisySP//Source/Control/adenv.h **** /** Trigger-able envelope with adjustable min/max, and independent per-segment time control.
  33:../../DaisySP//Source/Control/adenv.h **** 
  34:../../DaisySP//Source/Control/adenv.h ****     \author shensley
  35:../../DaisySP//Source/Control/adenv.h ****     \todo - Add Cycling
  36:../../DaisySP//Source/Control/adenv.h ****     \todo - Implement Curve (its only linear for now).
  37:../../DaisySP//Source/Control/adenv.h ****     \todo - Maybe make this an ADsr_ that has AD/AR/Asr_ modes.
  38:../../DaisySP//Source/Control/adenv.h ****  */
  39:../../DaisySP//Source/Control/adenv.h **** class AdEnv
  40:../../DaisySP//Source/Control/adenv.h **** {
  41:../../DaisySP//Source/Control/adenv.h ****   public:
  42:../../DaisySP//Source/Control/adenv.h ****     AdEnv() {}
 105              		.loc 3 42 5 is_stmt 1 view .LVU16
 106              		.loc 3 42 5 is_stmt 0 view .LVU17
 107              	.LBE90:
 108              	.LBB91:
 109              	.LBI91:
 110              		.loc 3 42 5 is_stmt 1 view .LVU18
 111              		.loc 3 42 5 is_stmt 0 view .LVU19
 112              	.LBE91:
ARM GAS  C:\Users\theja\AppData\Local\Temp\ccQkboaj.s 			page 5


 113              		.loc 1 18 39 view .LVU20
 114 0032 C0F8A850 		str	r5, [r0, #168]	@ float
 115              	.LBB92:
 116              	.LBB81:
  56:../../DaisySP//Source/Synthesis/oscillator.h ****         pw_        = 0.5f;
  57:../../DaisySP//Source/Synthesis/oscillator.h ****         phase_     = 0.0f;
  58:../../DaisySP//Source/Synthesis/oscillator.h ****         phase_inc_ = CalcPhaseInc(freq_);
  59:../../DaisySP//Source/Synthesis/oscillator.h ****         waveform_  = WAVE_SIN;
  60:../../DaisySP//Source/Synthesis/oscillator.h ****         eoc_       = true;
  61:../../DaisySP//Source/Synthesis/oscillator.h ****         eor_       = true;
 117              		.loc 2 61 20 view .LVU21
 118 0036 40F20118 		movw	r8, #257
 119              	.LBE81:
 120              	.LBE92:
 121              		.loc 1 18 39 view .LVU22
 122 003a C0F88831 		str	r3, [r0, #392]	@ float
 123              	.LBB93:
 124              	.LBB82:
  58:../../DaisySP//Source/Synthesis/oscillator.h ****         waveform_  = WAVE_SIN;
 125              		.loc 2 58 34 view .LVU23
 126 003e B0EE680A 		vmov.f32	s0, s17
 127              	.LVL2:
  58:../../DaisySP//Source/Synthesis/oscillator.h ****         waveform_  = WAVE_SIN;
 128              		.loc 2 58 34 view .LVU24
 129              	.LBE82:
 130              	.LBE93:
 131              		.loc 1 18 39 view .LVU25
 132 0042 80F8A060 		strb	r6, [r0, #160]
 133 0046 C0F8AC50 		str	r5, [r0, #172]	@ float
 134              	.LVL3:
 135              	.LBB94:
 136              	.LBI94:
  23:../../DaisySP//Source/Synthesis/oscillator.h ****     ~Oscillator() {}
 137              		.loc 2 23 5 is_stmt 1 view .LVU26
  23:../../DaisySP//Source/Synthesis/oscillator.h ****     ~Oscillator() {}
 138              		.loc 2 23 5 is_stmt 0 view .LVU27
 139              	.LBE94:
 140              		.loc 1 18 39 view .LVU28
 141 004a 80F8DC60 		strb	r6, [r0, #220]
 142 004e C0F8E450 		str	r5, [r0, #228]	@ float
 143 0052 C0F8E850 		str	r5, [r0, #232]	@ float
 144              	.LVL4:
 145              	.LBB95:
 146              	.LBI95:
 147              		.file 4 "../../DaisySP//Source/Filters/svf.h"
   1:../../DaisySP//Source/Filters/svf.h **** /*
   2:../../DaisySP//Source/Filters/svf.h **** Copyright (c) 2020 Electrosmith, Corp
   3:../../DaisySP//Source/Filters/svf.h **** 
   4:../../DaisySP//Source/Filters/svf.h **** Use of this source code is governed by an MIT-style
   5:../../DaisySP//Source/Filters/svf.h **** license that can be found in the LICENSE file or at
   6:../../DaisySP//Source/Filters/svf.h **** https://opensource.org/licenses/MIT.
   7:../../DaisySP//Source/Filters/svf.h **** */
   8:../../DaisySP//Source/Filters/svf.h **** 
   9:../../DaisySP//Source/Filters/svf.h **** #pragma once
  10:../../DaisySP//Source/Filters/svf.h **** #ifndef DSY_SVF_H
  11:../../DaisySP//Source/Filters/svf.h **** #define DSY_SVF_H
  12:../../DaisySP//Source/Filters/svf.h **** 
ARM GAS  C:\Users\theja\AppData\Local\Temp\ccQkboaj.s 			page 6


  13:../../DaisySP//Source/Filters/svf.h **** namespace daisysp
  14:../../DaisySP//Source/Filters/svf.h **** {
  15:../../DaisySP//Source/Filters/svf.h **** /**      Double Sampled, Stable State Variable Filter
  16:../../DaisySP//Source/Filters/svf.h **** 
  17:../../DaisySP//Source/Filters/svf.h **** Credit to Andrew Simper from musicdsp.org
  18:../../DaisySP//Source/Filters/svf.h **** 
  19:../../DaisySP//Source/Filters/svf.h **** This is his "State Variable Filter (Double Sampled, Stable)"
  20:../../DaisySP//Source/Filters/svf.h **** 
  21:../../DaisySP//Source/Filters/svf.h **** Additional thanks to Laurent de Soras for stability limit, and 
  22:../../DaisySP//Source/Filters/svf.h **** Stefan Diedrichsen for the correct notch output
  23:../../DaisySP//Source/Filters/svf.h **** 
  24:../../DaisySP//Source/Filters/svf.h **** Ported by: Stephen Hensley
  25:../../DaisySP//Source/Filters/svf.h **** */
  26:../../DaisySP//Source/Filters/svf.h **** class Svf
  27:../../DaisySP//Source/Filters/svf.h **** {
  28:../../DaisySP//Source/Filters/svf.h ****   public:
  29:../../DaisySP//Source/Filters/svf.h ****     Svf() {}
 148              		.loc 4 29 5 is_stmt 1 view .LVU29
 149              		.loc 4 29 5 is_stmt 0 view .LVU30
 150              	.LBE95:
 151              	.LBB96:
 152              	.LBI96:
 153              		.loc 4 29 5 is_stmt 1 view .LVU31
 154              		.loc 4 29 5 is_stmt 0 view .LVU32
 155              	.LBE96:
 156              		.loc 1 18 39 view .LVU33
 157 0056 80F88461 		strb	r6, [r0, #388]
 158 005a C0F88C51 		str	r5, [r0, #396]	@ float
 159 005e C0F89051 		str	r5, [r0, #400]	@ float
 160              	.LVL5:
 161              	.LBB97:
 162              	.LBI97:
 163              		.loc 4 29 5 is_stmt 1 view .LVU34
 164              		.loc 4 29 5 is_stmt 0 view .LVU35
 165              	.LBE97:
 166              	.LBB98:
 167              	.LBI98:
 168              		.loc 4 29 5 is_stmt 1 view .LVU36
 169              		.loc 4 29 5 is_stmt 0 view .LVU37
 170              	.LBE98:
  19:DrumSynth.cpp ****     this->sample_rate = sample_rate;
 171              		.loc 1 19 5 is_stmt 1 view .LVU38
 172              		.loc 1 19 23 is_stmt 0 view .LVU39
 173 0062 80ED278A 		vstr.32	s16, [r0, #156]
  20:DrumSynth.cpp **** 
  21:DrumSynth.cpp ****     // Initialize the kick osc
  22:DrumSynth.cpp ****     //===============================================
  23:DrumSynth.cpp ****     kick_osc.Init(sample_rate);
 174              		.loc 1 23 5 is_stmt 1 view .LVU40
 175              	.LVL6:
 176              	.LBB99:
 177              	.LBI77:
  50:../../DaisySP//Source/Synthesis/oscillator.h ****     {
 178              		.loc 2 50 10 view .LVU41
 179              	.LBB83:
  52:../../DaisySP//Source/Synthesis/oscillator.h ****         sr_recip_  = 1.0f / sample_rate;
 180              		.loc 2 52 9 view .LVU42
ARM GAS  C:\Users\theja\AppData\Local\Temp\ccQkboaj.s 			page 7


  52:../../DaisySP//Source/Synthesis/oscillator.h ****         sr_recip_  = 1.0f / sample_rate;
 181              		.loc 2 52 20 is_stmt 0 view .LVU43
 182 0066 80ED048A 		vstr.32	s16, [r0, #16]
  53:../../DaisySP//Source/Synthesis/oscillator.h ****         freq_      = 100.0f;
 183              		.loc 2 53 9 is_stmt 1 view .LVU44
  54:../../DaisySP//Source/Synthesis/oscillator.h ****         amp_       = 0.5f;
 184              		.loc 2 54 20 is_stmt 0 view .LVU45
 185 006a C0ED028A 		vstr.32	s17, [r0, #8]
  55:../../DaisySP//Source/Synthesis/oscillator.h ****         pw_        = 0.5f;
 186              		.loc 2 55 20 view .LVU46
 187 006e 4760     		str	r7, [r0, #4]	@ float
  56:../../DaisySP//Source/Synthesis/oscillator.h ****         phase_     = 0.0f;
 188              		.loc 2 56 20 view .LVU47
 189 0070 C760     		str	r7, [r0, #12]	@ float
  57:../../DaisySP//Source/Synthesis/oscillator.h ****         phase_inc_ = CalcPhaseInc(freq_);
 190              		.loc 2 57 20 view .LVU48
 191 0072 8561     		str	r5, [r0, #24]	@ float
  53:../../DaisySP//Source/Synthesis/oscillator.h ****         freq_      = 100.0f;
 192              		.loc 2 53 20 view .LVU49
 193 0074 C0ED059A 		vstr.32	s19, [r0, #20]
  54:../../DaisySP//Source/Synthesis/oscillator.h ****         amp_       = 0.5f;
 194              		.loc 2 54 9 is_stmt 1 view .LVU50
  55:../../DaisySP//Source/Synthesis/oscillator.h ****         pw_        = 0.5f;
 195              		.loc 2 55 9 view .LVU51
  56:../../DaisySP//Source/Synthesis/oscillator.h ****         phase_     = 0.0f;
 196              		.loc 2 56 9 view .LVU52
  57:../../DaisySP//Source/Synthesis/oscillator.h ****         phase_inc_ = CalcPhaseInc(freq_);
 197              		.loc 2 57 9 view .LVU53
  58:../../DaisySP//Source/Synthesis/oscillator.h ****         waveform_  = WAVE_SIN;
 198              		.loc 2 58 9 view .LVU54
  58:../../DaisySP//Source/Synthesis/oscillator.h ****         waveform_  = WAVE_SIN;
 199              		.loc 2 58 34 is_stmt 0 view .LVU55
 200 0078 FFF7FEFF 		bl	_ZN7daisysp10Oscillator12CalcPhaseIncEf
 201              	.LVL7:
  58:../../DaisySP//Source/Synthesis/oscillator.h ****         waveform_  = WAVE_SIN;
 202              		.loc 2 58 34 view .LVU56
 203 007c F0EE407A 		vmov.f32	s15, s0
 204              	.LBE83:
 205              	.LBE99:
 206              	.LBB100:
 207              	.LBB101:
  62:../../DaisySP//Source/Synthesis/oscillator.h ****     }
  63:../../DaisySP//Source/Synthesis/oscillator.h **** 
  64:../../DaisySP//Source/Synthesis/oscillator.h **** 
  65:../../DaisySP//Source/Synthesis/oscillator.h ****     /** Changes the frequency of the Oscillator, and recalculates phase increment.
  66:../../DaisySP//Source/Synthesis/oscillator.h ****     */
  67:../../DaisySP//Source/Synthesis/oscillator.h ****     inline void SetFreq(const float f)
  68:../../DaisySP//Source/Synthesis/oscillator.h ****     {
  69:../../DaisySP//Source/Synthesis/oscillator.h ****         freq_      = f;
  70:../../DaisySP//Source/Synthesis/oscillator.h ****         phase_inc_ = CalcPhaseInc(f);
 208              		.loc 2 70 34 view .LVU57
 209 0080 2046     		mov	r0, r4
 210              	.LBE101:
 211              	.LBE100:
 212              	.LBB105:
 213              	.LBB84:
  59:../../DaisySP//Source/Synthesis/oscillator.h ****         eoc_       = true;
ARM GAS  C:\Users\theja\AppData\Local\Temp\ccQkboaj.s 			page 8


 214              		.loc 2 59 20 view .LVU58
 215 0082 2670     		strb	r6, [r4]
 216              	.LBE84:
 217              	.LBE105:
 218              	.LBB106:
 219              	.LBB102:
  69:../../DaisySP//Source/Synthesis/oscillator.h ****         phase_inc_ = CalcPhaseInc(f);
 220              		.loc 2 69 20 view .LVU59
 221 0084 C4ED028A 		vstr.32	s17, [r4, #8]
 222              		.loc 2 70 34 view .LVU60
 223 0088 B0EE680A 		vmov.f32	s0, s17
 224              	.LBE102:
 225              	.LBE106:
 226              	.LBB107:
 227              	.LBB85:
  58:../../DaisySP//Source/Synthesis/oscillator.h ****         waveform_  = WAVE_SIN;
 228              		.loc 2 58 20 view .LVU61
 229 008c C4ED077A 		vstr.32	s15, [r4, #28]
  59:../../DaisySP//Source/Synthesis/oscillator.h ****         eoc_       = true;
 230              		.loc 2 59 9 is_stmt 1 view .LVU62
  60:../../DaisySP//Source/Synthesis/oscillator.h ****         eor_       = true;
 231              		.loc 2 60 9 view .LVU63
  61:../../DaisySP//Source/Synthesis/oscillator.h ****     }
 232              		.loc 2 61 9 view .LVU64
 233              	.LBE85:
 234              	.LBE107:
 235              	.LBB108:
 236              	.LBB109:
  71:../../DaisySP//Source/Synthesis/oscillator.h ****     }
  72:../../DaisySP//Source/Synthesis/oscillator.h **** 
  73:../../DaisySP//Source/Synthesis/oscillator.h **** 
  74:../../DaisySP//Source/Synthesis/oscillator.h ****     /** Sets the amplitude of the waveform.
  75:../../DaisySP//Source/Synthesis/oscillator.h ****     */
  76:../../DaisySP//Source/Synthesis/oscillator.h ****     inline void SetAmp(const float a) { amp_ = a; }
 237              		.loc 2 76 46 is_stmt 0 view .LVU65
 238 0090 84ED019A 		vstr.32	s18, [r4, #4]
 239              	.LBE109:
 240              	.LBE108:
 241              	.LBB111:
 242              	.LBB86:
  61:../../DaisySP//Source/Synthesis/oscillator.h ****     }
 243              		.loc 2 61 20 view .LVU66
 244 0094 A4F82880 		strh	r8, [r4, #40]	@ movhi
 245              	.LVL8:
  61:../../DaisySP//Source/Synthesis/oscillator.h ****     }
 246              		.loc 2 61 20 view .LVU67
 247              	.LBE86:
 248              	.LBE111:
  24:DrumSynth.cpp ****     kick_osc.SetWaveform(Oscillator::WAVE_SIN);
 249              		.loc 1 24 5 is_stmt 1 view .LVU68
 250              	.LBB112:
 251              	.LBI112:
  77:../../DaisySP//Source/Synthesis/oscillator.h ****     /** Sets the waveform to be synthesized by the Process() function.
  78:../../DaisySP//Source/Synthesis/oscillator.h ****     */
  79:../../DaisySP//Source/Synthesis/oscillator.h ****     inline void SetWaveform(const uint8_t wf)
 252              		.loc 2 79 17 view .LVU69
 253              	.LBE112:
ARM GAS  C:\Users\theja\AppData\Local\Temp\ccQkboaj.s 			page 9


 254              	.LBE141:
  80:../../DaisySP//Source/Synthesis/oscillator.h ****     {
  81:../../DaisySP//Source/Synthesis/oscillator.h ****         waveform_ = wf < WAVE_LAST ? wf : WAVE_SIN;
 255              		.loc 2 81 9 view .LVU70
 256              	.LBB142:
  25:DrumSynth.cpp ****     kick_osc.SetAmp(1.0f);
 257              		.loc 1 25 5 view .LVU71
 258              	.LBB113:
 259              	.LBI108:
  76:../../DaisySP//Source/Synthesis/oscillator.h ****     /** Sets the waveform to be synthesized by the Process() function.
 260              		.loc 2 76 17 view .LVU72
 261              	.LBB110:
  76:../../DaisySP//Source/Synthesis/oscillator.h ****     /** Sets the waveform to be synthesized by the Process() function.
 262              		.loc 2 76 41 view .LVU73
  76:../../DaisySP//Source/Synthesis/oscillator.h ****     /** Sets the waveform to be synthesized by the Process() function.
 263              		.loc 2 76 41 is_stmt 0 view .LVU74
 264              	.LBE110:
 265              	.LBE113:
  26:DrumSynth.cpp ****     kick_osc.SetFreq(100.f);
 266              		.loc 1 26 5 is_stmt 1 view .LVU75
 267              	.LBB114:
 268              	.LBI100:
  67:../../DaisySP//Source/Synthesis/oscillator.h ****     {
 269              		.loc 2 67 17 view .LVU76
 270              	.LBB103:
  69:../../DaisySP//Source/Synthesis/oscillator.h ****         phase_inc_ = CalcPhaseInc(f);
 271              		.loc 2 69 9 view .LVU77
  70:../../DaisySP//Source/Synthesis/oscillator.h ****     }
 272              		.loc 2 70 9 view .LVU78
  70:../../DaisySP//Source/Synthesis/oscillator.h ****     }
 273              		.loc 2 70 34 is_stmt 0 view .LVU79
 274 0098 FFF7FEFF 		bl	_ZN7daisysp10Oscillator12CalcPhaseIncEf
 275              	.LVL9:
 276              	.LBE103:
 277              	.LBE114:
  27:DrumSynth.cpp **** 
  28:DrumSynth.cpp ****     // Initialize the snare osc and bandpass filter
  29:DrumSynth.cpp ****     //===============================================
  30:DrumSynth.cpp ****     snare_osc.Init(sample_rate);
 278              		.loc 1 30 19 view .LVU80
 279 009c 04F1B000 		add	r0, r4, #176
 280              	.LBB115:
 281              	.LBB116:
  57:../../DaisySP//Source/Synthesis/oscillator.h ****         phase_inc_ = CalcPhaseInc(freq_);
 282              		.loc 2 57 20 view .LVU81
 283 00a0 C4F8C850 		str	r5, [r4, #200]	@ float
 284              	.LBE116:
 285              	.LBE115:
  31:DrumSynth.cpp ****     snare_osc.SetWaveform(Oscillator::WAVE_SIN);
  32:DrumSynth.cpp ****     snare_osc.SetAmp(1.f);
  33:DrumSynth.cpp ****     snare_osc.SetFreq(200.f);
  34:DrumSynth.cpp **** 
  35:DrumSynth.cpp ****     snare_highpass.Init(sample_rate);
  36:DrumSynth.cpp ****     snare_highpass.SetFreq(220.f);
  37:DrumSynth.cpp ****     snare_highpass.SetRes(0.1f);
  38:DrumSynth.cpp **** 
  39:DrumSynth.cpp ****     snare_lowpass.Init(sample_rate);
ARM GAS  C:\Users\theja\AppData\Local\Temp\ccQkboaj.s 			page 10


 286              		.loc 1 39 23 view .LVU82
 287 00a4 04F59C75 		add	r5, r4, #312
 288              	.LBB121:
 289              	.LBB104:
  70:../../DaisySP//Source/Synthesis/oscillator.h ****     }
 290              		.loc 2 70 20 view .LVU83
 291 00a8 84ED070A 		vstr.32	s0, [r4, #28]
 292              	.LVL10:
  70:../../DaisySP//Source/Synthesis/oscillator.h ****     }
 293              		.loc 2 70 20 view .LVU84
 294              	.LBE104:
 295              	.LBE121:
  30:DrumSynth.cpp ****     snare_osc.SetWaveform(Oscillator::WAVE_SIN);
 296              		.loc 1 30 5 is_stmt 1 view .LVU85
 297              	.LBB122:
 298              	.LBI115:
  50:../../DaisySP//Source/Synthesis/oscillator.h ****     {
 299              		.loc 2 50 10 view .LVU86
 300              	.LBB117:
  52:../../DaisySP//Source/Synthesis/oscillator.h ****         sr_recip_  = 1.0f / sample_rate;
 301              		.loc 2 52 9 view .LVU87
  58:../../DaisySP//Source/Synthesis/oscillator.h ****         waveform_  = WAVE_SIN;
 302              		.loc 2 58 34 is_stmt 0 view .LVU88
 303 00ac B0EE680A 		vmov.f32	s0, s17
  54:../../DaisySP//Source/Synthesis/oscillator.h ****         amp_       = 0.5f;
 304              		.loc 2 54 20 view .LVU89
 305 00b0 C4ED2E8A 		vstr.32	s17, [r4, #184]
  52:../../DaisySP//Source/Synthesis/oscillator.h ****         sr_recip_  = 1.0f / sample_rate;
 306              		.loc 2 52 20 view .LVU90
 307 00b4 84ED308A 		vstr.32	s16, [r4, #192]
  53:../../DaisySP//Source/Synthesis/oscillator.h ****         freq_      = 100.0f;
 308              		.loc 2 53 9 is_stmt 1 view .LVU91
  53:../../DaisySP//Source/Synthesis/oscillator.h ****         freq_      = 100.0f;
 309              		.loc 2 53 20 is_stmt 0 view .LVU92
 310 00b8 C4ED319A 		vstr.32	s19, [r4, #196]
  54:../../DaisySP//Source/Synthesis/oscillator.h ****         amp_       = 0.5f;
 311              		.loc 2 54 9 is_stmt 1 view .LVU93
  55:../../DaisySP//Source/Synthesis/oscillator.h ****         pw_        = 0.5f;
 312              		.loc 2 55 9 view .LVU94
  55:../../DaisySP//Source/Synthesis/oscillator.h ****         pw_        = 0.5f;
 313              		.loc 2 55 20 is_stmt 0 view .LVU95
 314 00bc C4F8B470 		str	r7, [r4, #180]	@ float
  56:../../DaisySP//Source/Synthesis/oscillator.h ****         phase_     = 0.0f;
 315              		.loc 2 56 9 is_stmt 1 view .LVU96
  56:../../DaisySP//Source/Synthesis/oscillator.h ****         phase_     = 0.0f;
 316              		.loc 2 56 20 is_stmt 0 view .LVU97
 317 00c0 C4F8BC70 		str	r7, [r4, #188]	@ float
  57:../../DaisySP//Source/Synthesis/oscillator.h ****         phase_inc_ = CalcPhaseInc(freq_);
 318              		.loc 2 57 9 is_stmt 1 view .LVU98
  58:../../DaisySP//Source/Synthesis/oscillator.h ****         waveform_  = WAVE_SIN;
 319              		.loc 2 58 9 view .LVU99
  58:../../DaisySP//Source/Synthesis/oscillator.h ****         waveform_  = WAVE_SIN;
 320              		.loc 2 58 34 is_stmt 0 view .LVU100
 321 00c4 0190     		str	r0, [sp, #4]
 322 00c6 FFF7FEFF 		bl	_ZN7daisysp10Oscillator12CalcPhaseIncEf
 323              	.LVL11:
  58:../../DaisySP//Source/Synthesis/oscillator.h ****         waveform_  = WAVE_SIN;
ARM GAS  C:\Users\theja\AppData\Local\Temp\ccQkboaj.s 			page 11


 324              		.loc 2 58 34 view .LVU101
 325              	.LBE117:
 326              	.LBE122:
 327              	.LBB123:
 328              	.LBB124:
  69:../../DaisySP//Source/Synthesis/oscillator.h ****         phase_inc_ = CalcPhaseInc(f);
 329              		.loc 2 69 20 view .LVU102
 330 00ca DFED337A 		vldr.32	s15, .L4+16
  70:../../DaisySP//Source/Synthesis/oscillator.h ****     }
 331              		.loc 2 70 34 view .LVU103
 332 00ce 0198     		ldr	r0, [sp, #4]
 333              	.LBE124:
 334              	.LBE123:
 335              	.LBB129:
 336              	.LBB118:
  58:../../DaisySP//Source/Synthesis/oscillator.h ****         waveform_  = WAVE_SIN;
 337              		.loc 2 58 20 view .LVU104
 338 00d0 84ED330A 		vstr.32	s0, [r4, #204]
  59:../../DaisySP//Source/Synthesis/oscillator.h ****         eoc_       = true;
 339              		.loc 2 59 9 is_stmt 1 view .LVU105
 340              	.LBE118:
 341              	.LBE129:
 342              	.LBB130:
 343              	.LBB125:
  70:../../DaisySP//Source/Synthesis/oscillator.h ****     }
 344              		.loc 2 70 34 is_stmt 0 view .LVU106
 345 00d4 B0EE670A 		vmov.f32	s0, s15
 346              	.LBE125:
 347              	.LBE130:
 348              	.LBB131:
 349              	.LBB119:
  59:../../DaisySP//Source/Synthesis/oscillator.h ****         eoc_       = true;
 350              		.loc 2 59 20 view .LVU107
 351 00d8 84F8B060 		strb	r6, [r4, #176]
  60:../../DaisySP//Source/Synthesis/oscillator.h ****         eor_       = true;
 352              		.loc 2 60 9 is_stmt 1 view .LVU108
  61:../../DaisySP//Source/Synthesis/oscillator.h ****     }
 353              		.loc 2 61 9 view .LVU109
 354              	.LBE119:
 355              	.LBE131:
  40:DrumSynth.cpp ****     snare_lowpass.SetFreq(2000.f);
  41:DrumSynth.cpp ****     snare_lowpass.SetRes(0.1f);
  42:DrumSynth.cpp **** 
  43:DrumSynth.cpp ****     // Initialize the hat bandpass filter
  44:DrumSynth.cpp ****     //===============================================
  45:DrumSynth.cpp ****     hat_highpass.Init(sample_rate);
 356              		.loc 1 45 22 is_stmt 0 view .LVU110
 357 00dc 04F5CA76 		add	r6, r4, #404
 358              	.LBB132:
 359              	.LBB126:
  69:../../DaisySP//Source/Synthesis/oscillator.h ****         phase_inc_ = CalcPhaseInc(f);
 360              		.loc 2 69 20 view .LVU111
 361 00e0 C4ED2E7A 		vstr.32	s15, [r4, #184]
 362              	.LBE126:
 363              	.LBE132:
 364              	.LBB133:
 365              	.LBB120:
ARM GAS  C:\Users\theja\AppData\Local\Temp\ccQkboaj.s 			page 12


  61:../../DaisySP//Source/Synthesis/oscillator.h ****     }
 366              		.loc 2 61 20 view .LVU112
 367 00e4 A4F8D880 		strh	r8, [r4, #216]	@ movhi
 368              	.LVL12:
  61:../../DaisySP//Source/Synthesis/oscillator.h ****     }
 369              		.loc 2 61 20 view .LVU113
 370              	.LBE120:
 371              	.LBE133:
  31:DrumSynth.cpp ****     snare_osc.SetAmp(1.f);
 372              		.loc 1 31 5 is_stmt 1 view .LVU114
 373              	.LBB134:
 374              	.LBI134:
  79:../../DaisySP//Source/Synthesis/oscillator.h ****     {
 375              		.loc 2 79 17 view .LVU115
 376              	.LBE134:
 377              	.LBE142:
 378              		.loc 2 81 9 view .LVU116
 379              	.LBB143:
  32:DrumSynth.cpp ****     snare_osc.SetFreq(200.f);
 380              		.loc 1 32 5 view .LVU117
 381              	.LBB135:
 382              	.LBI135:
  76:../../DaisySP//Source/Synthesis/oscillator.h ****     /** Sets the waveform to be synthesized by the Process() function.
 383              		.loc 2 76 17 view .LVU118
 384              	.LBB136:
  76:../../DaisySP//Source/Synthesis/oscillator.h ****     /** Sets the waveform to be synthesized by the Process() function.
 385              		.loc 2 76 41 view .LVU119
  76:../../DaisySP//Source/Synthesis/oscillator.h ****     /** Sets the waveform to be synthesized by the Process() function.
 386              		.loc 2 76 46 is_stmt 0 view .LVU120
 387 00e8 84ED2D9A 		vstr.32	s18, [r4, #180]
 388              	.LVL13:
  76:../../DaisySP//Source/Synthesis/oscillator.h ****     /** Sets the waveform to be synthesized by the Process() function.
 389              		.loc 2 76 46 view .LVU121
 390              	.LBE136:
 391              	.LBE135:
  33:DrumSynth.cpp **** 
 392              		.loc 1 33 5 is_stmt 1 view .LVU122
 393              	.LBB137:
 394              	.LBI123:
  67:../../DaisySP//Source/Synthesis/oscillator.h ****     {
 395              		.loc 2 67 17 view .LVU123
 396              	.LBB127:
  69:../../DaisySP//Source/Synthesis/oscillator.h ****         phase_inc_ = CalcPhaseInc(f);
 397              		.loc 2 69 9 view .LVU124
  70:../../DaisySP//Source/Synthesis/oscillator.h ****     }
 398              		.loc 2 70 9 view .LVU125
  70:../../DaisySP//Source/Synthesis/oscillator.h ****     }
 399              		.loc 2 70 34 is_stmt 0 view .LVU126
 400 00ec FFF7FEFF 		bl	_ZN7daisysp10Oscillator12CalcPhaseIncEf
 401              	.LVL14:
  70:../../DaisySP//Source/Synthesis/oscillator.h ****     }
 402              		.loc 2 70 34 view .LVU127
 403 00f0 F0EE407A 		vmov.f32	s15, s0
 404              	.LBE127:
 405              	.LBE137:
  35:DrumSynth.cpp ****     snare_highpass.SetFreq(220.f);
 406              		.loc 1 35 24 view .LVU128
ARM GAS  C:\Users\theja\AppData\Local\Temp\ccQkboaj.s 			page 13


 407 00f4 04F1EC00 		add	r0, r4, #236
  37:DrumSynth.cpp **** 
 408              		.loc 1 37 26 view .LVU129
 409 00f8 DFED288A 		vldr.32	s17, .L4+20
  35:DrumSynth.cpp ****     snare_highpass.SetFreq(220.f);
 410              		.loc 1 35 24 view .LVU130
 411 00fc B0EE480A 		vmov.f32	s0, s16
 412              	.LBB138:
 413              	.LBB128:
  70:../../DaisySP//Source/Synthesis/oscillator.h ****     }
 414              		.loc 2 70 20 view .LVU131
 415 0100 C4ED337A 		vstr.32	s15, [r4, #204]
 416              	.LVL15:
  70:../../DaisySP//Source/Synthesis/oscillator.h ****     }
 417              		.loc 2 70 20 view .LVU132
 418              	.LBE128:
 419              	.LBE138:
  35:DrumSynth.cpp ****     snare_highpass.SetFreq(220.f);
 420              		.loc 1 35 5 is_stmt 1 view .LVU133
  35:DrumSynth.cpp ****     snare_highpass.SetFreq(220.f);
 421              		.loc 1 35 24 is_stmt 0 view .LVU134
 422 0104 0190     		str	r0, [sp, #4]
 423 0106 FFF7FEFF 		bl	_ZN7daisysp3Svf4InitEf
 424              	.LVL16:
  36:DrumSynth.cpp ****     snare_highpass.SetRes(0.1f);
 425              		.loc 1 36 5 is_stmt 1 view .LVU135
  36:DrumSynth.cpp ****     snare_highpass.SetRes(0.1f);
 426              		.loc 1 36 27 is_stmt 0 view .LVU136
 427 010a 0198     		ldr	r0, [sp, #4]
 428 010c 9FED240A 		vldr.32	s0, .L4+24
 429 0110 FFF7FEFF 		bl	_ZN7daisysp3Svf7SetFreqEf
 430              	.LVL17:
  37:DrumSynth.cpp **** 
 431              		.loc 1 37 5 is_stmt 1 view .LVU137
  37:DrumSynth.cpp **** 
 432              		.loc 1 37 26 is_stmt 0 view .LVU138
 433 0114 B0EE680A 		vmov.f32	s0, s17
 434 0118 0198     		ldr	r0, [sp, #4]
 435 011a FFF7FEFF 		bl	_ZN7daisysp3Svf6SetResEf
 436              	.LVL18:
  39:DrumSynth.cpp ****     snare_lowpass.SetFreq(2000.f);
 437              		.loc 1 39 5 is_stmt 1 view .LVU139
  39:DrumSynth.cpp ****     snare_lowpass.SetFreq(2000.f);
 438              		.loc 1 39 23 is_stmt 0 view .LVU140
 439 011e B0EE480A 		vmov.f32	s0, s16
 440 0122 2846     		mov	r0, r5
 441 0124 FFF7FEFF 		bl	_ZN7daisysp3Svf4InitEf
 442              	.LVL19:
  40:DrumSynth.cpp ****     snare_lowpass.SetRes(0.1f);
 443              		.loc 1 40 5 is_stmt 1 view .LVU141
  40:DrumSynth.cpp ****     snare_lowpass.SetRes(0.1f);
 444              		.loc 1 40 26 is_stmt 0 view .LVU142
 445 0128 2846     		mov	r0, r5
 446 012a 9FED1E0A 		vldr.32	s0, .L4+28
 447 012e FFF7FEFF 		bl	_ZN7daisysp3Svf7SetFreqEf
 448              	.LVL20:
  41:DrumSynth.cpp **** 
ARM GAS  C:\Users\theja\AppData\Local\Temp\ccQkboaj.s 			page 14


 449              		.loc 1 41 5 is_stmt 1 view .LVU143
  41:DrumSynth.cpp **** 
 450              		.loc 1 41 25 is_stmt 0 view .LVU144
 451 0132 B0EE680A 		vmov.f32	s0, s17
 452 0136 2846     		mov	r0, r5
  46:DrumSynth.cpp ****     hat_highpass.SetFreq(3390.f);
  47:DrumSynth.cpp ****     hat_highpass.SetRes(0.1f); 
  48:DrumSynth.cpp **** 
  49:DrumSynth.cpp ****     hat_lowpass.Init(sample_rate);
 453              		.loc 1 49 21 view .LVU145
 454 0138 04F5F075 		add	r5, r4, #480
  41:DrumSynth.cpp **** 
 455              		.loc 1 41 25 view .LVU146
 456 013c FFF7FEFF 		bl	_ZN7daisysp3Svf6SetResEf
 457              	.LVL21:
  45:DrumSynth.cpp ****     hat_highpass.SetFreq(3390.f);
 458              		.loc 1 45 5 is_stmt 1 view .LVU147
  45:DrumSynth.cpp ****     hat_highpass.SetFreq(3390.f);
 459              		.loc 1 45 22 is_stmt 0 view .LVU148
 460 0140 B0EE480A 		vmov.f32	s0, s16
 461 0144 3046     		mov	r0, r6
 462 0146 FFF7FEFF 		bl	_ZN7daisysp3Svf4InitEf
 463              	.LVL22:
  46:DrumSynth.cpp ****     hat_highpass.SetFreq(3390.f);
 464              		.loc 1 46 5 is_stmt 1 view .LVU149
  46:DrumSynth.cpp ****     hat_highpass.SetFreq(3390.f);
 465              		.loc 1 46 25 is_stmt 0 view .LVU150
 466 014a 3046     		mov	r0, r6
 467 014c 9FED160A 		vldr.32	s0, .L4+32
 468 0150 FFF7FEFF 		bl	_ZN7daisysp3Svf7SetFreqEf
 469              	.LVL23:
  47:DrumSynth.cpp **** 
 470              		.loc 1 47 5 is_stmt 1 view .LVU151
  47:DrumSynth.cpp **** 
 471              		.loc 1 47 24 is_stmt 0 view .LVU152
 472 0154 B0EE680A 		vmov.f32	s0, s17
 473 0158 3046     		mov	r0, r6
 474 015a FFF7FEFF 		bl	_ZN7daisysp3Svf6SetResEf
 475              	.LVL24:
 476              		.loc 1 49 5 is_stmt 1 view .LVU153
 477              		.loc 1 49 21 is_stmt 0 view .LVU154
 478 015e B0EE480A 		vmov.f32	s0, s16
 479 0162 2846     		mov	r0, r5
 480 0164 FFF7FEFF 		bl	_ZN7daisysp3Svf4InitEf
 481              	.LVL25:
  50:DrumSynth.cpp ****     hat_lowpass.SetFreq(8390.f);
 482              		.loc 1 50 5 is_stmt 1 view .LVU155
 483              		.loc 1 50 24 is_stmt 0 view .LVU156
 484 0168 2846     		mov	r0, r5
 485 016a 9FED100A 		vldr.32	s0, .L4+36
 486 016e FFF7FEFF 		bl	_ZN7daisysp3Svf7SetFreqEf
 487              	.LVL26:
  51:DrumSynth.cpp ****     hat_lowpass.SetRes(0.1f); 
 488              		.loc 1 51 5 is_stmt 1 view .LVU157
 489              		.loc 1 51 23 is_stmt 0 view .LVU158
 490 0172 2846     		mov	r0, r5
 491 0174 B0EE680A 		vmov.f32	s0, s17
ARM GAS  C:\Users\theja\AppData\Local\Temp\ccQkboaj.s 			page 15


 492 0178 FFF7FEFF 		bl	_ZN7daisysp3Svf6SetResEf
 493              	.LVL27:
 494              	.LBE143:
  52:DrumSynth.cpp **** }
 495              		.loc 1 52 1 view .LVU159
 496 017c 2046     		mov	r0, r4
 497 017e 02B0     		add	sp, sp, #8
 498              		.cfi_def_cfa_offset 40
 499              		@ sp needed
 500 0180 BDEC048B 		vldm	sp!, {d8-d9}
 501              		.cfi_restore 82
 502              		.cfi_restore 83
 503              		.cfi_restore 80
 504              		.cfi_restore 81
 505              		.cfi_def_cfa_offset 24
 506              	.LVL28:
 507              		.loc 1 52 1 view .LVU160
 508 0184 BDE8F081 		pop	{r4, r5, r6, r7, r8, pc}
 509              	.LVL29:
 510              	.L5:
 511              		.loc 1 52 1 view .LVU161
 512              		.align	2
 513              	.L4:
 514 0188 CDCC4C3E 		.word	1045220557
 515 018c 0AD7233E 		.word	1042536202
 516 0190 0000C842 		.word	1120403456
 517 0194 CDCC4C3D 		.word	1028443341
 518 0198 00004843 		.word	1128792064
 519 019c CDCCCC3D 		.word	1036831949
 520 01a0 00005C43 		.word	1130102784
 521 01a4 0000FA44 		.word	1157234688
 522 01a8 00E05345 		.word	1163124736
 523 01ac 00180346 		.word	1174607872
 524              		.cfi_endproc
 525              	.LFE3527:
 527              		.global	_ZN9DrumSynthC1Ef
 528              		.thumb_set _ZN9DrumSynthC1Ef,_ZN9DrumSynthC2Ef
 529              		.section	.text._ZN9DrumSynth12trigger_kickEv,"ax",%progbits
 530              		.align	1
 531              		.p2align 2,,3
 532              		.global	_ZN9DrumSynth12trigger_kickEv
 533              		.syntax unified
 534              		.thumb
 535              		.thumb_func
 536              		.fpu fpv5-d16
 538              	_ZN9DrumSynth12trigger_kickEv:
 539              	.LVL30:
 540              	.LFB3529:
  53:DrumSynth.cpp **** 
  54:DrumSynth.cpp **** // Kick
  55:DrumSynth.cpp **** // =====================================================
  56:DrumSynth.cpp **** void DrumSynth::trigger_kick() {
 541              		.loc 1 56 32 is_stmt 1 view -0
 542              		.cfi_startproc
 543              		@ args = 0, pretend = 0, frame = 0
 544              		@ frame_needed = 0, uses_anonymous_args = 0
 545              		@ link register save eliminated.
ARM GAS  C:\Users\theja\AppData\Local\Temp\ccQkboaj.s 			page 16


  57:DrumSynth.cpp ****     kick_timer = sample_rate * kick_duration_s;
 546              		.loc 1 57 5 view .LVU163
 547              		.loc 1 57 30 is_stmt 0 view .LVU164
 548 0000 D0ED277A 		vldr.32	s15, [r0, #156]
  58:DrumSynth.cpp ****     kick_amp = 1.0f;
 549              		.loc 1 58 14 view .LVU165
 550 0004 4FF07E53 		mov	r3, #1065353216
  57:DrumSynth.cpp ****     kick_timer = sample_rate * kick_duration_s;
 551              		.loc 1 57 30 view .LVU166
 552 0008 90ED297A 		vldr.32	s14, [r0, #164]
 553              		.loc 1 58 14 view .LVU167
 554 000c C0F8AC30 		str	r3, [r0, #172]	@ float
  57:DrumSynth.cpp ****     kick_timer = sample_rate * kick_duration_s;
 555              		.loc 1 57 30 view .LVU168
 556 0010 67EE877A 		vmul.f32	s15, s15, s14
  57:DrumSynth.cpp ****     kick_timer = sample_rate * kick_duration_s;
 557              		.loc 1 57 16 view .LVU169
 558 0014 C0ED2A7A 		vstr.32	s15, [r0, #168]
 559              		.loc 1 58 5 is_stmt 1 view .LVU170
  59:DrumSynth.cpp **** }
 560              		.loc 1 59 1 is_stmt 0 view .LVU171
 561 0018 7047     		bx	lr
 562              		.cfi_endproc
 563              	.LFE3529:
 565 001a 00BF     		.section	.text._ZN9DrumSynth12process_kickEv,"ax",%progbits
 566              		.align	1
 567              		.p2align 2,,3
 568              		.global	_ZN9DrumSynth12process_kickEv
 569              		.syntax unified
 570              		.thumb
 571              		.thumb_func
 572              		.fpu fpv5-d16
 574              	_ZN9DrumSynth12process_kickEv:
 575              	.LVL31:
 576              	.LFB3530:
  60:DrumSynth.cpp **** 
  61:DrumSynth.cpp **** float DrumSynth::process_kick() {
 577              		.loc 1 61 33 is_stmt 1 view -0
 578              		.cfi_startproc
 579              		@ args = 0, pretend = 0, frame = 0
 580              		@ frame_needed = 0, uses_anonymous_args = 0
  62:DrumSynth.cpp ****     if (kick_timer > 0.f) {
 581              		.loc 1 62 5 view .LVU173
 582              		.loc 1 62 9 is_stmt 0 view .LVU174
 583 0000 D0ED2A7A 		vldr.32	s15, [r0, #168]
 584              		.loc 1 62 5 view .LVU175
 585 0004 F5EEC07A 		vcmpe.f32	s15, #0
 586 0008 F1EE10FA 		vmrs	APSR_nzcv, FPSCR
 587 000c 1CDD     		ble	.L12
  63:DrumSynth.cpp ****         kick_timer--;
 588              		.loc 1 63 9 is_stmt 1 view .LVU176
  64:DrumSynth.cpp ****         kick_amp -= (1.f/(sample_rate * kick_duration_s));
 589              		.loc 1 64 39 is_stmt 0 view .LVU177
 590 000e D0ED295A 		vldr.32	s11, [r0, #164]
  63:DrumSynth.cpp ****         kick_timer--;
 591              		.loc 1 63 19 view .LVU178
 592 0012 B7EE006A 		vmov.f32	s12, #1.0e+0
ARM GAS  C:\Users\theja\AppData\Local\Temp\ccQkboaj.s 			page 17


 593              		.loc 1 64 39 view .LVU179
 594 0016 D0ED276A 		vldr.32	s13, [r0, #156]
 595              		.loc 1 64 18 view .LVU180
 596 001a 90ED2B7A 		vldr.32	s14, [r0, #172]
 597              		.loc 1 64 39 view .LVU181
 598 001e 66EEA56A 		vmul.f32	s13, s13, s11
  63:DrumSynth.cpp ****         kick_timer--;
 599              		.loc 1 63 19 view .LVU182
 600 0022 77EEC67A 		vsub.f32	s15, s15, s12
 601              		.loc 1 64 25 view .LVU183
 602 0026 C6EE265A 		vdiv.f32	s11, s12, s13
  63:DrumSynth.cpp ****         kick_timer--;
 603              		.loc 1 63 19 view .LVU184
 604 002a C0ED2A7A 		vstr.32	s15, [r0, #168]
 605              		.loc 1 64 9 is_stmt 1 view .LVU185
  61:DrumSynth.cpp ****     if (kick_timer > 0.f) {
 606              		.loc 1 61 33 is_stmt 0 view .LVU186
 607 002e 10B5     		push	{r4, lr}
 608              		.cfi_def_cfa_offset 8
 609              		.cfi_offset 4, -8
 610              		.cfi_offset 14, -4
 611 0030 0446     		mov	r4, r0
 612              		.loc 1 64 18 view .LVU187
 613 0032 77EE657A 		vsub.f32	s15, s14, s11
 614 0036 C0ED2B7A 		vstr.32	s15, [r0, #172]
  65:DrumSynth.cpp ****         return kick_osc.Process() * kick_amp;
 615              		.loc 1 65 9 is_stmt 1 view .LVU188
 616              		.loc 1 65 32 is_stmt 0 view .LVU189
 617 003a FFF7FEFF 		bl	_ZN7daisysp10Oscillator7ProcessEv
 618              	.LVL32:
 619              		.loc 1 65 37 view .LVU190
 620 003e D4ED2B7A 		vldr.32	s15, [r4, #172]
 621 0042 20EE270A 		vmul.f32	s0, s0, s15
  66:DrumSynth.cpp ****     } else {
  67:DrumSynth.cpp ****         return 0.f;
  68:DrumSynth.cpp ****     }
  69:DrumSynth.cpp **** }
 622              		.loc 1 69 1 view .LVU191
 623 0046 10BD     		pop	{r4, pc}
 624              	.LVL33:
 625              	.L12:
 626              		.cfi_def_cfa_offset 0
 627              		.cfi_restore 4
 628              		.cfi_restore 14
  67:DrumSynth.cpp ****     }
 629              		.loc 1 67 16 view .LVU192
 630 0048 9FED010A 		vldr.32	s0, .L17
 631              		.loc 1 69 1 view .LVU193
 632 004c 7047     		bx	lr
 633              	.L18:
 634 004e 00BF     		.align	2
 635              	.L17:
 636 0050 00000000 		.word	0
 637              		.cfi_endproc
 638              	.LFE3530:
 640              		.section	.text._ZNK9DrumSynth11kick_activeEv,"ax",%progbits
 641              		.align	1
ARM GAS  C:\Users\theja\AppData\Local\Temp\ccQkboaj.s 			page 18


 642              		.p2align 2,,3
 643              		.global	_ZNK9DrumSynth11kick_activeEv
 644              		.syntax unified
 645              		.thumb
 646              		.thumb_func
 647              		.fpu fpv5-d16
 649              	_ZNK9DrumSynth11kick_activeEv:
 650              	.LVL34:
 651              	.LFB3531:
  70:DrumSynth.cpp **** 
  71:DrumSynth.cpp **** bool DrumSynth::kick_active() const {
 652              		.loc 1 71 37 is_stmt 1 view -0
 653              		.cfi_startproc
 654              		@ args = 0, pretend = 0, frame = 0
 655              		@ frame_needed = 0, uses_anonymous_args = 0
 656              		@ link register save eliminated.
  72:DrumSynth.cpp ****     return kick_timer > 0.f;
 657              		.loc 1 72 5 view .LVU195
 658              		.loc 1 72 25 is_stmt 0 view .LVU196
 659 0000 D0ED2A7A 		vldr.32	s15, [r0, #168]
 660 0004 F5EEC07A 		vcmpe.f32	s15, #0
 661 0008 F1EE10FA 		vmrs	APSR_nzcv, FPSCR
  73:DrumSynth.cpp **** }
 662              		.loc 1 73 1 view .LVU197
 663 000c CCBF     		ite	gt
 664 000e 0120     		movgt	r0, #1
 665              	.LVL35:
 666              		.loc 1 73 1 view .LVU198
 667 0010 0020     		movle	r0, #0
 668 0012 7047     		bx	lr
 669              		.cfi_endproc
 670              	.LFE3531:
 672              		.section	.text._ZN9DrumSynth13trigger_snareEv,"ax",%progbits
 673              		.align	1
 674              		.p2align 2,,3
 675              		.global	_ZN9DrumSynth13trigger_snareEv
 676              		.syntax unified
 677              		.thumb
 678              		.thumb_func
 679              		.fpu fpv5-d16
 681              	_ZN9DrumSynth13trigger_snareEv:
 682              	.LVL36:
 683              	.LFB3532:
  74:DrumSynth.cpp **** 
  75:DrumSynth.cpp **** // Snare
  76:DrumSynth.cpp **** // =====================================================
  77:DrumSynth.cpp **** void DrumSynth::trigger_snare() {
 684              		.loc 1 77 33 is_stmt 1 view -0
 685              		.cfi_startproc
 686              		@ args = 0, pretend = 0, frame = 0
 687              		@ frame_needed = 0, uses_anonymous_args = 0
 688              		@ link register save eliminated.
  78:DrumSynth.cpp ****     snare_timer = sample_rate * snare_duration_s;
 689              		.loc 1 78 5 view .LVU200
 690              		.loc 1 78 31 is_stmt 0 view .LVU201
 691 0000 D0ED277A 		vldr.32	s15, [r0, #156]
  79:DrumSynth.cpp ****     snare_amp = 1.f;
ARM GAS  C:\Users\theja\AppData\Local\Temp\ccQkboaj.s 			page 19


 692              		.loc 1 79 15 view .LVU202
 693 0004 4FF07E53 		mov	r3, #1065353216
  78:DrumSynth.cpp ****     snare_timer = sample_rate * snare_duration_s;
 694              		.loc 1 78 31 view .LVU203
 695 0008 90ED387A 		vldr.32	s14, [r0, #224]
 696              		.loc 1 79 15 view .LVU204
 697 000c C0F8E830 		str	r3, [r0, #232]	@ float
  78:DrumSynth.cpp ****     snare_timer = sample_rate * snare_duration_s;
 698              		.loc 1 78 31 view .LVU205
 699 0010 67EE877A 		vmul.f32	s15, s15, s14
  78:DrumSynth.cpp ****     snare_timer = sample_rate * snare_duration_s;
 700              		.loc 1 78 17 view .LVU206
 701 0014 C0ED397A 		vstr.32	s15, [r0, #228]
 702              		.loc 1 79 5 is_stmt 1 view .LVU207
  80:DrumSynth.cpp **** }
 703              		.loc 1 80 1 is_stmt 0 view .LVU208
 704 0018 7047     		bx	lr
 705              		.cfi_endproc
 706              	.LFE3532:
 708 001a 00BF     		.section	.text._ZN9DrumSynth13process_snareEv,"ax",%progbits
 709              		.align	1
 710              		.p2align 2,,3
 711              		.global	_ZN9DrumSynth13process_snareEv
 712              		.syntax unified
 713              		.thumb
 714              		.thumb_func
 715              		.fpu fpv5-d16
 717              	_ZN9DrumSynth13process_snareEv:
 718              	.LVL37:
 719              	.LFB3533:
  81:DrumSynth.cpp **** 
  82:DrumSynth.cpp **** float DrumSynth::process_snare() {
 720              		.loc 1 82 34 is_stmt 1 view -0
 721              		.cfi_startproc
 722              		@ args = 0, pretend = 0, frame = 0
 723              		@ frame_needed = 0, uses_anonymous_args = 0
  83:DrumSynth.cpp ****     if (snare_timer > 0.f) {
 724              		.loc 1 83 5 view .LVU210
 725              	.LBB144:
 726              		.loc 1 83 9 is_stmt 0 view .LVU211
 727 0000 D0ED397A 		vldr.32	s15, [r0, #228]
 728              		.loc 1 83 5 view .LVU212
 729 0004 F5EEC07A 		vcmpe.f32	s15, #0
 730 0008 F1EE10FA 		vmrs	APSR_nzcv, FPSCR
 731 000c 3EDD     		ble	.L26
 732              	.LBB145:
  84:DrumSynth.cpp ****         snare_timer--;
 733              		.loc 1 84 9 is_stmt 1 view .LVU213
  85:DrumSynth.cpp ****         // Random sample [-1.f, 1.f] for white noise burst
  86:DrumSynth.cpp ****         snare_amp -= (1.f/(sample_rate * snare_duration_s));
 734              		.loc 1 86 40 is_stmt 0 view .LVU214
 735 000e D0ED385A 		vldr.32	s11, [r0, #224]
  84:DrumSynth.cpp ****         snare_timer--;
 736              		.loc 1 84 20 view .LVU215
 737 0012 B7EE006A 		vmov.f32	s12, #1.0e+0
 738              		.loc 1 86 40 view .LVU216
 739 0016 D0ED276A 		vldr.32	s13, [r0, #156]
ARM GAS  C:\Users\theja\AppData\Local\Temp\ccQkboaj.s 			page 20


 740              		.loc 1 86 19 view .LVU217
 741 001a 90ED3A7A 		vldr.32	s14, [r0, #232]
 742              		.loc 1 86 40 view .LVU218
 743 001e 66EEA56A 		vmul.f32	s13, s13, s11
  84:DrumSynth.cpp ****         snare_timer--;
 744              		.loc 1 84 20 view .LVU219
 745 0022 77EEC67A 		vsub.f32	s15, s15, s12
 746              		.loc 1 86 26 view .LVU220
 747 0026 C6EE265A 		vdiv.f32	s11, s12, s13
 748              	.LBE145:
 749              	.LBE144:
  82:DrumSynth.cpp ****     if (snare_timer > 0.f) {
 750              		.loc 1 82 34 view .LVU221
 751 002a 10B5     		push	{r4, lr}
 752              		.cfi_def_cfa_offset 8
 753              		.cfi_offset 4, -8
 754              		.cfi_offset 14, -4
 755 002c 2DED028B 		vpush.64	{d8}
 756              		.cfi_def_cfa_offset 16
 757              		.cfi_offset 80, -16
 758              		.cfi_offset 81, -12
 759              	.LBB152:
 760              	.LBB150:
  84:DrumSynth.cpp ****         snare_timer--;
 761              		.loc 1 84 20 view .LVU222
 762 0030 C0ED397A 		vstr.32	s15, [r0, #228]
 763              		.loc 1 86 9 is_stmt 1 view .LVU223
 764 0034 0446     		mov	r4, r0
  87:DrumSynth.cpp ****         float snare_sample = (2.f * static_cast<float>(rand()) / RAND_MAX - 1.f) + snare_osc.Proces
 765              		.loc 1 87 75 is_stmt 0 view .LVU224
 766 0036 BFEE008A 		vmov.f32	s16, #-1.0e+0
  86:DrumSynth.cpp ****         float snare_sample = (2.f * static_cast<float>(rand()) / RAND_MAX - 1.f) + snare_osc.Proces
 767              		.loc 1 86 19 view .LVU225
 768 003a 77EE657A 		vsub.f32	s15, s14, s11
 769 003e C0ED3A7A 		vstr.32	s15, [r0, #232]
 770              		.loc 1 87 9 is_stmt 1 view .LVU226
 771              		.loc 1 87 60 is_stmt 0 view .LVU227
 772 0042 FFF7FEFF 		bl	rand
 773              	.LVL38:
 774              		.loc 1 87 37 view .LVU228
 775 0046 07EE900A 		vmov	s15, r0	@ int
 776              		.loc 1 87 75 view .LVU229
 777 004a 9FED127A 		vldr.32	s14, .L31
 778              		.loc 1 87 101 view .LVU230
 779 004e 04F1B000 		add	r0, r4, #176
 780              		.loc 1 87 37 view .LVU231
 781 0052 F8EEE77A 		vcvt.f32.s32	s15, s15
 782              		.loc 1 87 35 view .LVU232
 783 0056 77EEA77A 		vadd.f32	s15, s15, s15
 784              		.loc 1 87 75 view .LVU233
 785 005a A7EE878A 		vfma.f32	s16, s15, s14
 786              		.loc 1 87 101 view .LVU234
 787 005e FFF7FEFF 		bl	_ZN7daisysp10Oscillator7ProcessEv
 788              	.LVL39:
  88:DrumSynth.cpp **** 
  89:DrumSynth.cpp ****         snare_highpass.Process(snare_sample);
 789              		.loc 1 89 9 is_stmt 1 view .LVU235
ARM GAS  C:\Users\theja\AppData\Local\Temp\ccQkboaj.s 			page 21


 790              		.loc 1 89 31 is_stmt 0 view .LVU236
 791 0062 04F1EC00 		add	r0, r4, #236
 792 0066 38EE000A 		vadd.f32	s0, s16, s0
 793              	.LVL40:
 794              		.loc 1 89 31 view .LVU237
 795 006a FFF7FEFF 		bl	_ZN7daisysp3Svf7ProcessEf
 796              	.LVL41:
  90:DrumSynth.cpp ****         float hp = snare_highpass.High();
 797              		.loc 1 90 9 is_stmt 1 view .LVU238
 798              	.LBB146:
 799              	.LBI146:
  30:../../DaisySP//Source/Filters/svf.h ****     ~Svf() {}
  31:../../DaisySP//Source/Filters/svf.h ****     /** Initializes the filter
  32:../../DaisySP//Source/Filters/svf.h ****         float sample_rate - sample rate of the audio engine being run, and the frequency that the P
  33:../../DaisySP//Source/Filters/svf.h ****     */
  34:../../DaisySP//Source/Filters/svf.h ****     void Init(float sample_rate);
  35:../../DaisySP//Source/Filters/svf.h **** 
  36:../../DaisySP//Source/Filters/svf.h **** 
  37:../../DaisySP//Source/Filters/svf.h ****     /** 
  38:../../DaisySP//Source/Filters/svf.h ****         Process the input signal, updating all of the outputs.
  39:../../DaisySP//Source/Filters/svf.h ****     */
  40:../../DaisySP//Source/Filters/svf.h ****     void Process(float in);
  41:../../DaisySP//Source/Filters/svf.h **** 
  42:../../DaisySP//Source/Filters/svf.h **** 
  43:../../DaisySP//Source/Filters/svf.h ****     /** sets the frequency of the cutoff frequency. 
  44:../../DaisySP//Source/Filters/svf.h ****         f must be between 0.0 and sample_rate / 3
  45:../../DaisySP//Source/Filters/svf.h ****     */
  46:../../DaisySP//Source/Filters/svf.h ****     void SetFreq(float f);
  47:../../DaisySP//Source/Filters/svf.h **** 
  48:../../DaisySP//Source/Filters/svf.h ****     /** sets the resonance of the filter.
  49:../../DaisySP//Source/Filters/svf.h ****         Must be between 0.0 and 1.0 to ensure stability.
  50:../../DaisySP//Source/Filters/svf.h ****     */
  51:../../DaisySP//Source/Filters/svf.h ****     void SetRes(float r);
  52:../../DaisySP//Source/Filters/svf.h **** 
  53:../../DaisySP//Source/Filters/svf.h ****     /** sets the drive of the filter 
  54:../../DaisySP//Source/Filters/svf.h ****         affects the response of the resonance of the filter
  55:../../DaisySP//Source/Filters/svf.h ****     */
  56:../../DaisySP//Source/Filters/svf.h ****     void SetDrive(float d);
  57:../../DaisySP//Source/Filters/svf.h ****     /** lowpass output
  58:../../DaisySP//Source/Filters/svf.h ****         \return low pass output of the filter
  59:../../DaisySP//Source/Filters/svf.h ****     */
  60:../../DaisySP//Source/Filters/svf.h ****     inline float Low() { return out_low_; }
  61:../../DaisySP//Source/Filters/svf.h ****     /** highpass output
  62:../../DaisySP//Source/Filters/svf.h ****         \return high pass output of the filter
  63:../../DaisySP//Source/Filters/svf.h ****     */
  64:../../DaisySP//Source/Filters/svf.h ****     inline float High() { return out_high_; }
 800              		.loc 4 64 18 view .LVU239
 801              	.LBB147:
 802              		.loc 4 64 27 view .LVU240
 803              		.loc 4 64 27 is_stmt 0 view .LVU241
 804              	.LBE147:
 805              	.LBE146:
  91:DrumSynth.cpp ****         snare_lowpass.Process(hp);
 806              		.loc 1 91 9 is_stmt 1 view .LVU242
 807              		.loc 1 91 30 is_stmt 0 view .LVU243
 808 006e 94ED480A 		vldr.32	s0, [r4, #288]
 809 0072 04F59C70 		add	r0, r4, #312
ARM GAS  C:\Users\theja\AppData\Local\Temp\ccQkboaj.s 			page 22


 810 0076 FFF7FEFF 		bl	_ZN7daisysp3Svf7ProcessEf
 811              	.LVL42:
  92:DrumSynth.cpp **** 
  93:DrumSynth.cpp ****         return snare_lowpass.Low() * snare_amp;
 812              		.loc 1 93 9 is_stmt 1 view .LVU244
 813              	.LBB148:
 814              	.LBI148:
  60:../../DaisySP//Source/Filters/svf.h ****     /** highpass output
 815              		.loc 4 60 18 view .LVU245
 816              	.LBB149:
  60:../../DaisySP//Source/Filters/svf.h ****     /** highpass output
 817              		.loc 4 60 26 view .LVU246
  60:../../DaisySP//Source/Filters/svf.h ****     /** highpass output
 818              		.loc 4 60 26 is_stmt 0 view .LVU247
 819              	.LBE149:
 820              	.LBE148:
 821              		.loc 1 93 38 view .LVU248
 822 007a 94ED3A0A 		vldr.32	s0, [r4, #232]
 823 007e D4ED5A7A 		vldr.32	s15, [r4, #360]
 824              	.LBE150:
 825              	.LBE152:
  94:DrumSynth.cpp ****     } else {
  95:DrumSynth.cpp ****         return 0.f;
  96:DrumSynth.cpp ****     }
  97:DrumSynth.cpp **** }
 826              		.loc 1 97 1 view .LVU249
 827 0082 BDEC028B 		vldm	sp!, {d8}
 828              		.cfi_restore 80
 829              		.cfi_restore 81
 830              		.cfi_def_cfa_offset 8
 831              	.LBB153:
 832              	.LBB151:
  93:DrumSynth.cpp ****     } else {
 833              		.loc 1 93 38 view .LVU250
 834 0086 20EE270A 		vmul.f32	s0, s0, s15
 835              	.LBE151:
 836              	.LBE153:
 837              		.loc 1 97 1 view .LVU251
 838 008a 10BD     		pop	{r4, pc}
 839              	.LVL43:
 840              	.L26:
 841              		.cfi_def_cfa_offset 0
 842              		.cfi_restore 4
 843              		.cfi_restore 14
 844              	.LBB154:
  95:DrumSynth.cpp ****     }
 845              		.loc 1 95 16 view .LVU252
 846 008c 9FED020A 		vldr.32	s0, .L31+4
 847              	.LBE154:
 848              		.loc 1 97 1 view .LVU253
 849 0090 7047     		bx	lr
 850              	.L32:
 851 0092 00BF     		.align	2
 852              	.L31:
 853 0094 00000030 		.word	805306368
 854 0098 00000000 		.word	0
 855              		.cfi_endproc
ARM GAS  C:\Users\theja\AppData\Local\Temp\ccQkboaj.s 			page 23


 856              	.LFE3533:
 858              		.section	.text._ZNK9DrumSynth12snare_activeEv,"ax",%progbits
 859              		.align	1
 860              		.p2align 2,,3
 861              		.global	_ZNK9DrumSynth12snare_activeEv
 862              		.syntax unified
 863              		.thumb
 864              		.thumb_func
 865              		.fpu fpv5-d16
 867              	_ZNK9DrumSynth12snare_activeEv:
 868              	.LVL44:
 869              	.LFB3534:
  98:DrumSynth.cpp **** 
  99:DrumSynth.cpp **** bool DrumSynth::snare_active() const {
 870              		.loc 1 99 38 is_stmt 1 view -0
 871              		.cfi_startproc
 872              		@ args = 0, pretend = 0, frame = 0
 873              		@ frame_needed = 0, uses_anonymous_args = 0
 874              		@ link register save eliminated.
 100:DrumSynth.cpp ****     return snare_timer > 0.f;
 875              		.loc 1 100 5 view .LVU255
 876              		.loc 1 100 26 is_stmt 0 view .LVU256
 877 0000 D0ED397A 		vldr.32	s15, [r0, #228]
 878 0004 F5EEC07A 		vcmpe.f32	s15, #0
 879 0008 F1EE10FA 		vmrs	APSR_nzcv, FPSCR
 101:DrumSynth.cpp **** }
 880              		.loc 1 101 1 view .LVU257
 881 000c CCBF     		ite	gt
 882 000e 0120     		movgt	r0, #1
 883              	.LVL45:
 884              		.loc 1 101 1 view .LVU258
 885 0010 0020     		movle	r0, #0
 886 0012 7047     		bx	lr
 887              		.cfi_endproc
 888              	.LFE3534:
 890              		.section	.text._ZN9DrumSynth11trigger_hatEv,"ax",%progbits
 891              		.align	1
 892              		.p2align 2,,3
 893              		.global	_ZN9DrumSynth11trigger_hatEv
 894              		.syntax unified
 895              		.thumb
 896              		.thumb_func
 897              		.fpu fpv5-d16
 899              	_ZN9DrumSynth11trigger_hatEv:
 900              	.LVL46:
 901              	.LFB3535:
 102:DrumSynth.cpp **** 
 103:DrumSynth.cpp **** // Hat
 104:DrumSynth.cpp **** // =====================================================
 105:DrumSynth.cpp **** void DrumSynth::trigger_hat() {
 902              		.loc 1 105 31 is_stmt 1 view -0
 903              		.cfi_startproc
 904              		@ args = 0, pretend = 0, frame = 0
 905              		@ frame_needed = 0, uses_anonymous_args = 0
 906              		@ link register save eliminated.
 106:DrumSynth.cpp ****     hat_timer = sample_rate * hat_duration_s;
 907              		.loc 1 106 5 view .LVU260
ARM GAS  C:\Users\theja\AppData\Local\Temp\ccQkboaj.s 			page 24


 908              		.loc 1 106 29 is_stmt 0 view .LVU261
 909 0000 D0ED277A 		vldr.32	s15, [r0, #156]
 107:DrumSynth.cpp ****     hat_amp = 1.0f;
 910              		.loc 1 107 13 view .LVU262
 911 0004 4FF07E53 		mov	r3, #1065353216
 106:DrumSynth.cpp ****     hat_timer = sample_rate * hat_duration_s;
 912              		.loc 1 106 29 view .LVU263
 913 0008 90ED627A 		vldr.32	s14, [r0, #392]
 914              		.loc 1 107 13 view .LVU264
 915 000c C0F89031 		str	r3, [r0, #400]	@ float
 106:DrumSynth.cpp ****     hat_timer = sample_rate * hat_duration_s;
 916              		.loc 1 106 29 view .LVU265
 917 0010 67EE877A 		vmul.f32	s15, s15, s14
 106:DrumSynth.cpp ****     hat_timer = sample_rate * hat_duration_s;
 918              		.loc 1 106 15 view .LVU266
 919 0014 C0ED637A 		vstr.32	s15, [r0, #396]
 920              		.loc 1 107 5 is_stmt 1 view .LVU267
 108:DrumSynth.cpp **** }
 921              		.loc 1 108 1 is_stmt 0 view .LVU268
 922 0018 7047     		bx	lr
 923              		.cfi_endproc
 924              	.LFE3535:
 926 001a 00BF     		.section	.text._ZN9DrumSynth11process_hatEv,"ax",%progbits
 927              		.align	1
 928              		.p2align 2,,3
 929              		.global	_ZN9DrumSynth11process_hatEv
 930              		.syntax unified
 931              		.thumb
 932              		.thumb_func
 933              		.fpu fpv5-d16
 935              	_ZN9DrumSynth11process_hatEv:
 936              	.LVL47:
 937              	.LFB3536:
 109:DrumSynth.cpp **** 
 110:DrumSynth.cpp **** float DrumSynth::process_hat() {
 938              		.loc 1 110 32 is_stmt 1 view -0
 939              		.cfi_startproc
 940              		@ args = 0, pretend = 0, frame = 0
 941              		@ frame_needed = 0, uses_anonymous_args = 0
 111:DrumSynth.cpp ****     if (hat_timer > 0.f) {
 942              		.loc 1 111 5 view .LVU270
 943              	.LBB155:
 944              		.loc 1 111 9 is_stmt 0 view .LVU271
 945 0000 D0ED637A 		vldr.32	s15, [r0, #396]
 946              		.loc 1 111 5 view .LVU272
 947 0004 F5EEC07A 		vcmpe.f32	s15, #0
 948 0008 F1EE10FA 		vmrs	APSR_nzcv, FPSCR
 949 000c 2ADD     		ble	.L40
 950              	.LBB156:
 112:DrumSynth.cpp ****         hat_timer--;
 951              		.loc 1 112 9 is_stmt 1 view .LVU273
 952              		.loc 1 112 18 is_stmt 0 view .LVU274
 953 000e B7EE007A 		vmov.f32	s14, #1.0e+0
 954              	.LBE156:
 955              	.LBE155:
 110:DrumSynth.cpp ****     if (hat_timer > 0.f) {
 956              		.loc 1 110 32 view .LVU275
ARM GAS  C:\Users\theja\AppData\Local\Temp\ccQkboaj.s 			page 25


 957 0012 10B5     		push	{r4, lr}
 958              		.cfi_def_cfa_offset 8
 959              		.cfi_offset 4, -8
 960              		.cfi_offset 14, -4
 961              	.LBB162:
 962              	.LBB161:
 963              		.loc 1 112 18 view .LVU276
 964 0014 77EEC77A 		vsub.f32	s15, s15, s14
 965 0018 0446     		mov	r4, r0
 966 001a C0ED637A 		vstr.32	s15, [r0, #396]
 113:DrumSynth.cpp ****         // Random sample [-1.f, 1.f] for white noise burst
 114:DrumSynth.cpp ****          float hat_sample = (2.f * static_cast<float>(rand()) / RAND_MAX - 1.f);
 967              		.loc 1 114 10 is_stmt 1 view .LVU277
 968              		.loc 1 114 59 is_stmt 0 view .LVU278
 969 001e FFF7FEFF 		bl	rand
 970              	.LVL48:
 971              		.loc 1 114 36 view .LVU279
 972 0022 07EE900A 		vmov	s15, r0	@ int
 973              		.loc 1 114 79 view .LVU280
 974 0026 BFEE000A 		vmov.f32	s0, #-1.0e+0
 975 002a 9FED107A 		vldr.32	s14, .L45
 976              		.loc 1 114 36 view .LVU281
 977 002e F8EEE77A 		vcvt.f32.s32	s15, s15
 115:DrumSynth.cpp **** 
 116:DrumSynth.cpp ****         hat_highpass.Process(hat_sample);
 978              		.loc 1 116 29 view .LVU282
 979 0032 04F5CA70 		add	r0, r4, #404
 114:DrumSynth.cpp **** 
 980              		.loc 1 114 34 view .LVU283
 981 0036 77EEA77A 		vadd.f32	s15, s15, s15
 982              	.LVL49:
 983              		.loc 1 116 9 is_stmt 1 view .LVU284
 984              		.loc 1 116 29 is_stmt 0 view .LVU285
 985 003a A7EE870A 		vfma.f32	s0, s15, s14
 986              	.LVL50:
 987              		.loc 1 116 29 view .LVU286
 988 003e FFF7FEFF 		bl	_ZN7daisysp3Svf7ProcessEf
 989              	.LVL51:
 117:DrumSynth.cpp ****         float hp = hat_highpass.High();
 990              		.loc 1 117 9 is_stmt 1 view .LVU287
 991              	.LBB157:
 992              	.LBI157:
 993              		.loc 4 64 18 view .LVU288
 994              	.LBB158:
 995              		.loc 4 64 27 view .LVU289
 996              		.loc 4 64 27 is_stmt 0 view .LVU290
 997              	.LBE158:
 998              	.LBE157:
 118:DrumSynth.cpp ****         hat_lowpass.Process(hp);
 999              		.loc 1 118 9 is_stmt 1 view .LVU291
 1000              		.loc 1 118 28 is_stmt 0 view .LVU292
 1001 0042 94ED720A 		vldr.32	s0, [r4, #456]
 1002 0046 04F5F070 		add	r0, r4, #480
 1003 004a FFF7FEFF 		bl	_ZN7daisysp3Svf7ProcessEf
 1004              	.LVL52:
 119:DrumSynth.cpp **** 
 120:DrumSynth.cpp ****         return hat_lowpass.Low() * hat_amp * 0.4f;
ARM GAS  C:\Users\theja\AppData\Local\Temp\ccQkboaj.s 			page 26


 1005              		.loc 1 120 9 is_stmt 1 view .LVU293
 1006              	.LBB159:
 1007              	.LBI159:
  60:../../DaisySP//Source/Filters/svf.h ****     /** highpass output
 1008              		.loc 4 60 18 view .LVU294
 1009              	.LBB160:
  60:../../DaisySP//Source/Filters/svf.h ****     /** highpass output
 1010              		.loc 4 60 26 view .LVU295
  60:../../DaisySP//Source/Filters/svf.h ****     /** highpass output
 1011              		.loc 4 60 26 is_stmt 0 view .LVU296
 1012              	.LBE160:
 1013              	.LBE159:
 1014              		.loc 1 120 34 view .LVU297
 1015 004e 94ED640A 		vldr.32	s0, [r4, #400]
 1016 0052 94ED847A 		vldr.32	s14, [r4, #528]
 1017              		.loc 1 120 46 view .LVU298
 1018 0056 DFED067A 		vldr.32	s15, .L45+4
 1019              		.loc 1 120 34 view .LVU299
 1020 005a 20EE070A 		vmul.f32	s0, s0, s14
 1021              		.loc 1 120 46 view .LVU300
 1022 005e 20EE270A 		vmul.f32	s0, s0, s15
 1023              	.LBE161:
 1024              	.LBE162:
 121:DrumSynth.cpp ****     } else {
 122:DrumSynth.cpp ****         return 0.f;
 123:DrumSynth.cpp ****     }
 124:DrumSynth.cpp **** }
 1025              		.loc 1 124 1 view .LVU301
 1026 0062 10BD     		pop	{r4, pc}
 1027              	.LVL53:
 1028              	.L40:
 1029              		.cfi_def_cfa_offset 0
 1030              		.cfi_restore 4
 1031              		.cfi_restore 14
 1032              	.LBB163:
 122:DrumSynth.cpp ****     }
 1033              		.loc 1 122 16 view .LVU302
 1034 0064 9FED030A 		vldr.32	s0, .L45+8
 1035              	.LBE163:
 1036              		.loc 1 124 1 view .LVU303
 1037 0068 7047     		bx	lr
 1038              	.L46:
 1039 006a 00BF     		.align	2
 1040              	.L45:
 1041 006c 00000030 		.word	805306368
 1042 0070 CDCCCC3E 		.word	1053609165
 1043 0074 00000000 		.word	0
 1044              		.cfi_endproc
 1045              	.LFE3536:
 1047              		.section	.text._ZN9DrumSynth7processEv,"ax",%progbits
 1048              		.align	1
 1049              		.p2align 2,,3
 1050              		.global	_ZN9DrumSynth7processEv
 1051              		.syntax unified
 1052              		.thumb
 1053              		.thumb_func
 1054              		.fpu fpv5-d16
ARM GAS  C:\Users\theja\AppData\Local\Temp\ccQkboaj.s 			page 27


 1056              	_ZN9DrumSynth7processEv:
 1057              	.LVL54:
 1058              	.LFB3537:
 125:DrumSynth.cpp **** 
 126:DrumSynth.cpp **** float DrumSynth::process() {
 1059              		.loc 1 126 28 is_stmt 1 view -0
 1060              		.cfi_startproc
 1061              		@ args = 0, pretend = 0, frame = 0
 1062              		@ frame_needed = 0, uses_anonymous_args = 0
 127:DrumSynth.cpp ****     float kick_sample = process_kick() * 1.5f;
 1063              		.loc 1 127 5 view .LVU305
 1064              	.LBB166:
 1065              	.LBB167:
  62:DrumSynth.cpp ****         kick_timer--;
 1066              		.loc 1 62 9 is_stmt 0 view .LVU306
 1067 0000 D0ED2A7A 		vldr.32	s15, [r0, #168]
  62:DrumSynth.cpp ****         kick_timer--;
 1068              		.loc 1 62 5 view .LVU307
 1069 0004 F5EEC07A 		vcmpe.f32	s15, #0
 1070              	.LBE167:
 1071              	.LBE166:
 126:DrumSynth.cpp ****     float kick_sample = process_kick() * 1.5f;
 1072              		.loc 1 126 28 view .LVU308
 1073 0008 10B5     		push	{r4, lr}
 1074              		.cfi_def_cfa_offset 8
 1075              		.cfi_offset 4, -8
 1076              		.cfi_offset 14, -4
 1077              	.LBB173:
 1078              	.LBB168:
  62:DrumSynth.cpp ****         kick_timer--;
 1079              		.loc 1 62 5 view .LVU309
 1080 000a F1EE10FA 		vmrs	APSR_nzcv, FPSCR
 1081              	.LBE168:
 1082              	.LBE173:
 126:DrumSynth.cpp ****     float kick_sample = process_kick() * 1.5f;
 1083              		.loc 1 126 28 view .LVU310
 1084 000e 0446     		mov	r4, r0
 1085              	.LVL55:
 1086              	.LBB174:
 1087              	.LBI166:
  61:DrumSynth.cpp ****     if (kick_timer > 0.f) {
 1088              		.loc 1 61 7 is_stmt 1 view .LVU311
 1089              	.LBB169:
  62:DrumSynth.cpp ****         kick_timer--;
 1090              		.loc 1 62 5 view .LVU312
 1091              	.LBE169:
 1092              	.LBE174:
 126:DrumSynth.cpp ****     float kick_sample = process_kick() * 1.5f;
 1093              		.loc 1 126 28 is_stmt 0 view .LVU313
 1094 0010 2DED028B 		vpush.64	{d8}
 1095              		.cfi_def_cfa_offset 16
 1096              		.cfi_offset 80, -16
 1097              		.cfi_offset 81, -12
 1098              	.LBB175:
 1099              	.LBB170:
  62:DrumSynth.cpp ****         kick_timer--;
 1100              		.loc 1 62 5 view .LVU314
ARM GAS  C:\Users\theja\AppData\Local\Temp\ccQkboaj.s 			page 28


 1101 0014 30DD     		ble	.L52
  63:DrumSynth.cpp ****         kick_amp -= (1.f/(sample_rate * kick_duration_s));
 1102              		.loc 1 63 9 is_stmt 1 view .LVU315
  64:DrumSynth.cpp ****         return kick_osc.Process() * kick_amp;
 1103              		.loc 1 64 39 is_stmt 0 view .LVU316
 1104 0016 D0ED295A 		vldr.32	s11, [r0, #164]
  63:DrumSynth.cpp ****         kick_amp -= (1.f/(sample_rate * kick_duration_s));
 1105              		.loc 1 63 19 view .LVU317
 1106 001a B7EE006A 		vmov.f32	s12, #1.0e+0
  64:DrumSynth.cpp ****         return kick_osc.Process() * kick_amp;
 1107              		.loc 1 64 39 view .LVU318
 1108 001e D0ED276A 		vldr.32	s13, [r0, #156]
  64:DrumSynth.cpp ****         return kick_osc.Process() * kick_amp;
 1109              		.loc 1 64 18 view .LVU319
 1110 0022 90ED2B7A 		vldr.32	s14, [r0, #172]
  64:DrumSynth.cpp ****         return kick_osc.Process() * kick_amp;
 1111              		.loc 1 64 39 view .LVU320
 1112 0026 66EEA56A 		vmul.f32	s13, s13, s11
  63:DrumSynth.cpp ****         kick_amp -= (1.f/(sample_rate * kick_duration_s));
 1113              		.loc 1 63 19 view .LVU321
 1114 002a 77EEC67A 		vsub.f32	s15, s15, s12
  64:DrumSynth.cpp ****         return kick_osc.Process() * kick_amp;
 1115              		.loc 1 64 25 view .LVU322
 1116 002e C6EE265A 		vdiv.f32	s11, s12, s13
  63:DrumSynth.cpp ****         kick_amp -= (1.f/(sample_rate * kick_duration_s));
 1117              		.loc 1 63 19 view .LVU323
 1118 0032 C0ED2A7A 		vstr.32	s15, [r0, #168]
  64:DrumSynth.cpp ****         return kick_osc.Process() * kick_amp;
 1119              		.loc 1 64 9 is_stmt 1 view .LVU324
  64:DrumSynth.cpp ****         return kick_osc.Process() * kick_amp;
 1120              		.loc 1 64 18 is_stmt 0 view .LVU325
 1121 0036 77EE657A 		vsub.f32	s15, s14, s11
 1122 003a C0ED2B7A 		vstr.32	s15, [r0, #172]
  65:DrumSynth.cpp ****     } else {
 1123              		.loc 1 65 9 is_stmt 1 view .LVU326
  65:DrumSynth.cpp ****     } else {
 1124              		.loc 1 65 32 is_stmt 0 view .LVU327
 1125 003e FFF7FEFF 		bl	_ZN7daisysp10Oscillator7ProcessEv
 1126              	.LVL56:
  65:DrumSynth.cpp ****     } else {
 1127              		.loc 1 65 37 view .LVU328
 1128 0042 94ED2B8A 		vldr.32	s16, [r4, #172]
 1129              	.LBE170:
 1130              	.LBE175:
 1131              		.loc 1 127 42 view .LVU329
 1132 0046 F7EE087A 		vmov.f32	s15, #1.5e+0
 1133              	.LBB176:
 1134              	.LBB171:
  65:DrumSynth.cpp ****     } else {
 1135              		.loc 1 65 37 view .LVU330
 1136 004a 20EE080A 		vmul.f32	s0, s0, s16
 1137              	.LBE171:
 1138              	.LBE176:
 1139              		.loc 1 127 42 view .LVU331
 1140 004e 20EE278A 		vmul.f32	s16, s0, s15
 1141              	.L48:
 1142              	.LVL57:
ARM GAS  C:\Users\theja\AppData\Local\Temp\ccQkboaj.s 			page 29


 128:DrumSynth.cpp ****     float snare_sample = process_snare();
 1143              		.loc 1 128 5 is_stmt 1 view .LVU332
 1144              		.loc 1 128 39 is_stmt 0 view .LVU333
 1145 0052 2046     		mov	r0, r4
 1146 0054 FFF7FEFF 		bl	_ZN9DrumSynth13process_snareEv
 1147              	.LVL58:
 1148 0058 F0EE408A 		vmov.f32	s17, s0
 1149              	.LVL59:
 129:DrumSynth.cpp ****     float hat_sample = process_hat() * 0.4f;
 1150              		.loc 1 129 5 is_stmt 1 view .LVU334
 1151              		.loc 1 129 35 is_stmt 0 view .LVU335
 1152 005c 2046     		mov	r0, r4
 1153 005e FFF7FEFF 		bl	_ZN9DrumSynth11process_hatEv
 1154              	.LVL60:
 130:DrumSynth.cpp ****     return (kick_sample + snare_sample + hat_sample);
 1155              		.loc 1 130 5 is_stmt 1 view .LVU336
 1156              		.loc 1 130 52 is_stmt 0 view .LVU337
 1157 0062 9FED077A 		vldr.32	s14, .L54
 1158              		.loc 1 130 25 view .LVU338
 1159 0066 38EE288A 		vadd.f32	s16, s16, s17
 131:DrumSynth.cpp **** }
 1160              		.loc 1 131 1 view .LVU339
 1161 006a A0EE078A 		vfma.f32	s16, s0, s14
 1162 006e B0EE480A 		vmov.f32	s0, s16
 1163              	.LVL61:
 1164              		.loc 1 131 1 view .LVU340
 1165 0072 BDEC028B 		vldm	sp!, {d8}
 1166              		.cfi_remember_state
 1167              		.cfi_restore 80
 1168              		.cfi_restore 81
 1169              		.cfi_def_cfa_offset 8
 1170 0076 10BD     		pop	{r4, pc}
 1171              	.LVL62:
 1172              	.L52:
 1173              		.cfi_restore_state
 1174              	.LBB177:
 1175              	.LBB172:
 1176              		.loc 1 131 1 view .LVU341
 1177 0078 9FED028A 		vldr.32	s16, .L54+4
 1178 007c E9E7     		b	.L48
 1179              	.L55:
 1180 007e 00BF     		.align	2
 1181              	.L54:
 1182 0080 CDCCCC3E 		.word	1053609165
 1183 0084 00000000 		.word	0
 1184              	.LBE172:
 1185              	.LBE177:
 1186              		.cfi_endproc
 1187              	.LFE3537:
 1189              		.text
 1190              	.Letext0:
 1191              		.file 5 "c:\\program files\\daisytoolchain\\arm-none-eabi\\include\\machine\\_default_types.h"
 1192              		.file 6 "c:\\program files\\daisytoolchain\\arm-none-eabi\\include\\sys\\_stdint.h"
 1193              		.file 7 "c:\\program files\\daisytoolchain\\arm-none-eabi\\include\\stdint.h"
 1194              		.file 8 "c:\\program files\\daisytoolchain\\lib\\gcc\\arm-none-eabi\\10.2.1\\include\\stddef.h"
 1195              		.file 9 "c:\\program files\\daisytoolchain\\arm-none-eabi\\include\\c++\\10.2.1\\cmath"
 1196              		.file 10 "c:\\program files\\daisytoolchain\\arm-none-eabi\\include\\c++\\10.2.1\\bits\\std_abs.h"
ARM GAS  C:\Users\theja\AppData\Local\Temp\ccQkboaj.s 			page 30


 1197              		.file 11 "c:\\program files\\daisytoolchain\\arm-none-eabi\\include\\c++\\10.2.1\\cstdint"
 1198              		.file 12 "c:\\program files\\daisytoolchain\\arm-none-eabi\\include\\c++\\10.2.1\\cstdlib"
 1199              		.file 13 "c:\\program files\\daisytoolchain\\arm-none-eabi\\include\\c++\\10.2.1\\type_traits"
 1200              		.file 14 "c:\\program files\\daisytoolchain\\arm-none-eabi\\include\\c++\\10.2.1\\debug\\debug.h"
 1201              		.file 15 "c:\\program files\\daisytoolchain\\arm-none-eabi\\include\\c++\\10.2.1\\cwchar"
 1202              		.file 16 "c:\\program files\\daisytoolchain\\arm-none-eabi\\include\\c++\\10.2.1\\bits\\stl_pair.h
 1203              		.file 17 "c:\\program files\\daisytoolchain\\arm-none-eabi\\include\\c++\\10.2.1\\bits\\exception_
 1204              		.file 18 "c:\\program files\\daisytoolchain\\arm-none-eabi\\include\\c++\\10.2.1\\arm-none-eabi\\t
 1205              		.file 19 "c:\\program files\\daisytoolchain\\arm-none-eabi\\include\\c++\\10.2.1\\clocale"
 1206              		.file 20 "c:\\program files\\daisytoolchain\\arm-none-eabi\\include\\c++\\10.2.1\\cstdio"
 1207              		.file 21 "c:\\program files\\daisytoolchain\\arm-none-eabi\\include\\c++\\10.2.1\\bits\\basic_stri
 1208              		.file 22 "c:\\program files\\daisytoolchain\\arm-none-eabi\\include\\c++\\10.2.1\\bits\\charconv.h
 1209              		.file 23 "c:\\program files\\daisytoolchain\\arm-none-eabi\\include\\c++\\10.2.1\\bits\\algorithmf
 1210              		.file 24 "c:\\program files\\daisytoolchain\\arm-none-eabi\\include\\c++\\10.2.1\\cstring"
 1211              		.file 25 "c:\\program files\\daisytoolchain\\arm-none-eabi\\include\\c++\\10.2.1\\bits\\predefined
 1212              		.file 26 "c:\\program files\\daisytoolchain\\arm-none-eabi\\include\\sys\\_types.h"
 1213              		.file 27 "c:\\program files\\daisytoolchain\\arm-none-eabi\\include\\sys\\reent.h"
 1214              		.file 28 "c:\\program files\\daisytoolchain\\arm-none-eabi\\include\\sys\\lock.h"
 1215              		.file 29 "c:\\program files\\daisytoolchain\\arm-none-eabi\\include\\math.h"
 1216              		.file 30 "c:\\program files\\daisytoolchain\\arm-none-eabi\\include\\stdlib.h"
 1217              		.file 31 "c:\\program files\\daisytoolchain\\arm-none-eabi\\include\\c++\\10.2.1\\math.h"
 1218              		.file 32 "../../DaisySP//Source/Utility/dsp.h"
 1219              		.file 33 "c:\\program files\\daisytoolchain\\lib\\gcc\\arm-none-eabi\\10.2.1\\include\\stdarg.h"
 1220              		.file 34 "c:\\program files\\daisytoolchain\\arm-none-eabi\\include\\wchar.h"
 1221              		.file 35 "c:\\program files\\daisytoolchain\\arm-none-eabi\\include\\locale.h"
 1222              		.file 36 "c:\\program files\\daisytoolchain\\arm-none-eabi\\include\\stdio.h"
 1223              		.file 37 "c:\\program files\\daisytoolchain\\arm-none-eabi\\include\\c++\\10.2.1\\stdlib.h"
 1224              		.file 38 "c:\\program files\\daisytoolchain\\arm-none-eabi\\include\\string.h"
 1225              		.file 39 "DrumSynth.h"
 1226              		.file 40 "<built-in>"
ARM GAS  C:\Users\theja\AppData\Local\Temp\ccQkboaj.s 			page 31


DEFINED SYMBOLS
                            *ABS*:00000000 DrumSynth.cpp
C:\Users\theja\AppData\Local\Temp\ccQkboaj.s:17     .text._ZN9DrumSynthC2Ef:00000000 $t
C:\Users\theja\AppData\Local\Temp\ccQkboaj.s:26     .text._ZN9DrumSynthC2Ef:00000000 _ZN9DrumSynthC2Ef
C:\Users\theja\AppData\Local\Temp\ccQkboaj.s:514    .text._ZN9DrumSynthC2Ef:00000188 $d
C:\Users\theja\AppData\Local\Temp\ccQkboaj.s:26     .text._ZN9DrumSynthC2Ef:00000000 _ZN9DrumSynthC1Ef
C:\Users\theja\AppData\Local\Temp\ccQkboaj.s:530    .text._ZN9DrumSynth12trigger_kickEv:00000000 $t
C:\Users\theja\AppData\Local\Temp\ccQkboaj.s:538    .text._ZN9DrumSynth12trigger_kickEv:00000000 _ZN9DrumSynth12trigger_kickEv
C:\Users\theja\AppData\Local\Temp\ccQkboaj.s:566    .text._ZN9DrumSynth12process_kickEv:00000000 $t
C:\Users\theja\AppData\Local\Temp\ccQkboaj.s:574    .text._ZN9DrumSynth12process_kickEv:00000000 _ZN9DrumSynth12process_kickEv
C:\Users\theja\AppData\Local\Temp\ccQkboaj.s:636    .text._ZN9DrumSynth12process_kickEv:00000050 $d
C:\Users\theja\AppData\Local\Temp\ccQkboaj.s:641    .text._ZNK9DrumSynth11kick_activeEv:00000000 $t
C:\Users\theja\AppData\Local\Temp\ccQkboaj.s:649    .text._ZNK9DrumSynth11kick_activeEv:00000000 _ZNK9DrumSynth11kick_activeEv
C:\Users\theja\AppData\Local\Temp\ccQkboaj.s:673    .text._ZN9DrumSynth13trigger_snareEv:00000000 $t
C:\Users\theja\AppData\Local\Temp\ccQkboaj.s:681    .text._ZN9DrumSynth13trigger_snareEv:00000000 _ZN9DrumSynth13trigger_snareEv
C:\Users\theja\AppData\Local\Temp\ccQkboaj.s:709    .text._ZN9DrumSynth13process_snareEv:00000000 $t
C:\Users\theja\AppData\Local\Temp\ccQkboaj.s:717    .text._ZN9DrumSynth13process_snareEv:00000000 _ZN9DrumSynth13process_snareEv
C:\Users\theja\AppData\Local\Temp\ccQkboaj.s:853    .text._ZN9DrumSynth13process_snareEv:00000094 $d
C:\Users\theja\AppData\Local\Temp\ccQkboaj.s:859    .text._ZNK9DrumSynth12snare_activeEv:00000000 $t
C:\Users\theja\AppData\Local\Temp\ccQkboaj.s:867    .text._ZNK9DrumSynth12snare_activeEv:00000000 _ZNK9DrumSynth12snare_activeEv
C:\Users\theja\AppData\Local\Temp\ccQkboaj.s:891    .text._ZN9DrumSynth11trigger_hatEv:00000000 $t
C:\Users\theja\AppData\Local\Temp\ccQkboaj.s:899    .text._ZN9DrumSynth11trigger_hatEv:00000000 _ZN9DrumSynth11trigger_hatEv
C:\Users\theja\AppData\Local\Temp\ccQkboaj.s:927    .text._ZN9DrumSynth11process_hatEv:00000000 $t
C:\Users\theja\AppData\Local\Temp\ccQkboaj.s:935    .text._ZN9DrumSynth11process_hatEv:00000000 _ZN9DrumSynth11process_hatEv
C:\Users\theja\AppData\Local\Temp\ccQkboaj.s:1041   .text._ZN9DrumSynth11process_hatEv:0000006c $d
C:\Users\theja\AppData\Local\Temp\ccQkboaj.s:1048   .text._ZN9DrumSynth7processEv:00000000 $t
C:\Users\theja\AppData\Local\Temp\ccQkboaj.s:1056   .text._ZN9DrumSynth7processEv:00000000 _ZN9DrumSynth7processEv
C:\Users\theja\AppData\Local\Temp\ccQkboaj.s:1182   .text._ZN9DrumSynth7processEv:00000080 $d

UNDEFINED SYMBOLS
_ZN7daisysp10Oscillator12CalcPhaseIncEf
_ZN7daisysp3Svf4InitEf
_ZN7daisysp3Svf7SetFreqEf
_ZN7daisysp3Svf6SetResEf
_ZN7daisysp10Oscillator7ProcessEv
rand
_ZN7daisysp3Svf7ProcessEf
