ARM GAS  C:\Users\theja\AppData\Local\Temp\ccV0pz5d.s 			page 1


   1              		.cpu cortex-m7
   2              		.eabi_attribute 28, 1
   3              		.eabi_attribute 20, 1
   4              		.eabi_attribute 21, 1
   5              		.eabi_attribute 23, 3
   6              		.eabi_attribute 24, 1
   7              		.eabi_attribute 25, 1
   8              		.eabi_attribute 26, 1
   9              		.eabi_attribute 30, 2
  10              		.eabi_attribute 34, 1
  11              		.eabi_attribute 18, 4
  12              		.file	"Sequencer.cpp"
  13              		.text
  14              	.Ltext0:
  15              		.cfi_sections	.debug_frame
  16              		.section	.text._ZN9Sequencer4tickEv,"ax",%progbits
  17              		.align	1
  18              		.p2align 2,,3
  19              		.global	_ZN9Sequencer4tickEv
  20              		.arch armv7e-m
  21              		.syntax unified
  22              		.thumb
  23              		.thumb_func
  24              		.fpu fpv5-d16
  26              	_ZN9Sequencer4tickEv:
  27              	.LVL0:
  28              	.LFB4305:
  29              		.file 1 "Sequencer.cpp"
   1:Sequencer.cpp **** /*
   2:Sequencer.cpp **** GNU General Public License v3.0
   3:Sequencer.cpp **** Author: Jack Payne
   4:Sequencer.cpp **** 
   5:Sequencer.cpp ****  _______             __                                __                                  __ 
   6:Sequencer.cpp **** /       \           /  |                              /  |                                /  |
   7:Sequencer.cpp **** BBBBBBB  |  ______  BB/  ________   ______    _______ BB |____    ______    ______    ____BB |
   8:Sequencer.cpp **** BB |__BB | /      \ /  |/        | /      \  /       |BB      \  /      \  /      \  /    BB |
   9:Sequencer.cpp **** BB    BB< /BBBBBB  |BB |BBBBBBBB/  BBBBBB  |/BBBBBBB/ BBBBBBB  |/BBBBBB  |/BBBBBB  |/BBBBBBB |
  10:Sequencer.cpp **** BBBBBBB  |BB |  BB/ BB |  /  BB/   /    BB |BB |      BB |  BB |BB |  BB |BB |  BB/ BB |  BB |
  11:Sequencer.cpp **** BB |__BB |BB |      BB | /BBBB/__ /BBBBBBB |BB \_____ BB |  BB |BB \__BB |BB |      BB \__BB |
  12:Sequencer.cpp **** BB    BB/ BB |      BB |/BB      |BB    BB |BB       |BB |  BB |BB    BB/ BB |      BB    BB |
  13:Sequencer.cpp **** BBBBBBB/  BB/       BB/ BBBBBBBB/  BBBBBBB/  BBBBBBB/ BB/   BB/  BBBBBB/  BB/        BBBBBBB/	v1.0
  14:Sequencer.cpp **** */
  15:Sequencer.cpp **** 
  16:Sequencer.cpp **** #include "Sequencer.h"
  17:Sequencer.cpp **** 
  18:Sequencer.cpp **** Sequencer::Sequencer(float sample_rate, DrumSynth& drum_synth, ChordSynth& chord_synth) 
  19:Sequencer.cpp ****     :  bpm(105), sample_rate(sample_rate), drum_synth(drum_synth), chord_synth(chord_synth) {
  20:Sequencer.cpp ****         init_sequences();
  21:Sequencer.cpp ****     }
  22:Sequencer.cpp **** 
  23:Sequencer.cpp **** void Sequencer::tick() {
  30              		.loc 1 23 24 view -0
  31              		.cfi_startproc
  32              		@ args = 0, pretend = 0, frame = 88
  33              		@ frame_needed = 0, uses_anonymous_args = 0
  24:Sequencer.cpp ****     int SAMPLES_IN_BAR = static_cast<int>(sample_rate * ((60.f * 4.f )/ bpm));
  34              		.loc 1 24 5 view .LVU1
ARM GAS  C:\Users\theja\AppData\Local\Temp\ccV0pz5d.s 			page 2


  23:Sequencer.cpp ****     int SAMPLES_IN_BAR = static_cast<int>(sample_rate * ((60.f * 4.f )/ bpm));
  35              		.loc 1 23 24 is_stmt 0 view .LVU2
  36 0000 70B5     		push	{r4, r5, r6, lr}
  37              		.cfi_def_cfa_offset 16
  38              		.cfi_offset 4, -16
  39              		.cfi_offset 5, -12
  40              		.cfi_offset 6, -8
  41              		.cfi_offset 14, -4
  42              		.loc 1 24 73 view .LVU3
  43 0002 4378     		ldrb	r3, [r0, #1]	@ zero_extendqisi2
  23:Sequencer.cpp ****     int SAMPLES_IN_BAR = static_cast<int>(sample_rate * ((60.f * 4.f )/ bpm));
  44              		.loc 1 23 24 view .LVU4
  45 0004 96B0     		sub	sp, sp, #88
  46              		.cfi_def_cfa_offset 104
  47              		.loc 1 24 71 view .LVU5
  48 0006 9FED2F6A 		vldr.32	s12, .L35
  23:Sequencer.cpp ****     int SAMPLES_IN_BAR = static_cast<int>(sample_rate * ((60.f * 4.f )/ bpm));
  49              		.loc 1 23 24 view .LVU6
  50 000a 0446     		mov	r4, r0
  51              		.loc 1 24 73 view .LVU7
  52 000c 07EE103A 		vmov	s14, r3	@ int
  53              		.loc 1 24 55 view .LVU8
  54 0010 D0ED016A 		vldr.32	s13, [r0, #4]
  25:Sequencer.cpp ****     int step_duration = SAMPLES_IN_BAR / 16;
  26:Sequencer.cpp ****     int current_step = current_tick / step_duration;
  55              		.loc 1 26 24 view .LVU9
  56 0014 8268     		ldr	r2, [r0, #8]
  24:Sequencer.cpp ****     int step_duration = SAMPLES_IN_BAR / 16;
  57              		.loc 1 24 71 view .LVU10
  58 0016 B8EEC77A 		vcvt.f32.s32	s14, s14
  59 001a C6EE077A 		vdiv.f32	s15, s12, s14
  24:Sequencer.cpp ****     int step_duration = SAMPLES_IN_BAR / 16;
  60              		.loc 1 24 55 view .LVU11
  61 001e 67EEA67A 		vmul.f32	s15, s15, s13
  24:Sequencer.cpp ****     int step_duration = SAMPLES_IN_BAR / 16;
  62              		.loc 1 24 9 view .LVU12
  63 0022 FDEEE77A 		vcvt.s32.f32	s15, s15
  64 0026 17EE905A 		vmov	r5, s15	@ int
  65              	.LVL1:
  25:Sequencer.cpp ****     int step_duration = SAMPLES_IN_BAR / 16;
  66              		.loc 1 25 5 is_stmt 1 view .LVU13
  25:Sequencer.cpp ****     int step_duration = SAMPLES_IN_BAR / 16;
  67              		.loc 1 25 9 is_stmt 0 view .LVU14
  68 002a 002D     		cmp	r5, #0
  69 002c B4BF     		ite	lt
  70 002e 05F10F03 		addlt	r3, r5, #15
  71 0032 17EE903A 		vmovge	r3, s15	@ int
  72 0036 1B11     		asrs	r3, r3, #4
  73              	.LVL2:
  74              		.loc 1 26 5 is_stmt 1 view .LVU15
  75              		.loc 1 26 9 is_stmt 0 view .LVU16
  76 0038 92FBF3F1 		sdiv	r1, r2, r3
  77              	.LVL3:
  27:Sequencer.cpp **** 
  28:Sequencer.cpp ****     // If at a 16th note
  29:Sequencer.cpp ****     if (current_tick % step_duration == 0 && current_step < 16) {
  78              		.loc 1 29 5 is_stmt 1 view .LVU17
ARM GAS  C:\Users\theja\AppData\Local\Temp\ccV0pz5d.s 			page 3


  79              	.LBB276:
  80              		.loc 1 29 22 is_stmt 0 view .LVU18
  81 003c 03FB1123 		mls	r3, r3, r1, r2
  82              	.LVL4:
  83              		.loc 1 29 43 view .LVU19
  84 0040 0BB9     		cbnz	r3, .L3
  85              	.LVL5:
  86              		.loc 1 29 43 view .LVU20
  87 0042 0F29     		cmp	r1, #15
  88 0044 09DD     		ble	.L30
  89              	.LVL6:
  90              	.L3:
  91              		.loc 1 29 43 view .LVU21
  92              	.LBE276:
  30:Sequencer.cpp ****         auto seq = sequences[sequence_idx];
  31:Sequencer.cpp ****         if (seq.drum_sequence.kick_steps[current_step])    drum_synth.trigger_kick();
  32:Sequencer.cpp ****         if (seq.drum_sequence.snare_steps[current_step])   drum_synth.trigger_snare();
  33:Sequencer.cpp ****         if (seq.drum_sequence.hat_steps[current_step])     drum_synth.trigger_hat();
  34:Sequencer.cpp **** 
  35:Sequencer.cpp ****         chord_synth.enable(); 
  36:Sequencer.cpp ****         if (groove) {
  37:Sequencer.cpp ****             chord_synth.set_bass_note(seq.bass_sequence[current_step]);
  38:Sequencer.cpp ****             if (!seq.chord_sequence[current_step]) {
  39:Sequencer.cpp ****                 chord_synth.disable();
  40:Sequencer.cpp ****             }
  41:Sequencer.cpp ****         }    
  42:Sequencer.cpp ****     }
  43:Sequencer.cpp **** 
  44:Sequencer.cpp ****     current_tick++;
  93              		.loc 1 44 5 is_stmt 1 view .LVU22
  94              		.loc 1 44 17 is_stmt 0 view .LVU23
  95 0046 0132     		adds	r2, r2, #1
  45:Sequencer.cpp ****     if (current_tick >= SAMPLES_IN_BAR)
  96              		.loc 1 45 5 is_stmt 1 view .LVU24
  97 0048 AA42     		cmp	r2, r5
  98 004a 02DA     		bge	.L10
  44:Sequencer.cpp ****     if (current_tick >= SAMPLES_IN_BAR)
  99              		.loc 1 44 17 is_stmt 0 view .LVU25
 100 004c A260     		str	r2, [r4, #8]
  46:Sequencer.cpp ****         current_tick = 0;
  47:Sequencer.cpp **** }
 101              		.loc 1 47 1 view .LVU26
 102 004e 16B0     		add	sp, sp, #88
 103              		.cfi_remember_state
 104              		.cfi_def_cfa_offset 16
 105              		@ sp needed
 106 0050 70BD     		pop	{r4, r5, r6, pc}
 107              	.LVL7:
 108              	.L10:
 109              		.cfi_restore_state
  46:Sequencer.cpp ****         current_tick = 0;
 110              		.loc 1 46 9 is_stmt 1 view .LVU27
  46:Sequencer.cpp ****         current_tick = 0;
 111              		.loc 1 46 22 is_stmt 0 view .LVU28
 112 0052 0023     		movs	r3, #0
 113 0054 A360     		str	r3, [r4, #8]
 114              		.loc 1 47 1 view .LVU29
ARM GAS  C:\Users\theja\AppData\Local\Temp\ccV0pz5d.s 			page 4


 115 0056 16B0     		add	sp, sp, #88
 116              		.cfi_remember_state
 117              		.cfi_def_cfa_offset 16
 118              		@ sp needed
 119 0058 70BD     		pop	{r4, r5, r6, pc}
 120              	.LVL8:
 121              	.L30:
 122              		.cfi_restore_state
 123              	.LBB301:
 124              	.LBB277:
  30:Sequencer.cpp ****         if (seq.drum_sequence.kick_steps[current_step])    drum_synth.trigger_kick();
 125              		.loc 1 30 9 is_stmt 1 view .LVU30
 126              	.LBB278:
 127              	.LBI278:
 128              		.file 2 "c:\\program files\\daisytoolchain\\arm-none-eabi\\include\\c++\\10.2.1\\bits\\stl_vector.
   1:c:\program files\daisytoolchain\arm-none-eabi\include\c++\10.2.1\bits\stl_vector.h **** // Vector implementation -*- C++ -*-
   2:c:\program files\daisytoolchain\arm-none-eabi\include\c++\10.2.1\bits\stl_vector.h **** 
   3:c:\program files\daisytoolchain\arm-none-eabi\include\c++\10.2.1\bits\stl_vector.h **** // Copyright (C) 2001-2020 Free Software Foundation, Inc.
   4:c:\program files\daisytoolchain\arm-none-eabi\include\c++\10.2.1\bits\stl_vector.h **** //
   5:c:\program files\daisytoolchain\arm-none-eabi\include\c++\10.2.1\bits\stl_vector.h **** // This file is part of the GNU ISO C++ Library.  This library is free
   6:c:\program files\daisytoolchain\arm-none-eabi\include\c++\10.2.1\bits\stl_vector.h **** // software; you can redistribute it and/or modify it under the
   7:c:\program files\daisytoolchain\arm-none-eabi\include\c++\10.2.1\bits\stl_vector.h **** // terms of the GNU General Public License as published by the
   8:c:\program files\daisytoolchain\arm-none-eabi\include\c++\10.2.1\bits\stl_vector.h **** // Free Software Foundation; either version 3, or (at your option)
   9:c:\program files\daisytoolchain\arm-none-eabi\include\c++\10.2.1\bits\stl_vector.h **** // any later version.
  10:c:\program files\daisytoolchain\arm-none-eabi\include\c++\10.2.1\bits\stl_vector.h **** 
  11:c:\program files\daisytoolchain\arm-none-eabi\include\c++\10.2.1\bits\stl_vector.h **** // This library is distributed in the hope that it will be useful,
  12:c:\program files\daisytoolchain\arm-none-eabi\include\c++\10.2.1\bits\stl_vector.h **** // but WITHOUT ANY WARRANTY; without even the implied warranty of
  13:c:\program files\daisytoolchain\arm-none-eabi\include\c++\10.2.1\bits\stl_vector.h **** // MERCHANTABILITY or FITNESS FOR A PARTICULAR PURPOSE.  See the
  14:c:\program files\daisytoolchain\arm-none-eabi\include\c++\10.2.1\bits\stl_vector.h **** // GNU General Public License for more details.
  15:c:\program files\daisytoolchain\arm-none-eabi\include\c++\10.2.1\bits\stl_vector.h **** 
  16:c:\program files\daisytoolchain\arm-none-eabi\include\c++\10.2.1\bits\stl_vector.h **** // Under Section 7 of GPL version 3, you are granted additional
  17:c:\program files\daisytoolchain\arm-none-eabi\include\c++\10.2.1\bits\stl_vector.h **** // permissions described in the GCC Runtime Library Exception, version
  18:c:\program files\daisytoolchain\arm-none-eabi\include\c++\10.2.1\bits\stl_vector.h **** // 3.1, as published by the Free Software Foundation.
  19:c:\program files\daisytoolchain\arm-none-eabi\include\c++\10.2.1\bits\stl_vector.h **** 
  20:c:\program files\daisytoolchain\arm-none-eabi\include\c++\10.2.1\bits\stl_vector.h **** // You should have received a copy of the GNU General Public License and
  21:c:\program files\daisytoolchain\arm-none-eabi\include\c++\10.2.1\bits\stl_vector.h **** // a copy of the GCC Runtime Library Exception along with this program;
  22:c:\program files\daisytoolchain\arm-none-eabi\include\c++\10.2.1\bits\stl_vector.h **** // see the files COPYING3 and COPYING.RUNTIME respectively.  If not, see
  23:c:\program files\daisytoolchain\arm-none-eabi\include\c++\10.2.1\bits\stl_vector.h **** // <http://www.gnu.org/licenses/>.
  24:c:\program files\daisytoolchain\arm-none-eabi\include\c++\10.2.1\bits\stl_vector.h **** 
  25:c:\program files\daisytoolchain\arm-none-eabi\include\c++\10.2.1\bits\stl_vector.h **** /*
  26:c:\program files\daisytoolchain\arm-none-eabi\include\c++\10.2.1\bits\stl_vector.h ****  *
  27:c:\program files\daisytoolchain\arm-none-eabi\include\c++\10.2.1\bits\stl_vector.h ****  * Copyright (c) 1994
  28:c:\program files\daisytoolchain\arm-none-eabi\include\c++\10.2.1\bits\stl_vector.h ****  * Hewlett-Packard Company
  29:c:\program files\daisytoolchain\arm-none-eabi\include\c++\10.2.1\bits\stl_vector.h ****  *
  30:c:\program files\daisytoolchain\arm-none-eabi\include\c++\10.2.1\bits\stl_vector.h ****  * Permission to use, copy, modify, distribute and sell this software
  31:c:\program files\daisytoolchain\arm-none-eabi\include\c++\10.2.1\bits\stl_vector.h ****  * and its documentation for any purpose is hereby granted without fee,
  32:c:\program files\daisytoolchain\arm-none-eabi\include\c++\10.2.1\bits\stl_vector.h ****  * provided that the above copyright notice appear in all copies and
  33:c:\program files\daisytoolchain\arm-none-eabi\include\c++\10.2.1\bits\stl_vector.h ****  * that both that copyright notice and this permission notice appear
  34:c:\program files\daisytoolchain\arm-none-eabi\include\c++\10.2.1\bits\stl_vector.h ****  * in supporting documentation.  Hewlett-Packard Company makes no
  35:c:\program files\daisytoolchain\arm-none-eabi\include\c++\10.2.1\bits\stl_vector.h ****  * representations about the suitability of this software for any
  36:c:\program files\daisytoolchain\arm-none-eabi\include\c++\10.2.1\bits\stl_vector.h ****  * purpose.  It is provided "as is" without express or implied warranty.
  37:c:\program files\daisytoolchain\arm-none-eabi\include\c++\10.2.1\bits\stl_vector.h ****  *
  38:c:\program files\daisytoolchain\arm-none-eabi\include\c++\10.2.1\bits\stl_vector.h ****  *
  39:c:\program files\daisytoolchain\arm-none-eabi\include\c++\10.2.1\bits\stl_vector.h ****  * Copyright (c) 1996
  40:c:\program files\daisytoolchain\arm-none-eabi\include\c++\10.2.1\bits\stl_vector.h ****  * Silicon Graphics Computer Systems, Inc.
  41:c:\program files\daisytoolchain\arm-none-eabi\include\c++\10.2.1\bits\stl_vector.h ****  *
  42:c:\program files\daisytoolchain\arm-none-eabi\include\c++\10.2.1\bits\stl_vector.h ****  * Permission to use, copy, modify, distribute and sell this software
ARM GAS  C:\Users\theja\AppData\Local\Temp\ccV0pz5d.s 			page 5


  43:c:\program files\daisytoolchain\arm-none-eabi\include\c++\10.2.1\bits\stl_vector.h ****  * and its documentation for any purpose is hereby granted without fee,
  44:c:\program files\daisytoolchain\arm-none-eabi\include\c++\10.2.1\bits\stl_vector.h ****  * provided that the above copyright notice appear in all copies and
  45:c:\program files\daisytoolchain\arm-none-eabi\include\c++\10.2.1\bits\stl_vector.h ****  * that both that copyright notice and this permission notice appear
  46:c:\program files\daisytoolchain\arm-none-eabi\include\c++\10.2.1\bits\stl_vector.h ****  * in supporting documentation.  Silicon Graphics makes no
  47:c:\program files\daisytoolchain\arm-none-eabi\include\c++\10.2.1\bits\stl_vector.h ****  * representations about the suitability of this  software for any
  48:c:\program files\daisytoolchain\arm-none-eabi\include\c++\10.2.1\bits\stl_vector.h ****  * purpose.  It is provided "as is" without express or implied warranty.
  49:c:\program files\daisytoolchain\arm-none-eabi\include\c++\10.2.1\bits\stl_vector.h ****  */
  50:c:\program files\daisytoolchain\arm-none-eabi\include\c++\10.2.1\bits\stl_vector.h **** 
  51:c:\program files\daisytoolchain\arm-none-eabi\include\c++\10.2.1\bits\stl_vector.h **** /** @file bits/stl_vector.h
  52:c:\program files\daisytoolchain\arm-none-eabi\include\c++\10.2.1\bits\stl_vector.h ****  *  This is an internal header file, included by other library headers.
  53:c:\program files\daisytoolchain\arm-none-eabi\include\c++\10.2.1\bits\stl_vector.h ****  *  Do not attempt to use it directly. @headername{vector}
  54:c:\program files\daisytoolchain\arm-none-eabi\include\c++\10.2.1\bits\stl_vector.h ****  */
  55:c:\program files\daisytoolchain\arm-none-eabi\include\c++\10.2.1\bits\stl_vector.h **** 
  56:c:\program files\daisytoolchain\arm-none-eabi\include\c++\10.2.1\bits\stl_vector.h **** #ifndef _STL_VECTOR_H
  57:c:\program files\daisytoolchain\arm-none-eabi\include\c++\10.2.1\bits\stl_vector.h **** #define _STL_VECTOR_H 1
  58:c:\program files\daisytoolchain\arm-none-eabi\include\c++\10.2.1\bits\stl_vector.h **** 
  59:c:\program files\daisytoolchain\arm-none-eabi\include\c++\10.2.1\bits\stl_vector.h **** #include <bits/stl_iterator_base_funcs.h>
  60:c:\program files\daisytoolchain\arm-none-eabi\include\c++\10.2.1\bits\stl_vector.h **** #include <bits/functexcept.h>
  61:c:\program files\daisytoolchain\arm-none-eabi\include\c++\10.2.1\bits\stl_vector.h **** #include <bits/concept_check.h>
  62:c:\program files\daisytoolchain\arm-none-eabi\include\c++\10.2.1\bits\stl_vector.h **** #if __cplusplus >= 201103L
  63:c:\program files\daisytoolchain\arm-none-eabi\include\c++\10.2.1\bits\stl_vector.h **** #include <initializer_list>
  64:c:\program files\daisytoolchain\arm-none-eabi\include\c++\10.2.1\bits\stl_vector.h **** #endif
  65:c:\program files\daisytoolchain\arm-none-eabi\include\c++\10.2.1\bits\stl_vector.h **** #if __cplusplus > 201703L
  66:c:\program files\daisytoolchain\arm-none-eabi\include\c++\10.2.1\bits\stl_vector.h **** # include <compare>
  67:c:\program files\daisytoolchain\arm-none-eabi\include\c++\10.2.1\bits\stl_vector.h **** #endif
  68:c:\program files\daisytoolchain\arm-none-eabi\include\c++\10.2.1\bits\stl_vector.h **** 
  69:c:\program files\daisytoolchain\arm-none-eabi\include\c++\10.2.1\bits\stl_vector.h **** #include <debug/assertions.h>
  70:c:\program files\daisytoolchain\arm-none-eabi\include\c++\10.2.1\bits\stl_vector.h **** 
  71:c:\program files\daisytoolchain\arm-none-eabi\include\c++\10.2.1\bits\stl_vector.h **** #if _GLIBCXX_SANITIZE_STD_ALLOCATOR && _GLIBCXX_SANITIZE_VECTOR
  72:c:\program files\daisytoolchain\arm-none-eabi\include\c++\10.2.1\bits\stl_vector.h **** extern "C" void
  73:c:\program files\daisytoolchain\arm-none-eabi\include\c++\10.2.1\bits\stl_vector.h **** __sanitizer_annotate_contiguous_container(const void*, const void*,
  74:c:\program files\daisytoolchain\arm-none-eabi\include\c++\10.2.1\bits\stl_vector.h **** 					  const void*, const void*);
  75:c:\program files\daisytoolchain\arm-none-eabi\include\c++\10.2.1\bits\stl_vector.h **** #endif
  76:c:\program files\daisytoolchain\arm-none-eabi\include\c++\10.2.1\bits\stl_vector.h **** 
  77:c:\program files\daisytoolchain\arm-none-eabi\include\c++\10.2.1\bits\stl_vector.h **** namespace std _GLIBCXX_VISIBILITY(default)
  78:c:\program files\daisytoolchain\arm-none-eabi\include\c++\10.2.1\bits\stl_vector.h **** {
  79:c:\program files\daisytoolchain\arm-none-eabi\include\c++\10.2.1\bits\stl_vector.h **** _GLIBCXX_BEGIN_NAMESPACE_VERSION
  80:c:\program files\daisytoolchain\arm-none-eabi\include\c++\10.2.1\bits\stl_vector.h **** _GLIBCXX_BEGIN_NAMESPACE_CONTAINER
  81:c:\program files\daisytoolchain\arm-none-eabi\include\c++\10.2.1\bits\stl_vector.h **** 
  82:c:\program files\daisytoolchain\arm-none-eabi\include\c++\10.2.1\bits\stl_vector.h ****   /// See bits/stl_deque.h's _Deque_base for an explanation.
  83:c:\program files\daisytoolchain\arm-none-eabi\include\c++\10.2.1\bits\stl_vector.h ****   template<typename _Tp, typename _Alloc>
  84:c:\program files\daisytoolchain\arm-none-eabi\include\c++\10.2.1\bits\stl_vector.h ****     struct _Vector_base
  85:c:\program files\daisytoolchain\arm-none-eabi\include\c++\10.2.1\bits\stl_vector.h ****     {
  86:c:\program files\daisytoolchain\arm-none-eabi\include\c++\10.2.1\bits\stl_vector.h ****       typedef typename __gnu_cxx::__alloc_traits<_Alloc>::template
  87:c:\program files\daisytoolchain\arm-none-eabi\include\c++\10.2.1\bits\stl_vector.h **** 	rebind<_Tp>::other _Tp_alloc_type;
  88:c:\program files\daisytoolchain\arm-none-eabi\include\c++\10.2.1\bits\stl_vector.h ****       typedef typename __gnu_cxx::__alloc_traits<_Tp_alloc_type>::pointer
  89:c:\program files\daisytoolchain\arm-none-eabi\include\c++\10.2.1\bits\stl_vector.h ****        	pointer;
  90:c:\program files\daisytoolchain\arm-none-eabi\include\c++\10.2.1\bits\stl_vector.h **** 
  91:c:\program files\daisytoolchain\arm-none-eabi\include\c++\10.2.1\bits\stl_vector.h ****       struct _Vector_impl_data
  92:c:\program files\daisytoolchain\arm-none-eabi\include\c++\10.2.1\bits\stl_vector.h ****       {
  93:c:\program files\daisytoolchain\arm-none-eabi\include\c++\10.2.1\bits\stl_vector.h **** 	pointer _M_start;
  94:c:\program files\daisytoolchain\arm-none-eabi\include\c++\10.2.1\bits\stl_vector.h **** 	pointer _M_finish;
  95:c:\program files\daisytoolchain\arm-none-eabi\include\c++\10.2.1\bits\stl_vector.h **** 	pointer _M_end_of_storage;
  96:c:\program files\daisytoolchain\arm-none-eabi\include\c++\10.2.1\bits\stl_vector.h **** 
  97:c:\program files\daisytoolchain\arm-none-eabi\include\c++\10.2.1\bits\stl_vector.h **** 	_Vector_impl_data() _GLIBCXX_NOEXCEPT
  98:c:\program files\daisytoolchain\arm-none-eabi\include\c++\10.2.1\bits\stl_vector.h **** 	: _M_start(), _M_finish(), _M_end_of_storage()
  99:c:\program files\daisytoolchain\arm-none-eabi\include\c++\10.2.1\bits\stl_vector.h **** 	{ }
ARM GAS  C:\Users\theja\AppData\Local\Temp\ccV0pz5d.s 			page 6


 100:c:\program files\daisytoolchain\arm-none-eabi\include\c++\10.2.1\bits\stl_vector.h **** 
 101:c:\program files\daisytoolchain\arm-none-eabi\include\c++\10.2.1\bits\stl_vector.h **** #if __cplusplus >= 201103L
 102:c:\program files\daisytoolchain\arm-none-eabi\include\c++\10.2.1\bits\stl_vector.h **** 	_Vector_impl_data(_Vector_impl_data&& __x) noexcept
 103:c:\program files\daisytoolchain\arm-none-eabi\include\c++\10.2.1\bits\stl_vector.h **** 	: _M_start(__x._M_start), _M_finish(__x._M_finish),
 104:c:\program files\daisytoolchain\arm-none-eabi\include\c++\10.2.1\bits\stl_vector.h **** 	  _M_end_of_storage(__x._M_end_of_storage)
 105:c:\program files\daisytoolchain\arm-none-eabi\include\c++\10.2.1\bits\stl_vector.h **** 	{ __x._M_start = __x._M_finish = __x._M_end_of_storage = pointer(); }
 106:c:\program files\daisytoolchain\arm-none-eabi\include\c++\10.2.1\bits\stl_vector.h **** #endif
 107:c:\program files\daisytoolchain\arm-none-eabi\include\c++\10.2.1\bits\stl_vector.h **** 
 108:c:\program files\daisytoolchain\arm-none-eabi\include\c++\10.2.1\bits\stl_vector.h **** 	void
 109:c:\program files\daisytoolchain\arm-none-eabi\include\c++\10.2.1\bits\stl_vector.h **** 	_M_copy_data(_Vector_impl_data const& __x) _GLIBCXX_NOEXCEPT
 110:c:\program files\daisytoolchain\arm-none-eabi\include\c++\10.2.1\bits\stl_vector.h **** 	{
 111:c:\program files\daisytoolchain\arm-none-eabi\include\c++\10.2.1\bits\stl_vector.h **** 	  _M_start = __x._M_start;
 112:c:\program files\daisytoolchain\arm-none-eabi\include\c++\10.2.1\bits\stl_vector.h **** 	  _M_finish = __x._M_finish;
 113:c:\program files\daisytoolchain\arm-none-eabi\include\c++\10.2.1\bits\stl_vector.h **** 	  _M_end_of_storage = __x._M_end_of_storage;
 114:c:\program files\daisytoolchain\arm-none-eabi\include\c++\10.2.1\bits\stl_vector.h **** 	}
 115:c:\program files\daisytoolchain\arm-none-eabi\include\c++\10.2.1\bits\stl_vector.h **** 
 116:c:\program files\daisytoolchain\arm-none-eabi\include\c++\10.2.1\bits\stl_vector.h **** 	void
 117:c:\program files\daisytoolchain\arm-none-eabi\include\c++\10.2.1\bits\stl_vector.h **** 	_M_swap_data(_Vector_impl_data& __x) _GLIBCXX_NOEXCEPT
 118:c:\program files\daisytoolchain\arm-none-eabi\include\c++\10.2.1\bits\stl_vector.h **** 	{
 119:c:\program files\daisytoolchain\arm-none-eabi\include\c++\10.2.1\bits\stl_vector.h **** 	  // Do not use std::swap(_M_start, __x._M_start), etc as it loses
 120:c:\program files\daisytoolchain\arm-none-eabi\include\c++\10.2.1\bits\stl_vector.h **** 	  // information used by TBAA.
 121:c:\program files\daisytoolchain\arm-none-eabi\include\c++\10.2.1\bits\stl_vector.h **** 	  _Vector_impl_data __tmp;
 122:c:\program files\daisytoolchain\arm-none-eabi\include\c++\10.2.1\bits\stl_vector.h **** 	  __tmp._M_copy_data(*this);
 123:c:\program files\daisytoolchain\arm-none-eabi\include\c++\10.2.1\bits\stl_vector.h **** 	  _M_copy_data(__x);
 124:c:\program files\daisytoolchain\arm-none-eabi\include\c++\10.2.1\bits\stl_vector.h **** 	  __x._M_copy_data(__tmp);
 125:c:\program files\daisytoolchain\arm-none-eabi\include\c++\10.2.1\bits\stl_vector.h **** 	}
 126:c:\program files\daisytoolchain\arm-none-eabi\include\c++\10.2.1\bits\stl_vector.h ****       };
 127:c:\program files\daisytoolchain\arm-none-eabi\include\c++\10.2.1\bits\stl_vector.h **** 
 128:c:\program files\daisytoolchain\arm-none-eabi\include\c++\10.2.1\bits\stl_vector.h ****       struct _Vector_impl
 129:c:\program files\daisytoolchain\arm-none-eabi\include\c++\10.2.1\bits\stl_vector.h **** 	: public _Tp_alloc_type, public _Vector_impl_data
 130:c:\program files\daisytoolchain\arm-none-eabi\include\c++\10.2.1\bits\stl_vector.h ****       {
 131:c:\program files\daisytoolchain\arm-none-eabi\include\c++\10.2.1\bits\stl_vector.h **** 	_Vector_impl() _GLIBCXX_NOEXCEPT_IF(
 132:c:\program files\daisytoolchain\arm-none-eabi\include\c++\10.2.1\bits\stl_vector.h **** 	    is_nothrow_default_constructible<_Tp_alloc_type>::value)
 133:c:\program files\daisytoolchain\arm-none-eabi\include\c++\10.2.1\bits\stl_vector.h **** 	: _Tp_alloc_type()
 134:c:\program files\daisytoolchain\arm-none-eabi\include\c++\10.2.1\bits\stl_vector.h **** 	{ }
 135:c:\program files\daisytoolchain\arm-none-eabi\include\c++\10.2.1\bits\stl_vector.h **** 
 136:c:\program files\daisytoolchain\arm-none-eabi\include\c++\10.2.1\bits\stl_vector.h **** 	_Vector_impl(_Tp_alloc_type const& __a) _GLIBCXX_NOEXCEPT
 137:c:\program files\daisytoolchain\arm-none-eabi\include\c++\10.2.1\bits\stl_vector.h **** 	: _Tp_alloc_type(__a)
 138:c:\program files\daisytoolchain\arm-none-eabi\include\c++\10.2.1\bits\stl_vector.h **** 	{ }
 139:c:\program files\daisytoolchain\arm-none-eabi\include\c++\10.2.1\bits\stl_vector.h **** 
 140:c:\program files\daisytoolchain\arm-none-eabi\include\c++\10.2.1\bits\stl_vector.h **** #if __cplusplus >= 201103L
 141:c:\program files\daisytoolchain\arm-none-eabi\include\c++\10.2.1\bits\stl_vector.h **** 	// Not defaulted, to enforce noexcept(true) even when
 142:c:\program files\daisytoolchain\arm-none-eabi\include\c++\10.2.1\bits\stl_vector.h **** 	// !is_nothrow_move_constructible<_Tp_alloc_type>.
 143:c:\program files\daisytoolchain\arm-none-eabi\include\c++\10.2.1\bits\stl_vector.h **** 	_Vector_impl(_Vector_impl&& __x) noexcept
 144:c:\program files\daisytoolchain\arm-none-eabi\include\c++\10.2.1\bits\stl_vector.h **** 	: _Tp_alloc_type(std::move(__x)), _Vector_impl_data(std::move(__x))
 145:c:\program files\daisytoolchain\arm-none-eabi\include\c++\10.2.1\bits\stl_vector.h **** 	{ }
 146:c:\program files\daisytoolchain\arm-none-eabi\include\c++\10.2.1\bits\stl_vector.h **** 
 147:c:\program files\daisytoolchain\arm-none-eabi\include\c++\10.2.1\bits\stl_vector.h **** 	_Vector_impl(_Tp_alloc_type&& __a) noexcept
 148:c:\program files\daisytoolchain\arm-none-eabi\include\c++\10.2.1\bits\stl_vector.h **** 	: _Tp_alloc_type(std::move(__a))
 149:c:\program files\daisytoolchain\arm-none-eabi\include\c++\10.2.1\bits\stl_vector.h **** 	{ }
 150:c:\program files\daisytoolchain\arm-none-eabi\include\c++\10.2.1\bits\stl_vector.h **** 
 151:c:\program files\daisytoolchain\arm-none-eabi\include\c++\10.2.1\bits\stl_vector.h **** 	_Vector_impl(_Tp_alloc_type&& __a, _Vector_impl&& __rv) noexcept
 152:c:\program files\daisytoolchain\arm-none-eabi\include\c++\10.2.1\bits\stl_vector.h **** 	: _Tp_alloc_type(std::move(__a)), _Vector_impl_data(std::move(__rv))
 153:c:\program files\daisytoolchain\arm-none-eabi\include\c++\10.2.1\bits\stl_vector.h **** 	{ }
 154:c:\program files\daisytoolchain\arm-none-eabi\include\c++\10.2.1\bits\stl_vector.h **** #endif
 155:c:\program files\daisytoolchain\arm-none-eabi\include\c++\10.2.1\bits\stl_vector.h **** 
 156:c:\program files\daisytoolchain\arm-none-eabi\include\c++\10.2.1\bits\stl_vector.h **** #if _GLIBCXX_SANITIZE_STD_ALLOCATOR && _GLIBCXX_SANITIZE_VECTOR
ARM GAS  C:\Users\theja\AppData\Local\Temp\ccV0pz5d.s 			page 7


 157:c:\program files\daisytoolchain\arm-none-eabi\include\c++\10.2.1\bits\stl_vector.h **** 	template<typename = _Tp_alloc_type>
 158:c:\program files\daisytoolchain\arm-none-eabi\include\c++\10.2.1\bits\stl_vector.h **** 	  struct _Asan
 159:c:\program files\daisytoolchain\arm-none-eabi\include\c++\10.2.1\bits\stl_vector.h **** 	  {
 160:c:\program files\daisytoolchain\arm-none-eabi\include\c++\10.2.1\bits\stl_vector.h **** 	    typedef typename __gnu_cxx::__alloc_traits<_Tp_alloc_type>
 161:c:\program files\daisytoolchain\arm-none-eabi\include\c++\10.2.1\bits\stl_vector.h **** 	      ::size_type size_type;
 162:c:\program files\daisytoolchain\arm-none-eabi\include\c++\10.2.1\bits\stl_vector.h **** 
 163:c:\program files\daisytoolchain\arm-none-eabi\include\c++\10.2.1\bits\stl_vector.h **** 	    static void _S_shrink(_Vector_impl&, size_type) { }
 164:c:\program files\daisytoolchain\arm-none-eabi\include\c++\10.2.1\bits\stl_vector.h **** 	    static void _S_on_dealloc(_Vector_impl&) { }
 165:c:\program files\daisytoolchain\arm-none-eabi\include\c++\10.2.1\bits\stl_vector.h **** 
 166:c:\program files\daisytoolchain\arm-none-eabi\include\c++\10.2.1\bits\stl_vector.h **** 	    typedef _Vector_impl& _Reinit;
 167:c:\program files\daisytoolchain\arm-none-eabi\include\c++\10.2.1\bits\stl_vector.h **** 
 168:c:\program files\daisytoolchain\arm-none-eabi\include\c++\10.2.1\bits\stl_vector.h **** 	    struct _Grow
 169:c:\program files\daisytoolchain\arm-none-eabi\include\c++\10.2.1\bits\stl_vector.h **** 	    {
 170:c:\program files\daisytoolchain\arm-none-eabi\include\c++\10.2.1\bits\stl_vector.h **** 	      _Grow(_Vector_impl&, size_type) { }
 171:c:\program files\daisytoolchain\arm-none-eabi\include\c++\10.2.1\bits\stl_vector.h **** 	      void _M_grew(size_type) { }
 172:c:\program files\daisytoolchain\arm-none-eabi\include\c++\10.2.1\bits\stl_vector.h **** 	    };
 173:c:\program files\daisytoolchain\arm-none-eabi\include\c++\10.2.1\bits\stl_vector.h **** 	  };
 174:c:\program files\daisytoolchain\arm-none-eabi\include\c++\10.2.1\bits\stl_vector.h **** 
 175:c:\program files\daisytoolchain\arm-none-eabi\include\c++\10.2.1\bits\stl_vector.h **** 	// Enable ASan annotations for memory obtained from std::allocator.
 176:c:\program files\daisytoolchain\arm-none-eabi\include\c++\10.2.1\bits\stl_vector.h **** 	template<typename _Up>
 177:c:\program files\daisytoolchain\arm-none-eabi\include\c++\10.2.1\bits\stl_vector.h **** 	  struct _Asan<allocator<_Up> >
 178:c:\program files\daisytoolchain\arm-none-eabi\include\c++\10.2.1\bits\stl_vector.h **** 	  {
 179:c:\program files\daisytoolchain\arm-none-eabi\include\c++\10.2.1\bits\stl_vector.h **** 	    typedef typename __gnu_cxx::__alloc_traits<_Tp_alloc_type>
 180:c:\program files\daisytoolchain\arm-none-eabi\include\c++\10.2.1\bits\stl_vector.h **** 	      ::size_type size_type;
 181:c:\program files\daisytoolchain\arm-none-eabi\include\c++\10.2.1\bits\stl_vector.h **** 
 182:c:\program files\daisytoolchain\arm-none-eabi\include\c++\10.2.1\bits\stl_vector.h **** 	    // Adjust ASan annotation for [_M_start, _M_end_of_storage) to
 183:c:\program files\daisytoolchain\arm-none-eabi\include\c++\10.2.1\bits\stl_vector.h **** 	    // mark end of valid region as __curr instead of __prev.
 184:c:\program files\daisytoolchain\arm-none-eabi\include\c++\10.2.1\bits\stl_vector.h **** 	    static void
 185:c:\program files\daisytoolchain\arm-none-eabi\include\c++\10.2.1\bits\stl_vector.h **** 	    _S_adjust(_Vector_impl& __impl, pointer __prev, pointer __curr)
 186:c:\program files\daisytoolchain\arm-none-eabi\include\c++\10.2.1\bits\stl_vector.h **** 	    {
 187:c:\program files\daisytoolchain\arm-none-eabi\include\c++\10.2.1\bits\stl_vector.h **** 	      __sanitizer_annotate_contiguous_container(__impl._M_start,
 188:c:\program files\daisytoolchain\arm-none-eabi\include\c++\10.2.1\bits\stl_vector.h **** 		  __impl._M_end_of_storage, __prev, __curr);
 189:c:\program files\daisytoolchain\arm-none-eabi\include\c++\10.2.1\bits\stl_vector.h **** 	    }
 190:c:\program files\daisytoolchain\arm-none-eabi\include\c++\10.2.1\bits\stl_vector.h **** 
 191:c:\program files\daisytoolchain\arm-none-eabi\include\c++\10.2.1\bits\stl_vector.h **** 	    static void
 192:c:\program files\daisytoolchain\arm-none-eabi\include\c++\10.2.1\bits\stl_vector.h **** 	    _S_grow(_Vector_impl& __impl, size_type __n)
 193:c:\program files\daisytoolchain\arm-none-eabi\include\c++\10.2.1\bits\stl_vector.h **** 	    { _S_adjust(__impl, __impl._M_finish, __impl._M_finish + __n); }
 194:c:\program files\daisytoolchain\arm-none-eabi\include\c++\10.2.1\bits\stl_vector.h **** 
 195:c:\program files\daisytoolchain\arm-none-eabi\include\c++\10.2.1\bits\stl_vector.h **** 	    static void
 196:c:\program files\daisytoolchain\arm-none-eabi\include\c++\10.2.1\bits\stl_vector.h **** 	    _S_shrink(_Vector_impl& __impl, size_type __n)
 197:c:\program files\daisytoolchain\arm-none-eabi\include\c++\10.2.1\bits\stl_vector.h **** 	    { _S_adjust(__impl, __impl._M_finish + __n, __impl._M_finish); }
 198:c:\program files\daisytoolchain\arm-none-eabi\include\c++\10.2.1\bits\stl_vector.h **** 
 199:c:\program files\daisytoolchain\arm-none-eabi\include\c++\10.2.1\bits\stl_vector.h **** 	    static void
 200:c:\program files\daisytoolchain\arm-none-eabi\include\c++\10.2.1\bits\stl_vector.h **** 	    _S_on_dealloc(_Vector_impl& __impl)
 201:c:\program files\daisytoolchain\arm-none-eabi\include\c++\10.2.1\bits\stl_vector.h **** 	    {
 202:c:\program files\daisytoolchain\arm-none-eabi\include\c++\10.2.1\bits\stl_vector.h **** 	      if (__impl._M_start)
 203:c:\program files\daisytoolchain\arm-none-eabi\include\c++\10.2.1\bits\stl_vector.h **** 		_S_adjust(__impl, __impl._M_finish, __impl._M_end_of_storage);
 204:c:\program files\daisytoolchain\arm-none-eabi\include\c++\10.2.1\bits\stl_vector.h **** 	    }
 205:c:\program files\daisytoolchain\arm-none-eabi\include\c++\10.2.1\bits\stl_vector.h **** 
 206:c:\program files\daisytoolchain\arm-none-eabi\include\c++\10.2.1\bits\stl_vector.h **** 	    // Used on reallocation to tell ASan unused capacity is invalid.
 207:c:\program files\daisytoolchain\arm-none-eabi\include\c++\10.2.1\bits\stl_vector.h **** 	    struct _Reinit
 208:c:\program files\daisytoolchain\arm-none-eabi\include\c++\10.2.1\bits\stl_vector.h **** 	    {
 209:c:\program files\daisytoolchain\arm-none-eabi\include\c++\10.2.1\bits\stl_vector.h **** 	      explicit _Reinit(_Vector_impl& __impl) : _M_impl(__impl)
 210:c:\program files\daisytoolchain\arm-none-eabi\include\c++\10.2.1\bits\stl_vector.h **** 	      {
 211:c:\program files\daisytoolchain\arm-none-eabi\include\c++\10.2.1\bits\stl_vector.h **** 		// Mark unused capacity as valid again before deallocating it.
 212:c:\program files\daisytoolchain\arm-none-eabi\include\c++\10.2.1\bits\stl_vector.h **** 		_S_on_dealloc(_M_impl);
 213:c:\program files\daisytoolchain\arm-none-eabi\include\c++\10.2.1\bits\stl_vector.h **** 	      }
ARM GAS  C:\Users\theja\AppData\Local\Temp\ccV0pz5d.s 			page 8


 214:c:\program files\daisytoolchain\arm-none-eabi\include\c++\10.2.1\bits\stl_vector.h **** 
 215:c:\program files\daisytoolchain\arm-none-eabi\include\c++\10.2.1\bits\stl_vector.h **** 	      ~_Reinit()
 216:c:\program files\daisytoolchain\arm-none-eabi\include\c++\10.2.1\bits\stl_vector.h **** 	      {
 217:c:\program files\daisytoolchain\arm-none-eabi\include\c++\10.2.1\bits\stl_vector.h **** 		// Mark unused capacity as invalid after reallocation.
 218:c:\program files\daisytoolchain\arm-none-eabi\include\c++\10.2.1\bits\stl_vector.h **** 		if (_M_impl._M_start)
 219:c:\program files\daisytoolchain\arm-none-eabi\include\c++\10.2.1\bits\stl_vector.h **** 		  _S_adjust(_M_impl, _M_impl._M_end_of_storage,
 220:c:\program files\daisytoolchain\arm-none-eabi\include\c++\10.2.1\bits\stl_vector.h **** 			    _M_impl._M_finish);
 221:c:\program files\daisytoolchain\arm-none-eabi\include\c++\10.2.1\bits\stl_vector.h **** 	      }
 222:c:\program files\daisytoolchain\arm-none-eabi\include\c++\10.2.1\bits\stl_vector.h **** 
 223:c:\program files\daisytoolchain\arm-none-eabi\include\c++\10.2.1\bits\stl_vector.h **** 	      _Vector_impl& _M_impl;
 224:c:\program files\daisytoolchain\arm-none-eabi\include\c++\10.2.1\bits\stl_vector.h **** 
 225:c:\program files\daisytoolchain\arm-none-eabi\include\c++\10.2.1\bits\stl_vector.h **** #if __cplusplus >= 201103L
 226:c:\program files\daisytoolchain\arm-none-eabi\include\c++\10.2.1\bits\stl_vector.h **** 	      _Reinit(const _Reinit&) = delete;
 227:c:\program files\daisytoolchain\arm-none-eabi\include\c++\10.2.1\bits\stl_vector.h **** 	      _Reinit& operator=(const _Reinit&) = delete;
 228:c:\program files\daisytoolchain\arm-none-eabi\include\c++\10.2.1\bits\stl_vector.h **** #endif
 229:c:\program files\daisytoolchain\arm-none-eabi\include\c++\10.2.1\bits\stl_vector.h **** 	    };
 230:c:\program files\daisytoolchain\arm-none-eabi\include\c++\10.2.1\bits\stl_vector.h **** 
 231:c:\program files\daisytoolchain\arm-none-eabi\include\c++\10.2.1\bits\stl_vector.h **** 	    // Tell ASan when unused capacity is initialized to be valid.
 232:c:\program files\daisytoolchain\arm-none-eabi\include\c++\10.2.1\bits\stl_vector.h **** 	    struct _Grow
 233:c:\program files\daisytoolchain\arm-none-eabi\include\c++\10.2.1\bits\stl_vector.h **** 	    {
 234:c:\program files\daisytoolchain\arm-none-eabi\include\c++\10.2.1\bits\stl_vector.h **** 	      _Grow(_Vector_impl& __impl, size_type __n)
 235:c:\program files\daisytoolchain\arm-none-eabi\include\c++\10.2.1\bits\stl_vector.h **** 	      : _M_impl(__impl), _M_n(__n)
 236:c:\program files\daisytoolchain\arm-none-eabi\include\c++\10.2.1\bits\stl_vector.h **** 	      { _S_grow(_M_impl, __n); }
 237:c:\program files\daisytoolchain\arm-none-eabi\include\c++\10.2.1\bits\stl_vector.h **** 
 238:c:\program files\daisytoolchain\arm-none-eabi\include\c++\10.2.1\bits\stl_vector.h **** 	      ~_Grow() { if (_M_n) _S_shrink(_M_impl, _M_n); }
 239:c:\program files\daisytoolchain\arm-none-eabi\include\c++\10.2.1\bits\stl_vector.h **** 
 240:c:\program files\daisytoolchain\arm-none-eabi\include\c++\10.2.1\bits\stl_vector.h **** 	      void _M_grew(size_type __n) { _M_n -= __n; }
 241:c:\program files\daisytoolchain\arm-none-eabi\include\c++\10.2.1\bits\stl_vector.h **** 
 242:c:\program files\daisytoolchain\arm-none-eabi\include\c++\10.2.1\bits\stl_vector.h **** #if __cplusplus >= 201103L
 243:c:\program files\daisytoolchain\arm-none-eabi\include\c++\10.2.1\bits\stl_vector.h **** 	      _Grow(const _Grow&) = delete;
 244:c:\program files\daisytoolchain\arm-none-eabi\include\c++\10.2.1\bits\stl_vector.h **** 	      _Grow& operator=(const _Grow&) = delete;
 245:c:\program files\daisytoolchain\arm-none-eabi\include\c++\10.2.1\bits\stl_vector.h **** #endif
 246:c:\program files\daisytoolchain\arm-none-eabi\include\c++\10.2.1\bits\stl_vector.h **** 	    private:
 247:c:\program files\daisytoolchain\arm-none-eabi\include\c++\10.2.1\bits\stl_vector.h **** 	      _Vector_impl& _M_impl;
 248:c:\program files\daisytoolchain\arm-none-eabi\include\c++\10.2.1\bits\stl_vector.h **** 	      size_type _M_n;
 249:c:\program files\daisytoolchain\arm-none-eabi\include\c++\10.2.1\bits\stl_vector.h **** 	    };
 250:c:\program files\daisytoolchain\arm-none-eabi\include\c++\10.2.1\bits\stl_vector.h **** 	  };
 251:c:\program files\daisytoolchain\arm-none-eabi\include\c++\10.2.1\bits\stl_vector.h **** 
 252:c:\program files\daisytoolchain\arm-none-eabi\include\c++\10.2.1\bits\stl_vector.h **** #define _GLIBCXX_ASAN_ANNOTATE_REINIT \
 253:c:\program files\daisytoolchain\arm-none-eabi\include\c++\10.2.1\bits\stl_vector.h ****   typename _Base::_Vector_impl::template _Asan<>::_Reinit const \
 254:c:\program files\daisytoolchain\arm-none-eabi\include\c++\10.2.1\bits\stl_vector.h **** 	__attribute__((__unused__)) __reinit_guard(this->_M_impl)
 255:c:\program files\daisytoolchain\arm-none-eabi\include\c++\10.2.1\bits\stl_vector.h **** #define _GLIBCXX_ASAN_ANNOTATE_GROW(n) \
 256:c:\program files\daisytoolchain\arm-none-eabi\include\c++\10.2.1\bits\stl_vector.h ****   typename _Base::_Vector_impl::template _Asan<>::_Grow \
 257:c:\program files\daisytoolchain\arm-none-eabi\include\c++\10.2.1\bits\stl_vector.h **** 	__attribute__((__unused__)) __grow_guard(this->_M_impl, (n))
 258:c:\program files\daisytoolchain\arm-none-eabi\include\c++\10.2.1\bits\stl_vector.h **** #define _GLIBCXX_ASAN_ANNOTATE_GREW(n) __grow_guard._M_grew(n)
 259:c:\program files\daisytoolchain\arm-none-eabi\include\c++\10.2.1\bits\stl_vector.h **** #define _GLIBCXX_ASAN_ANNOTATE_SHRINK(n) \
 260:c:\program files\daisytoolchain\arm-none-eabi\include\c++\10.2.1\bits\stl_vector.h ****   _Base::_Vector_impl::template _Asan<>::_S_shrink(this->_M_impl, n)
 261:c:\program files\daisytoolchain\arm-none-eabi\include\c++\10.2.1\bits\stl_vector.h **** #define _GLIBCXX_ASAN_ANNOTATE_BEFORE_DEALLOC \
 262:c:\program files\daisytoolchain\arm-none-eabi\include\c++\10.2.1\bits\stl_vector.h ****   _Base::_Vector_impl::template _Asan<>::_S_on_dealloc(this->_M_impl)
 263:c:\program files\daisytoolchain\arm-none-eabi\include\c++\10.2.1\bits\stl_vector.h **** #else // ! (_GLIBCXX_SANITIZE_STD_ALLOCATOR && _GLIBCXX_SANITIZE_VECTOR)
 264:c:\program files\daisytoolchain\arm-none-eabi\include\c++\10.2.1\bits\stl_vector.h **** #define _GLIBCXX_ASAN_ANNOTATE_REINIT
 265:c:\program files\daisytoolchain\arm-none-eabi\include\c++\10.2.1\bits\stl_vector.h **** #define _GLIBCXX_ASAN_ANNOTATE_GROW(n)
 266:c:\program files\daisytoolchain\arm-none-eabi\include\c++\10.2.1\bits\stl_vector.h **** #define _GLIBCXX_ASAN_ANNOTATE_GREW(n)
 267:c:\program files\daisytoolchain\arm-none-eabi\include\c++\10.2.1\bits\stl_vector.h **** #define _GLIBCXX_ASAN_ANNOTATE_SHRINK(n)
 268:c:\program files\daisytoolchain\arm-none-eabi\include\c++\10.2.1\bits\stl_vector.h **** #define _GLIBCXX_ASAN_ANNOTATE_BEFORE_DEALLOC
 269:c:\program files\daisytoolchain\arm-none-eabi\include\c++\10.2.1\bits\stl_vector.h **** #endif // _GLIBCXX_SANITIZE_STD_ALLOCATOR && _GLIBCXX_SANITIZE_VECTOR
 270:c:\program files\daisytoolchain\arm-none-eabi\include\c++\10.2.1\bits\stl_vector.h ****       };
ARM GAS  C:\Users\theja\AppData\Local\Temp\ccV0pz5d.s 			page 9


 271:c:\program files\daisytoolchain\arm-none-eabi\include\c++\10.2.1\bits\stl_vector.h **** 
 272:c:\program files\daisytoolchain\arm-none-eabi\include\c++\10.2.1\bits\stl_vector.h ****     public:
 273:c:\program files\daisytoolchain\arm-none-eabi\include\c++\10.2.1\bits\stl_vector.h ****       typedef _Alloc allocator_type;
 274:c:\program files\daisytoolchain\arm-none-eabi\include\c++\10.2.1\bits\stl_vector.h **** 
 275:c:\program files\daisytoolchain\arm-none-eabi\include\c++\10.2.1\bits\stl_vector.h ****       _Tp_alloc_type&
 276:c:\program files\daisytoolchain\arm-none-eabi\include\c++\10.2.1\bits\stl_vector.h ****       _M_get_Tp_allocator() _GLIBCXX_NOEXCEPT
 277:c:\program files\daisytoolchain\arm-none-eabi\include\c++\10.2.1\bits\stl_vector.h ****       { return this->_M_impl; }
 278:c:\program files\daisytoolchain\arm-none-eabi\include\c++\10.2.1\bits\stl_vector.h **** 
 279:c:\program files\daisytoolchain\arm-none-eabi\include\c++\10.2.1\bits\stl_vector.h ****       const _Tp_alloc_type&
 280:c:\program files\daisytoolchain\arm-none-eabi\include\c++\10.2.1\bits\stl_vector.h ****       _M_get_Tp_allocator() const _GLIBCXX_NOEXCEPT
 281:c:\program files\daisytoolchain\arm-none-eabi\include\c++\10.2.1\bits\stl_vector.h ****       { return this->_M_impl; }
 282:c:\program files\daisytoolchain\arm-none-eabi\include\c++\10.2.1\bits\stl_vector.h **** 
 283:c:\program files\daisytoolchain\arm-none-eabi\include\c++\10.2.1\bits\stl_vector.h ****       allocator_type
 284:c:\program files\daisytoolchain\arm-none-eabi\include\c++\10.2.1\bits\stl_vector.h ****       get_allocator() const _GLIBCXX_NOEXCEPT
 285:c:\program files\daisytoolchain\arm-none-eabi\include\c++\10.2.1\bits\stl_vector.h ****       { return allocator_type(_M_get_Tp_allocator()); }
 286:c:\program files\daisytoolchain\arm-none-eabi\include\c++\10.2.1\bits\stl_vector.h **** 
 287:c:\program files\daisytoolchain\arm-none-eabi\include\c++\10.2.1\bits\stl_vector.h **** #if __cplusplus >= 201103L
 288:c:\program files\daisytoolchain\arm-none-eabi\include\c++\10.2.1\bits\stl_vector.h ****       _Vector_base() = default;
 289:c:\program files\daisytoolchain\arm-none-eabi\include\c++\10.2.1\bits\stl_vector.h **** #else
 290:c:\program files\daisytoolchain\arm-none-eabi\include\c++\10.2.1\bits\stl_vector.h ****       _Vector_base() { }
 291:c:\program files\daisytoolchain\arm-none-eabi\include\c++\10.2.1\bits\stl_vector.h **** #endif
 292:c:\program files\daisytoolchain\arm-none-eabi\include\c++\10.2.1\bits\stl_vector.h **** 
 293:c:\program files\daisytoolchain\arm-none-eabi\include\c++\10.2.1\bits\stl_vector.h ****       _Vector_base(const allocator_type& __a) _GLIBCXX_NOEXCEPT
 294:c:\program files\daisytoolchain\arm-none-eabi\include\c++\10.2.1\bits\stl_vector.h ****       : _M_impl(__a) { }
 295:c:\program files\daisytoolchain\arm-none-eabi\include\c++\10.2.1\bits\stl_vector.h **** 
 296:c:\program files\daisytoolchain\arm-none-eabi\include\c++\10.2.1\bits\stl_vector.h ****       // Kept for ABI compatibility.
 297:c:\program files\daisytoolchain\arm-none-eabi\include\c++\10.2.1\bits\stl_vector.h **** #if !_GLIBCXX_INLINE_VERSION
 298:c:\program files\daisytoolchain\arm-none-eabi\include\c++\10.2.1\bits\stl_vector.h ****       _Vector_base(size_t __n)
 299:c:\program files\daisytoolchain\arm-none-eabi\include\c++\10.2.1\bits\stl_vector.h ****       : _M_impl()
 300:c:\program files\daisytoolchain\arm-none-eabi\include\c++\10.2.1\bits\stl_vector.h ****       { _M_create_storage(__n); }
 301:c:\program files\daisytoolchain\arm-none-eabi\include\c++\10.2.1\bits\stl_vector.h **** #endif
 302:c:\program files\daisytoolchain\arm-none-eabi\include\c++\10.2.1\bits\stl_vector.h **** 
 303:c:\program files\daisytoolchain\arm-none-eabi\include\c++\10.2.1\bits\stl_vector.h ****       _Vector_base(size_t __n, const allocator_type& __a)
 304:c:\program files\daisytoolchain\arm-none-eabi\include\c++\10.2.1\bits\stl_vector.h ****       : _M_impl(__a)
 305:c:\program files\daisytoolchain\arm-none-eabi\include\c++\10.2.1\bits\stl_vector.h ****       { _M_create_storage(__n); }
 306:c:\program files\daisytoolchain\arm-none-eabi\include\c++\10.2.1\bits\stl_vector.h **** 
 307:c:\program files\daisytoolchain\arm-none-eabi\include\c++\10.2.1\bits\stl_vector.h **** #if __cplusplus >= 201103L
 308:c:\program files\daisytoolchain\arm-none-eabi\include\c++\10.2.1\bits\stl_vector.h ****       _Vector_base(_Vector_base&&) = default;
 309:c:\program files\daisytoolchain\arm-none-eabi\include\c++\10.2.1\bits\stl_vector.h **** 
 310:c:\program files\daisytoolchain\arm-none-eabi\include\c++\10.2.1\bits\stl_vector.h ****       // Kept for ABI compatibility.
 311:c:\program files\daisytoolchain\arm-none-eabi\include\c++\10.2.1\bits\stl_vector.h **** # if !_GLIBCXX_INLINE_VERSION
 312:c:\program files\daisytoolchain\arm-none-eabi\include\c++\10.2.1\bits\stl_vector.h ****       _Vector_base(_Tp_alloc_type&& __a) noexcept
 313:c:\program files\daisytoolchain\arm-none-eabi\include\c++\10.2.1\bits\stl_vector.h ****       : _M_impl(std::move(__a)) { }
 314:c:\program files\daisytoolchain\arm-none-eabi\include\c++\10.2.1\bits\stl_vector.h **** 
 315:c:\program files\daisytoolchain\arm-none-eabi\include\c++\10.2.1\bits\stl_vector.h ****       _Vector_base(_Vector_base&& __x, const allocator_type& __a)
 316:c:\program files\daisytoolchain\arm-none-eabi\include\c++\10.2.1\bits\stl_vector.h ****       : _M_impl(__a)
 317:c:\program files\daisytoolchain\arm-none-eabi\include\c++\10.2.1\bits\stl_vector.h ****       {
 318:c:\program files\daisytoolchain\arm-none-eabi\include\c++\10.2.1\bits\stl_vector.h **** 	if (__x.get_allocator() == __a)
 319:c:\program files\daisytoolchain\arm-none-eabi\include\c++\10.2.1\bits\stl_vector.h **** 	  this->_M_impl._M_swap_data(__x._M_impl);
 320:c:\program files\daisytoolchain\arm-none-eabi\include\c++\10.2.1\bits\stl_vector.h **** 	else
 321:c:\program files\daisytoolchain\arm-none-eabi\include\c++\10.2.1\bits\stl_vector.h **** 	  {
 322:c:\program files\daisytoolchain\arm-none-eabi\include\c++\10.2.1\bits\stl_vector.h **** 	    size_t __n = __x._M_impl._M_finish - __x._M_impl._M_start;
 323:c:\program files\daisytoolchain\arm-none-eabi\include\c++\10.2.1\bits\stl_vector.h **** 	    _M_create_storage(__n);
 324:c:\program files\daisytoolchain\arm-none-eabi\include\c++\10.2.1\bits\stl_vector.h **** 	  }
 325:c:\program files\daisytoolchain\arm-none-eabi\include\c++\10.2.1\bits\stl_vector.h ****       }
 326:c:\program files\daisytoolchain\arm-none-eabi\include\c++\10.2.1\bits\stl_vector.h **** # endif
 327:c:\program files\daisytoolchain\arm-none-eabi\include\c++\10.2.1\bits\stl_vector.h **** 
ARM GAS  C:\Users\theja\AppData\Local\Temp\ccV0pz5d.s 			page 10


 328:c:\program files\daisytoolchain\arm-none-eabi\include\c++\10.2.1\bits\stl_vector.h ****       _Vector_base(const allocator_type& __a, _Vector_base&& __x)
 329:c:\program files\daisytoolchain\arm-none-eabi\include\c++\10.2.1\bits\stl_vector.h ****       : _M_impl(_Tp_alloc_type(__a), std::move(__x._M_impl))
 330:c:\program files\daisytoolchain\arm-none-eabi\include\c++\10.2.1\bits\stl_vector.h ****       { }
 331:c:\program files\daisytoolchain\arm-none-eabi\include\c++\10.2.1\bits\stl_vector.h **** #endif
 332:c:\program files\daisytoolchain\arm-none-eabi\include\c++\10.2.1\bits\stl_vector.h **** 
 333:c:\program files\daisytoolchain\arm-none-eabi\include\c++\10.2.1\bits\stl_vector.h ****       ~_Vector_base() _GLIBCXX_NOEXCEPT
 334:c:\program files\daisytoolchain\arm-none-eabi\include\c++\10.2.1\bits\stl_vector.h ****       {
 335:c:\program files\daisytoolchain\arm-none-eabi\include\c++\10.2.1\bits\stl_vector.h **** 	_M_deallocate(_M_impl._M_start,
 336:c:\program files\daisytoolchain\arm-none-eabi\include\c++\10.2.1\bits\stl_vector.h **** 		      _M_impl._M_end_of_storage - _M_impl._M_start);
 337:c:\program files\daisytoolchain\arm-none-eabi\include\c++\10.2.1\bits\stl_vector.h ****       }
 338:c:\program files\daisytoolchain\arm-none-eabi\include\c++\10.2.1\bits\stl_vector.h **** 
 339:c:\program files\daisytoolchain\arm-none-eabi\include\c++\10.2.1\bits\stl_vector.h ****     public:
 340:c:\program files\daisytoolchain\arm-none-eabi\include\c++\10.2.1\bits\stl_vector.h ****       _Vector_impl _M_impl;
 341:c:\program files\daisytoolchain\arm-none-eabi\include\c++\10.2.1\bits\stl_vector.h **** 
 342:c:\program files\daisytoolchain\arm-none-eabi\include\c++\10.2.1\bits\stl_vector.h ****       pointer
 343:c:\program files\daisytoolchain\arm-none-eabi\include\c++\10.2.1\bits\stl_vector.h ****       _M_allocate(size_t __n)
 344:c:\program files\daisytoolchain\arm-none-eabi\include\c++\10.2.1\bits\stl_vector.h ****       {
 345:c:\program files\daisytoolchain\arm-none-eabi\include\c++\10.2.1\bits\stl_vector.h **** 	typedef __gnu_cxx::__alloc_traits<_Tp_alloc_type> _Tr;
 346:c:\program files\daisytoolchain\arm-none-eabi\include\c++\10.2.1\bits\stl_vector.h **** 	return __n != 0 ? _Tr::allocate(_M_impl, __n) : pointer();
 347:c:\program files\daisytoolchain\arm-none-eabi\include\c++\10.2.1\bits\stl_vector.h ****       }
 348:c:\program files\daisytoolchain\arm-none-eabi\include\c++\10.2.1\bits\stl_vector.h **** 
 349:c:\program files\daisytoolchain\arm-none-eabi\include\c++\10.2.1\bits\stl_vector.h ****       void
 350:c:\program files\daisytoolchain\arm-none-eabi\include\c++\10.2.1\bits\stl_vector.h ****       _M_deallocate(pointer __p, size_t __n)
 351:c:\program files\daisytoolchain\arm-none-eabi\include\c++\10.2.1\bits\stl_vector.h ****       {
 352:c:\program files\daisytoolchain\arm-none-eabi\include\c++\10.2.1\bits\stl_vector.h **** 	typedef __gnu_cxx::__alloc_traits<_Tp_alloc_type> _Tr;
 353:c:\program files\daisytoolchain\arm-none-eabi\include\c++\10.2.1\bits\stl_vector.h **** 	if (__p)
 354:c:\program files\daisytoolchain\arm-none-eabi\include\c++\10.2.1\bits\stl_vector.h **** 	  _Tr::deallocate(_M_impl, __p, __n);
 355:c:\program files\daisytoolchain\arm-none-eabi\include\c++\10.2.1\bits\stl_vector.h ****       }
 356:c:\program files\daisytoolchain\arm-none-eabi\include\c++\10.2.1\bits\stl_vector.h **** 
 357:c:\program files\daisytoolchain\arm-none-eabi\include\c++\10.2.1\bits\stl_vector.h ****     protected:
 358:c:\program files\daisytoolchain\arm-none-eabi\include\c++\10.2.1\bits\stl_vector.h ****       void
 359:c:\program files\daisytoolchain\arm-none-eabi\include\c++\10.2.1\bits\stl_vector.h ****       _M_create_storage(size_t __n)
 360:c:\program files\daisytoolchain\arm-none-eabi\include\c++\10.2.1\bits\stl_vector.h ****       {
 361:c:\program files\daisytoolchain\arm-none-eabi\include\c++\10.2.1\bits\stl_vector.h **** 	this->_M_impl._M_start = this->_M_allocate(__n);
 362:c:\program files\daisytoolchain\arm-none-eabi\include\c++\10.2.1\bits\stl_vector.h **** 	this->_M_impl._M_finish = this->_M_impl._M_start;
 363:c:\program files\daisytoolchain\arm-none-eabi\include\c++\10.2.1\bits\stl_vector.h **** 	this->_M_impl._M_end_of_storage = this->_M_impl._M_start + __n;
 364:c:\program files\daisytoolchain\arm-none-eabi\include\c++\10.2.1\bits\stl_vector.h ****       }
 365:c:\program files\daisytoolchain\arm-none-eabi\include\c++\10.2.1\bits\stl_vector.h ****     };
 366:c:\program files\daisytoolchain\arm-none-eabi\include\c++\10.2.1\bits\stl_vector.h **** 
 367:c:\program files\daisytoolchain\arm-none-eabi\include\c++\10.2.1\bits\stl_vector.h ****   /**
 368:c:\program files\daisytoolchain\arm-none-eabi\include\c++\10.2.1\bits\stl_vector.h ****    *  @brief A standard container which offers fixed time access to
 369:c:\program files\daisytoolchain\arm-none-eabi\include\c++\10.2.1\bits\stl_vector.h ****    *  individual elements in any order.
 370:c:\program files\daisytoolchain\arm-none-eabi\include\c++\10.2.1\bits\stl_vector.h ****    *
 371:c:\program files\daisytoolchain\arm-none-eabi\include\c++\10.2.1\bits\stl_vector.h ****    *  @ingroup sequences
 372:c:\program files\daisytoolchain\arm-none-eabi\include\c++\10.2.1\bits\stl_vector.h ****    *
 373:c:\program files\daisytoolchain\arm-none-eabi\include\c++\10.2.1\bits\stl_vector.h ****    *  @tparam _Tp  Type of element.
 374:c:\program files\daisytoolchain\arm-none-eabi\include\c++\10.2.1\bits\stl_vector.h ****    *  @tparam _Alloc  Allocator type, defaults to allocator<_Tp>.
 375:c:\program files\daisytoolchain\arm-none-eabi\include\c++\10.2.1\bits\stl_vector.h ****    *
 376:c:\program files\daisytoolchain\arm-none-eabi\include\c++\10.2.1\bits\stl_vector.h ****    *  Meets the requirements of a <a href="tables.html#65">container</a>, a
 377:c:\program files\daisytoolchain\arm-none-eabi\include\c++\10.2.1\bits\stl_vector.h ****    *  <a href="tables.html#66">reversible container</a>, and a
 378:c:\program files\daisytoolchain\arm-none-eabi\include\c++\10.2.1\bits\stl_vector.h ****    *  <a href="tables.html#67">sequence</a>, including the
 379:c:\program files\daisytoolchain\arm-none-eabi\include\c++\10.2.1\bits\stl_vector.h ****    *  <a href="tables.html#68">optional sequence requirements</a> with the
 380:c:\program files\daisytoolchain\arm-none-eabi\include\c++\10.2.1\bits\stl_vector.h ****    *  %exception of @c push_front and @c pop_front.
 381:c:\program files\daisytoolchain\arm-none-eabi\include\c++\10.2.1\bits\stl_vector.h ****    *
 382:c:\program files\daisytoolchain\arm-none-eabi\include\c++\10.2.1\bits\stl_vector.h ****    *  In some terminology a %vector can be described as a dynamic
 383:c:\program files\daisytoolchain\arm-none-eabi\include\c++\10.2.1\bits\stl_vector.h ****    *  C-style array, it offers fast and efficient access to individual
 384:c:\program files\daisytoolchain\arm-none-eabi\include\c++\10.2.1\bits\stl_vector.h ****    *  elements in any order and saves the user from worrying about
ARM GAS  C:\Users\theja\AppData\Local\Temp\ccV0pz5d.s 			page 11


 385:c:\program files\daisytoolchain\arm-none-eabi\include\c++\10.2.1\bits\stl_vector.h ****    *  memory and size allocation.  Subscripting ( @c [] ) access is
 386:c:\program files\daisytoolchain\arm-none-eabi\include\c++\10.2.1\bits\stl_vector.h ****    *  also provided as with C-style arrays.
 387:c:\program files\daisytoolchain\arm-none-eabi\include\c++\10.2.1\bits\stl_vector.h ****   */
 388:c:\program files\daisytoolchain\arm-none-eabi\include\c++\10.2.1\bits\stl_vector.h ****   template<typename _Tp, typename _Alloc = std::allocator<_Tp> >
 389:c:\program files\daisytoolchain\arm-none-eabi\include\c++\10.2.1\bits\stl_vector.h ****     class vector : protected _Vector_base<_Tp, _Alloc>
 390:c:\program files\daisytoolchain\arm-none-eabi\include\c++\10.2.1\bits\stl_vector.h ****     {
 391:c:\program files\daisytoolchain\arm-none-eabi\include\c++\10.2.1\bits\stl_vector.h **** #ifdef _GLIBCXX_CONCEPT_CHECKS
 392:c:\program files\daisytoolchain\arm-none-eabi\include\c++\10.2.1\bits\stl_vector.h ****       // Concept requirements.
 393:c:\program files\daisytoolchain\arm-none-eabi\include\c++\10.2.1\bits\stl_vector.h ****       typedef typename _Alloc::value_type		_Alloc_value_type;
 394:c:\program files\daisytoolchain\arm-none-eabi\include\c++\10.2.1\bits\stl_vector.h **** # if __cplusplus < 201103L
 395:c:\program files\daisytoolchain\arm-none-eabi\include\c++\10.2.1\bits\stl_vector.h ****       __glibcxx_class_requires(_Tp, _SGIAssignableConcept)
 396:c:\program files\daisytoolchain\arm-none-eabi\include\c++\10.2.1\bits\stl_vector.h **** # endif
 397:c:\program files\daisytoolchain\arm-none-eabi\include\c++\10.2.1\bits\stl_vector.h ****       __glibcxx_class_requires2(_Tp, _Alloc_value_type, _SameTypeConcept)
 398:c:\program files\daisytoolchain\arm-none-eabi\include\c++\10.2.1\bits\stl_vector.h **** #endif
 399:c:\program files\daisytoolchain\arm-none-eabi\include\c++\10.2.1\bits\stl_vector.h **** 
 400:c:\program files\daisytoolchain\arm-none-eabi\include\c++\10.2.1\bits\stl_vector.h **** #if __cplusplus >= 201103L
 401:c:\program files\daisytoolchain\arm-none-eabi\include\c++\10.2.1\bits\stl_vector.h ****       static_assert(is_same<typename remove_cv<_Tp>::type, _Tp>::value,
 402:c:\program files\daisytoolchain\arm-none-eabi\include\c++\10.2.1\bits\stl_vector.h **** 	  "std::vector must have a non-const, non-volatile value_type");
 403:c:\program files\daisytoolchain\arm-none-eabi\include\c++\10.2.1\bits\stl_vector.h **** # if __cplusplus > 201703L || defined __STRICT_ANSI__
 404:c:\program files\daisytoolchain\arm-none-eabi\include\c++\10.2.1\bits\stl_vector.h ****       static_assert(is_same<typename _Alloc::value_type, _Tp>::value,
 405:c:\program files\daisytoolchain\arm-none-eabi\include\c++\10.2.1\bits\stl_vector.h **** 	  "std::vector must have the same value_type as its allocator");
 406:c:\program files\daisytoolchain\arm-none-eabi\include\c++\10.2.1\bits\stl_vector.h **** # endif
 407:c:\program files\daisytoolchain\arm-none-eabi\include\c++\10.2.1\bits\stl_vector.h **** #endif
 408:c:\program files\daisytoolchain\arm-none-eabi\include\c++\10.2.1\bits\stl_vector.h **** 
 409:c:\program files\daisytoolchain\arm-none-eabi\include\c++\10.2.1\bits\stl_vector.h ****       typedef _Vector_base<_Tp, _Alloc>			_Base;
 410:c:\program files\daisytoolchain\arm-none-eabi\include\c++\10.2.1\bits\stl_vector.h ****       typedef typename _Base::_Tp_alloc_type		_Tp_alloc_type;
 411:c:\program files\daisytoolchain\arm-none-eabi\include\c++\10.2.1\bits\stl_vector.h ****       typedef __gnu_cxx::__alloc_traits<_Tp_alloc_type>	_Alloc_traits;
 412:c:\program files\daisytoolchain\arm-none-eabi\include\c++\10.2.1\bits\stl_vector.h **** 
 413:c:\program files\daisytoolchain\arm-none-eabi\include\c++\10.2.1\bits\stl_vector.h ****     public:
 414:c:\program files\daisytoolchain\arm-none-eabi\include\c++\10.2.1\bits\stl_vector.h ****       typedef _Tp					value_type;
 415:c:\program files\daisytoolchain\arm-none-eabi\include\c++\10.2.1\bits\stl_vector.h ****       typedef typename _Base::pointer			pointer;
 416:c:\program files\daisytoolchain\arm-none-eabi\include\c++\10.2.1\bits\stl_vector.h ****       typedef typename _Alloc_traits::const_pointer	const_pointer;
 417:c:\program files\daisytoolchain\arm-none-eabi\include\c++\10.2.1\bits\stl_vector.h ****       typedef typename _Alloc_traits::reference		reference;
 418:c:\program files\daisytoolchain\arm-none-eabi\include\c++\10.2.1\bits\stl_vector.h ****       typedef typename _Alloc_traits::const_reference	const_reference;
 419:c:\program files\daisytoolchain\arm-none-eabi\include\c++\10.2.1\bits\stl_vector.h ****       typedef __gnu_cxx::__normal_iterator<pointer, vector> iterator;
 420:c:\program files\daisytoolchain\arm-none-eabi\include\c++\10.2.1\bits\stl_vector.h ****       typedef __gnu_cxx::__normal_iterator<const_pointer, vector>
 421:c:\program files\daisytoolchain\arm-none-eabi\include\c++\10.2.1\bits\stl_vector.h ****       const_iterator;
 422:c:\program files\daisytoolchain\arm-none-eabi\include\c++\10.2.1\bits\stl_vector.h ****       typedef std::reverse_iterator<const_iterator>	const_reverse_iterator;
 423:c:\program files\daisytoolchain\arm-none-eabi\include\c++\10.2.1\bits\stl_vector.h ****       typedef std::reverse_iterator<iterator>		reverse_iterator;
 424:c:\program files\daisytoolchain\arm-none-eabi\include\c++\10.2.1\bits\stl_vector.h ****       typedef size_t					size_type;
 425:c:\program files\daisytoolchain\arm-none-eabi\include\c++\10.2.1\bits\stl_vector.h ****       typedef ptrdiff_t					difference_type;
 426:c:\program files\daisytoolchain\arm-none-eabi\include\c++\10.2.1\bits\stl_vector.h ****       typedef _Alloc					allocator_type;
 427:c:\program files\daisytoolchain\arm-none-eabi\include\c++\10.2.1\bits\stl_vector.h **** 
 428:c:\program files\daisytoolchain\arm-none-eabi\include\c++\10.2.1\bits\stl_vector.h ****     private:
 429:c:\program files\daisytoolchain\arm-none-eabi\include\c++\10.2.1\bits\stl_vector.h **** #if __cplusplus >= 201103L
 430:c:\program files\daisytoolchain\arm-none-eabi\include\c++\10.2.1\bits\stl_vector.h ****       static constexpr bool
 431:c:\program files\daisytoolchain\arm-none-eabi\include\c++\10.2.1\bits\stl_vector.h ****       _S_nothrow_relocate(true_type)
 432:c:\program files\daisytoolchain\arm-none-eabi\include\c++\10.2.1\bits\stl_vector.h ****       {
 433:c:\program files\daisytoolchain\arm-none-eabi\include\c++\10.2.1\bits\stl_vector.h **** 	return noexcept(std::__relocate_a(std::declval<pointer>(),
 434:c:\program files\daisytoolchain\arm-none-eabi\include\c++\10.2.1\bits\stl_vector.h **** 					  std::declval<pointer>(),
 435:c:\program files\daisytoolchain\arm-none-eabi\include\c++\10.2.1\bits\stl_vector.h **** 					  std::declval<pointer>(),
 436:c:\program files\daisytoolchain\arm-none-eabi\include\c++\10.2.1\bits\stl_vector.h **** 					  std::declval<_Tp_alloc_type&>()));
 437:c:\program files\daisytoolchain\arm-none-eabi\include\c++\10.2.1\bits\stl_vector.h ****       }
 438:c:\program files\daisytoolchain\arm-none-eabi\include\c++\10.2.1\bits\stl_vector.h **** 
 439:c:\program files\daisytoolchain\arm-none-eabi\include\c++\10.2.1\bits\stl_vector.h ****       static constexpr bool
 440:c:\program files\daisytoolchain\arm-none-eabi\include\c++\10.2.1\bits\stl_vector.h ****       _S_nothrow_relocate(false_type)
 441:c:\program files\daisytoolchain\arm-none-eabi\include\c++\10.2.1\bits\stl_vector.h ****       { return false; }
ARM GAS  C:\Users\theja\AppData\Local\Temp\ccV0pz5d.s 			page 12


 442:c:\program files\daisytoolchain\arm-none-eabi\include\c++\10.2.1\bits\stl_vector.h **** 
 443:c:\program files\daisytoolchain\arm-none-eabi\include\c++\10.2.1\bits\stl_vector.h ****       static constexpr bool
 444:c:\program files\daisytoolchain\arm-none-eabi\include\c++\10.2.1\bits\stl_vector.h ****       _S_use_relocate()
 445:c:\program files\daisytoolchain\arm-none-eabi\include\c++\10.2.1\bits\stl_vector.h ****       {
 446:c:\program files\daisytoolchain\arm-none-eabi\include\c++\10.2.1\bits\stl_vector.h **** 	// Instantiating std::__relocate_a might cause an error outside the
 447:c:\program files\daisytoolchain\arm-none-eabi\include\c++\10.2.1\bits\stl_vector.h **** 	// immediate context (in __relocate_object_a's noexcept-specifier),
 448:c:\program files\daisytoolchain\arm-none-eabi\include\c++\10.2.1\bits\stl_vector.h **** 	// so only do it if we know the type can be move-inserted into *this.
 449:c:\program files\daisytoolchain\arm-none-eabi\include\c++\10.2.1\bits\stl_vector.h **** 	return _S_nothrow_relocate(__is_move_insertable<_Tp_alloc_type>{});
 450:c:\program files\daisytoolchain\arm-none-eabi\include\c++\10.2.1\bits\stl_vector.h ****       }
 451:c:\program files\daisytoolchain\arm-none-eabi\include\c++\10.2.1\bits\stl_vector.h **** 
 452:c:\program files\daisytoolchain\arm-none-eabi\include\c++\10.2.1\bits\stl_vector.h ****       static pointer
 453:c:\program files\daisytoolchain\arm-none-eabi\include\c++\10.2.1\bits\stl_vector.h ****       _S_do_relocate(pointer __first, pointer __last, pointer __result,
 454:c:\program files\daisytoolchain\arm-none-eabi\include\c++\10.2.1\bits\stl_vector.h **** 		     _Tp_alloc_type& __alloc, true_type) noexcept
 455:c:\program files\daisytoolchain\arm-none-eabi\include\c++\10.2.1\bits\stl_vector.h ****       {
 456:c:\program files\daisytoolchain\arm-none-eabi\include\c++\10.2.1\bits\stl_vector.h **** 	return std::__relocate_a(__first, __last, __result, __alloc);
 457:c:\program files\daisytoolchain\arm-none-eabi\include\c++\10.2.1\bits\stl_vector.h ****       }
 458:c:\program files\daisytoolchain\arm-none-eabi\include\c++\10.2.1\bits\stl_vector.h **** 
 459:c:\program files\daisytoolchain\arm-none-eabi\include\c++\10.2.1\bits\stl_vector.h ****       static pointer
 460:c:\program files\daisytoolchain\arm-none-eabi\include\c++\10.2.1\bits\stl_vector.h ****       _S_do_relocate(pointer, pointer, pointer __result,
 461:c:\program files\daisytoolchain\arm-none-eabi\include\c++\10.2.1\bits\stl_vector.h **** 		     _Tp_alloc_type&, false_type) noexcept
 462:c:\program files\daisytoolchain\arm-none-eabi\include\c++\10.2.1\bits\stl_vector.h ****       { return __result; }
 463:c:\program files\daisytoolchain\arm-none-eabi\include\c++\10.2.1\bits\stl_vector.h **** 
 464:c:\program files\daisytoolchain\arm-none-eabi\include\c++\10.2.1\bits\stl_vector.h ****       static pointer
 465:c:\program files\daisytoolchain\arm-none-eabi\include\c++\10.2.1\bits\stl_vector.h ****       _S_relocate(pointer __first, pointer __last, pointer __result,
 466:c:\program files\daisytoolchain\arm-none-eabi\include\c++\10.2.1\bits\stl_vector.h **** 		  _Tp_alloc_type& __alloc) noexcept
 467:c:\program files\daisytoolchain\arm-none-eabi\include\c++\10.2.1\bits\stl_vector.h ****       {
 468:c:\program files\daisytoolchain\arm-none-eabi\include\c++\10.2.1\bits\stl_vector.h **** 	using __do_it = __bool_constant<_S_use_relocate()>;
 469:c:\program files\daisytoolchain\arm-none-eabi\include\c++\10.2.1\bits\stl_vector.h **** 	return _S_do_relocate(__first, __last, __result, __alloc, __do_it{});
 470:c:\program files\daisytoolchain\arm-none-eabi\include\c++\10.2.1\bits\stl_vector.h ****       }
 471:c:\program files\daisytoolchain\arm-none-eabi\include\c++\10.2.1\bits\stl_vector.h **** #endif // C++11
 472:c:\program files\daisytoolchain\arm-none-eabi\include\c++\10.2.1\bits\stl_vector.h **** 
 473:c:\program files\daisytoolchain\arm-none-eabi\include\c++\10.2.1\bits\stl_vector.h ****     protected:
 474:c:\program files\daisytoolchain\arm-none-eabi\include\c++\10.2.1\bits\stl_vector.h ****       using _Base::_M_allocate;
 475:c:\program files\daisytoolchain\arm-none-eabi\include\c++\10.2.1\bits\stl_vector.h ****       using _Base::_M_deallocate;
 476:c:\program files\daisytoolchain\arm-none-eabi\include\c++\10.2.1\bits\stl_vector.h ****       using _Base::_M_impl;
 477:c:\program files\daisytoolchain\arm-none-eabi\include\c++\10.2.1\bits\stl_vector.h ****       using _Base::_M_get_Tp_allocator;
 478:c:\program files\daisytoolchain\arm-none-eabi\include\c++\10.2.1\bits\stl_vector.h **** 
 479:c:\program files\daisytoolchain\arm-none-eabi\include\c++\10.2.1\bits\stl_vector.h ****     public:
 480:c:\program files\daisytoolchain\arm-none-eabi\include\c++\10.2.1\bits\stl_vector.h ****       // [23.2.4.1] construct/copy/destroy
 481:c:\program files\daisytoolchain\arm-none-eabi\include\c++\10.2.1\bits\stl_vector.h ****       // (assign() and get_allocator() are also listed in this section)
 482:c:\program files\daisytoolchain\arm-none-eabi\include\c++\10.2.1\bits\stl_vector.h **** 
 483:c:\program files\daisytoolchain\arm-none-eabi\include\c++\10.2.1\bits\stl_vector.h ****       /**
 484:c:\program files\daisytoolchain\arm-none-eabi\include\c++\10.2.1\bits\stl_vector.h ****        *  @brief  Creates a %vector with no elements.
 485:c:\program files\daisytoolchain\arm-none-eabi\include\c++\10.2.1\bits\stl_vector.h ****        */
 486:c:\program files\daisytoolchain\arm-none-eabi\include\c++\10.2.1\bits\stl_vector.h **** #if __cplusplus >= 201103L
 487:c:\program files\daisytoolchain\arm-none-eabi\include\c++\10.2.1\bits\stl_vector.h ****       vector() = default;
 488:c:\program files\daisytoolchain\arm-none-eabi\include\c++\10.2.1\bits\stl_vector.h **** #else
 489:c:\program files\daisytoolchain\arm-none-eabi\include\c++\10.2.1\bits\stl_vector.h ****       vector() { }
 490:c:\program files\daisytoolchain\arm-none-eabi\include\c++\10.2.1\bits\stl_vector.h **** #endif
 491:c:\program files\daisytoolchain\arm-none-eabi\include\c++\10.2.1\bits\stl_vector.h **** 
 492:c:\program files\daisytoolchain\arm-none-eabi\include\c++\10.2.1\bits\stl_vector.h ****       /**
 493:c:\program files\daisytoolchain\arm-none-eabi\include\c++\10.2.1\bits\stl_vector.h ****        *  @brief  Creates a %vector with no elements.
 494:c:\program files\daisytoolchain\arm-none-eabi\include\c++\10.2.1\bits\stl_vector.h ****        *  @param  __a  An allocator object.
 495:c:\program files\daisytoolchain\arm-none-eabi\include\c++\10.2.1\bits\stl_vector.h ****        */
 496:c:\program files\daisytoolchain\arm-none-eabi\include\c++\10.2.1\bits\stl_vector.h ****       explicit
 497:c:\program files\daisytoolchain\arm-none-eabi\include\c++\10.2.1\bits\stl_vector.h ****       vector(const allocator_type& __a) _GLIBCXX_NOEXCEPT
 498:c:\program files\daisytoolchain\arm-none-eabi\include\c++\10.2.1\bits\stl_vector.h ****       : _Base(__a) { }
ARM GAS  C:\Users\theja\AppData\Local\Temp\ccV0pz5d.s 			page 13


 499:c:\program files\daisytoolchain\arm-none-eabi\include\c++\10.2.1\bits\stl_vector.h **** 
 500:c:\program files\daisytoolchain\arm-none-eabi\include\c++\10.2.1\bits\stl_vector.h **** #if __cplusplus >= 201103L
 501:c:\program files\daisytoolchain\arm-none-eabi\include\c++\10.2.1\bits\stl_vector.h ****       /**
 502:c:\program files\daisytoolchain\arm-none-eabi\include\c++\10.2.1\bits\stl_vector.h ****        *  @brief  Creates a %vector with default constructed elements.
 503:c:\program files\daisytoolchain\arm-none-eabi\include\c++\10.2.1\bits\stl_vector.h ****        *  @param  __n  The number of elements to initially create.
 504:c:\program files\daisytoolchain\arm-none-eabi\include\c++\10.2.1\bits\stl_vector.h ****        *  @param  __a  An allocator.
 505:c:\program files\daisytoolchain\arm-none-eabi\include\c++\10.2.1\bits\stl_vector.h ****        *
 506:c:\program files\daisytoolchain\arm-none-eabi\include\c++\10.2.1\bits\stl_vector.h ****        *  This constructor fills the %vector with @a __n default
 507:c:\program files\daisytoolchain\arm-none-eabi\include\c++\10.2.1\bits\stl_vector.h ****        *  constructed elements.
 508:c:\program files\daisytoolchain\arm-none-eabi\include\c++\10.2.1\bits\stl_vector.h ****        */
 509:c:\program files\daisytoolchain\arm-none-eabi\include\c++\10.2.1\bits\stl_vector.h ****       explicit
 510:c:\program files\daisytoolchain\arm-none-eabi\include\c++\10.2.1\bits\stl_vector.h ****       vector(size_type __n, const allocator_type& __a = allocator_type())
 511:c:\program files\daisytoolchain\arm-none-eabi\include\c++\10.2.1\bits\stl_vector.h ****       : _Base(_S_check_init_len(__n, __a), __a)
 512:c:\program files\daisytoolchain\arm-none-eabi\include\c++\10.2.1\bits\stl_vector.h ****       { _M_default_initialize(__n); }
 513:c:\program files\daisytoolchain\arm-none-eabi\include\c++\10.2.1\bits\stl_vector.h **** 
 514:c:\program files\daisytoolchain\arm-none-eabi\include\c++\10.2.1\bits\stl_vector.h ****       /**
 515:c:\program files\daisytoolchain\arm-none-eabi\include\c++\10.2.1\bits\stl_vector.h ****        *  @brief  Creates a %vector with copies of an exemplar element.
 516:c:\program files\daisytoolchain\arm-none-eabi\include\c++\10.2.1\bits\stl_vector.h ****        *  @param  __n  The number of elements to initially create.
 517:c:\program files\daisytoolchain\arm-none-eabi\include\c++\10.2.1\bits\stl_vector.h ****        *  @param  __value  An element to copy.
 518:c:\program files\daisytoolchain\arm-none-eabi\include\c++\10.2.1\bits\stl_vector.h ****        *  @param  __a  An allocator.
 519:c:\program files\daisytoolchain\arm-none-eabi\include\c++\10.2.1\bits\stl_vector.h ****        *
 520:c:\program files\daisytoolchain\arm-none-eabi\include\c++\10.2.1\bits\stl_vector.h ****        *  This constructor fills the %vector with @a __n copies of @a __value.
 521:c:\program files\daisytoolchain\arm-none-eabi\include\c++\10.2.1\bits\stl_vector.h ****        */
 522:c:\program files\daisytoolchain\arm-none-eabi\include\c++\10.2.1\bits\stl_vector.h ****       vector(size_type __n, const value_type& __value,
 523:c:\program files\daisytoolchain\arm-none-eabi\include\c++\10.2.1\bits\stl_vector.h **** 	     const allocator_type& __a = allocator_type())
 524:c:\program files\daisytoolchain\arm-none-eabi\include\c++\10.2.1\bits\stl_vector.h ****       : _Base(_S_check_init_len(__n, __a), __a)
 525:c:\program files\daisytoolchain\arm-none-eabi\include\c++\10.2.1\bits\stl_vector.h ****       { _M_fill_initialize(__n, __value); }
 526:c:\program files\daisytoolchain\arm-none-eabi\include\c++\10.2.1\bits\stl_vector.h **** #else
 527:c:\program files\daisytoolchain\arm-none-eabi\include\c++\10.2.1\bits\stl_vector.h ****       /**
 528:c:\program files\daisytoolchain\arm-none-eabi\include\c++\10.2.1\bits\stl_vector.h ****        *  @brief  Creates a %vector with copies of an exemplar element.
 529:c:\program files\daisytoolchain\arm-none-eabi\include\c++\10.2.1\bits\stl_vector.h ****        *  @param  __n  The number of elements to initially create.
 530:c:\program files\daisytoolchain\arm-none-eabi\include\c++\10.2.1\bits\stl_vector.h ****        *  @param  __value  An element to copy.
 531:c:\program files\daisytoolchain\arm-none-eabi\include\c++\10.2.1\bits\stl_vector.h ****        *  @param  __a  An allocator.
 532:c:\program files\daisytoolchain\arm-none-eabi\include\c++\10.2.1\bits\stl_vector.h ****        *
 533:c:\program files\daisytoolchain\arm-none-eabi\include\c++\10.2.1\bits\stl_vector.h ****        *  This constructor fills the %vector with @a __n copies of @a __value.
 534:c:\program files\daisytoolchain\arm-none-eabi\include\c++\10.2.1\bits\stl_vector.h ****        */
 535:c:\program files\daisytoolchain\arm-none-eabi\include\c++\10.2.1\bits\stl_vector.h ****       explicit
 536:c:\program files\daisytoolchain\arm-none-eabi\include\c++\10.2.1\bits\stl_vector.h ****       vector(size_type __n, const value_type& __value = value_type(),
 537:c:\program files\daisytoolchain\arm-none-eabi\include\c++\10.2.1\bits\stl_vector.h **** 	     const allocator_type& __a = allocator_type())
 538:c:\program files\daisytoolchain\arm-none-eabi\include\c++\10.2.1\bits\stl_vector.h ****       : _Base(_S_check_init_len(__n, __a), __a)
 539:c:\program files\daisytoolchain\arm-none-eabi\include\c++\10.2.1\bits\stl_vector.h ****       { _M_fill_initialize(__n, __value); }
 540:c:\program files\daisytoolchain\arm-none-eabi\include\c++\10.2.1\bits\stl_vector.h **** #endif
 541:c:\program files\daisytoolchain\arm-none-eabi\include\c++\10.2.1\bits\stl_vector.h **** 
 542:c:\program files\daisytoolchain\arm-none-eabi\include\c++\10.2.1\bits\stl_vector.h ****       /**
 543:c:\program files\daisytoolchain\arm-none-eabi\include\c++\10.2.1\bits\stl_vector.h ****        *  @brief  %Vector copy constructor.
 544:c:\program files\daisytoolchain\arm-none-eabi\include\c++\10.2.1\bits\stl_vector.h ****        *  @param  __x  A %vector of identical element and allocator types.
 545:c:\program files\daisytoolchain\arm-none-eabi\include\c++\10.2.1\bits\stl_vector.h ****        *
 546:c:\program files\daisytoolchain\arm-none-eabi\include\c++\10.2.1\bits\stl_vector.h ****        *  All the elements of @a __x are copied, but any unused capacity in
 547:c:\program files\daisytoolchain\arm-none-eabi\include\c++\10.2.1\bits\stl_vector.h ****        *  @a __x  will not be copied
 548:c:\program files\daisytoolchain\arm-none-eabi\include\c++\10.2.1\bits\stl_vector.h ****        *  (i.e. capacity() == size() in the new %vector).
 549:c:\program files\daisytoolchain\arm-none-eabi\include\c++\10.2.1\bits\stl_vector.h ****        *
 550:c:\program files\daisytoolchain\arm-none-eabi\include\c++\10.2.1\bits\stl_vector.h ****        *  The newly-created %vector uses a copy of the allocator object used
 551:c:\program files\daisytoolchain\arm-none-eabi\include\c++\10.2.1\bits\stl_vector.h ****        *  by @a __x (unless the allocator traits dictate a different object).
 552:c:\program files\daisytoolchain\arm-none-eabi\include\c++\10.2.1\bits\stl_vector.h ****        */
 553:c:\program files\daisytoolchain\arm-none-eabi\include\c++\10.2.1\bits\stl_vector.h ****       vector(const vector& __x)
 554:c:\program files\daisytoolchain\arm-none-eabi\include\c++\10.2.1\bits\stl_vector.h ****       : _Base(__x.size(),
 555:c:\program files\daisytoolchain\arm-none-eabi\include\c++\10.2.1\bits\stl_vector.h **** 	_Alloc_traits::_S_select_on_copy(__x._M_get_Tp_allocator()))
ARM GAS  C:\Users\theja\AppData\Local\Temp\ccV0pz5d.s 			page 14


 556:c:\program files\daisytoolchain\arm-none-eabi\include\c++\10.2.1\bits\stl_vector.h ****       {
 557:c:\program files\daisytoolchain\arm-none-eabi\include\c++\10.2.1\bits\stl_vector.h **** 	this->_M_impl._M_finish =
 558:c:\program files\daisytoolchain\arm-none-eabi\include\c++\10.2.1\bits\stl_vector.h **** 	  std::__uninitialized_copy_a(__x.begin(), __x.end(),
 559:c:\program files\daisytoolchain\arm-none-eabi\include\c++\10.2.1\bits\stl_vector.h **** 				      this->_M_impl._M_start,
 560:c:\program files\daisytoolchain\arm-none-eabi\include\c++\10.2.1\bits\stl_vector.h **** 				      _M_get_Tp_allocator());
 561:c:\program files\daisytoolchain\arm-none-eabi\include\c++\10.2.1\bits\stl_vector.h ****       }
 562:c:\program files\daisytoolchain\arm-none-eabi\include\c++\10.2.1\bits\stl_vector.h **** 
 563:c:\program files\daisytoolchain\arm-none-eabi\include\c++\10.2.1\bits\stl_vector.h **** #if __cplusplus >= 201103L
 564:c:\program files\daisytoolchain\arm-none-eabi\include\c++\10.2.1\bits\stl_vector.h ****       /**
 565:c:\program files\daisytoolchain\arm-none-eabi\include\c++\10.2.1\bits\stl_vector.h ****        *  @brief  %Vector move constructor.
 566:c:\program files\daisytoolchain\arm-none-eabi\include\c++\10.2.1\bits\stl_vector.h ****        *
 567:c:\program files\daisytoolchain\arm-none-eabi\include\c++\10.2.1\bits\stl_vector.h ****        *  The newly-created %vector contains the exact contents of the
 568:c:\program files\daisytoolchain\arm-none-eabi\include\c++\10.2.1\bits\stl_vector.h ****        *  moved instance.
 569:c:\program files\daisytoolchain\arm-none-eabi\include\c++\10.2.1\bits\stl_vector.h ****        *  The contents of the moved instance are a valid, but unspecified
 570:c:\program files\daisytoolchain\arm-none-eabi\include\c++\10.2.1\bits\stl_vector.h ****        *  %vector.
 571:c:\program files\daisytoolchain\arm-none-eabi\include\c++\10.2.1\bits\stl_vector.h ****        */
 572:c:\program files\daisytoolchain\arm-none-eabi\include\c++\10.2.1\bits\stl_vector.h ****       vector(vector&&) noexcept = default;
 573:c:\program files\daisytoolchain\arm-none-eabi\include\c++\10.2.1\bits\stl_vector.h **** 
 574:c:\program files\daisytoolchain\arm-none-eabi\include\c++\10.2.1\bits\stl_vector.h ****       /// Copy constructor with alternative allocator
 575:c:\program files\daisytoolchain\arm-none-eabi\include\c++\10.2.1\bits\stl_vector.h ****       vector(const vector& __x, const allocator_type& __a)
 576:c:\program files\daisytoolchain\arm-none-eabi\include\c++\10.2.1\bits\stl_vector.h ****       : _Base(__x.size(), __a)
 577:c:\program files\daisytoolchain\arm-none-eabi\include\c++\10.2.1\bits\stl_vector.h ****       {
 578:c:\program files\daisytoolchain\arm-none-eabi\include\c++\10.2.1\bits\stl_vector.h **** 	this->_M_impl._M_finish =
 579:c:\program files\daisytoolchain\arm-none-eabi\include\c++\10.2.1\bits\stl_vector.h **** 	  std::__uninitialized_copy_a(__x.begin(), __x.end(),
 580:c:\program files\daisytoolchain\arm-none-eabi\include\c++\10.2.1\bits\stl_vector.h **** 				      this->_M_impl._M_start,
 581:c:\program files\daisytoolchain\arm-none-eabi\include\c++\10.2.1\bits\stl_vector.h **** 				      _M_get_Tp_allocator());
 582:c:\program files\daisytoolchain\arm-none-eabi\include\c++\10.2.1\bits\stl_vector.h ****       }
 583:c:\program files\daisytoolchain\arm-none-eabi\include\c++\10.2.1\bits\stl_vector.h **** 
 584:c:\program files\daisytoolchain\arm-none-eabi\include\c++\10.2.1\bits\stl_vector.h ****     private:
 585:c:\program files\daisytoolchain\arm-none-eabi\include\c++\10.2.1\bits\stl_vector.h ****       vector(vector&& __rv, const allocator_type& __m, true_type) noexcept
 586:c:\program files\daisytoolchain\arm-none-eabi\include\c++\10.2.1\bits\stl_vector.h ****       : _Base(__m, std::move(__rv))
 587:c:\program files\daisytoolchain\arm-none-eabi\include\c++\10.2.1\bits\stl_vector.h ****       { }
 588:c:\program files\daisytoolchain\arm-none-eabi\include\c++\10.2.1\bits\stl_vector.h **** 
 589:c:\program files\daisytoolchain\arm-none-eabi\include\c++\10.2.1\bits\stl_vector.h ****       vector(vector&& __rv, const allocator_type& __m, false_type)
 590:c:\program files\daisytoolchain\arm-none-eabi\include\c++\10.2.1\bits\stl_vector.h ****       : _Base(__m)
 591:c:\program files\daisytoolchain\arm-none-eabi\include\c++\10.2.1\bits\stl_vector.h ****       {
 592:c:\program files\daisytoolchain\arm-none-eabi\include\c++\10.2.1\bits\stl_vector.h **** 	if (__rv.get_allocator() == __m)
 593:c:\program files\daisytoolchain\arm-none-eabi\include\c++\10.2.1\bits\stl_vector.h **** 	  this->_M_impl._M_swap_data(__rv._M_impl);
 594:c:\program files\daisytoolchain\arm-none-eabi\include\c++\10.2.1\bits\stl_vector.h **** 	else if (!__rv.empty())
 595:c:\program files\daisytoolchain\arm-none-eabi\include\c++\10.2.1\bits\stl_vector.h **** 	  {
 596:c:\program files\daisytoolchain\arm-none-eabi\include\c++\10.2.1\bits\stl_vector.h **** 	    this->_M_create_storage(__rv.size());
 597:c:\program files\daisytoolchain\arm-none-eabi\include\c++\10.2.1\bits\stl_vector.h **** 	    this->_M_impl._M_finish =
 598:c:\program files\daisytoolchain\arm-none-eabi\include\c++\10.2.1\bits\stl_vector.h **** 	      std::__uninitialized_move_a(__rv.begin(), __rv.end(),
 599:c:\program files\daisytoolchain\arm-none-eabi\include\c++\10.2.1\bits\stl_vector.h **** 					  this->_M_impl._M_start,
 600:c:\program files\daisytoolchain\arm-none-eabi\include\c++\10.2.1\bits\stl_vector.h **** 					  _M_get_Tp_allocator());
 601:c:\program files\daisytoolchain\arm-none-eabi\include\c++\10.2.1\bits\stl_vector.h **** 	    __rv.clear();
 602:c:\program files\daisytoolchain\arm-none-eabi\include\c++\10.2.1\bits\stl_vector.h **** 	  }
 603:c:\program files\daisytoolchain\arm-none-eabi\include\c++\10.2.1\bits\stl_vector.h ****       }
 604:c:\program files\daisytoolchain\arm-none-eabi\include\c++\10.2.1\bits\stl_vector.h **** 
 605:c:\program files\daisytoolchain\arm-none-eabi\include\c++\10.2.1\bits\stl_vector.h ****     public:
 606:c:\program files\daisytoolchain\arm-none-eabi\include\c++\10.2.1\bits\stl_vector.h ****       /// Move constructor with alternative allocator
 607:c:\program files\daisytoolchain\arm-none-eabi\include\c++\10.2.1\bits\stl_vector.h ****       vector(vector&& __rv, const allocator_type& __m)
 608:c:\program files\daisytoolchain\arm-none-eabi\include\c++\10.2.1\bits\stl_vector.h ****       noexcept( noexcept(
 609:c:\program files\daisytoolchain\arm-none-eabi\include\c++\10.2.1\bits\stl_vector.h **** 	vector(std::declval<vector&&>(), std::declval<const allocator_type&>(),
 610:c:\program files\daisytoolchain\arm-none-eabi\include\c++\10.2.1\bits\stl_vector.h **** 	       std::declval<typename _Alloc_traits::is_always_equal>())) )
 611:c:\program files\daisytoolchain\arm-none-eabi\include\c++\10.2.1\bits\stl_vector.h ****       : vector(std::move(__rv), __m, typename _Alloc_traits::is_always_equal{})
 612:c:\program files\daisytoolchain\arm-none-eabi\include\c++\10.2.1\bits\stl_vector.h ****       { }
ARM GAS  C:\Users\theja\AppData\Local\Temp\ccV0pz5d.s 			page 15


 613:c:\program files\daisytoolchain\arm-none-eabi\include\c++\10.2.1\bits\stl_vector.h **** 
 614:c:\program files\daisytoolchain\arm-none-eabi\include\c++\10.2.1\bits\stl_vector.h ****       /**
 615:c:\program files\daisytoolchain\arm-none-eabi\include\c++\10.2.1\bits\stl_vector.h ****        *  @brief  Builds a %vector from an initializer list.
 616:c:\program files\daisytoolchain\arm-none-eabi\include\c++\10.2.1\bits\stl_vector.h ****        *  @param  __l  An initializer_list.
 617:c:\program files\daisytoolchain\arm-none-eabi\include\c++\10.2.1\bits\stl_vector.h ****        *  @param  __a  An allocator.
 618:c:\program files\daisytoolchain\arm-none-eabi\include\c++\10.2.1\bits\stl_vector.h ****        *
 619:c:\program files\daisytoolchain\arm-none-eabi\include\c++\10.2.1\bits\stl_vector.h ****        *  Create a %vector consisting of copies of the elements in the
 620:c:\program files\daisytoolchain\arm-none-eabi\include\c++\10.2.1\bits\stl_vector.h ****        *  initializer_list @a __l.
 621:c:\program files\daisytoolchain\arm-none-eabi\include\c++\10.2.1\bits\stl_vector.h ****        *
 622:c:\program files\daisytoolchain\arm-none-eabi\include\c++\10.2.1\bits\stl_vector.h ****        *  This will call the element type's copy constructor N times
 623:c:\program files\daisytoolchain\arm-none-eabi\include\c++\10.2.1\bits\stl_vector.h ****        *  (where N is @a __l.size()) and do no memory reallocation.
 624:c:\program files\daisytoolchain\arm-none-eabi\include\c++\10.2.1\bits\stl_vector.h ****        */
 625:c:\program files\daisytoolchain\arm-none-eabi\include\c++\10.2.1\bits\stl_vector.h ****       vector(initializer_list<value_type> __l,
 626:c:\program files\daisytoolchain\arm-none-eabi\include\c++\10.2.1\bits\stl_vector.h **** 	     const allocator_type& __a = allocator_type())
 627:c:\program files\daisytoolchain\arm-none-eabi\include\c++\10.2.1\bits\stl_vector.h ****       : _Base(__a)
 628:c:\program files\daisytoolchain\arm-none-eabi\include\c++\10.2.1\bits\stl_vector.h ****       {
 629:c:\program files\daisytoolchain\arm-none-eabi\include\c++\10.2.1\bits\stl_vector.h **** 	_M_range_initialize(__l.begin(), __l.end(),
 630:c:\program files\daisytoolchain\arm-none-eabi\include\c++\10.2.1\bits\stl_vector.h **** 			    random_access_iterator_tag());
 631:c:\program files\daisytoolchain\arm-none-eabi\include\c++\10.2.1\bits\stl_vector.h ****       }
 632:c:\program files\daisytoolchain\arm-none-eabi\include\c++\10.2.1\bits\stl_vector.h **** #endif
 633:c:\program files\daisytoolchain\arm-none-eabi\include\c++\10.2.1\bits\stl_vector.h **** 
 634:c:\program files\daisytoolchain\arm-none-eabi\include\c++\10.2.1\bits\stl_vector.h ****       /**
 635:c:\program files\daisytoolchain\arm-none-eabi\include\c++\10.2.1\bits\stl_vector.h ****        *  @brief  Builds a %vector from a range.
 636:c:\program files\daisytoolchain\arm-none-eabi\include\c++\10.2.1\bits\stl_vector.h ****        *  @param  __first  An input iterator.
 637:c:\program files\daisytoolchain\arm-none-eabi\include\c++\10.2.1\bits\stl_vector.h ****        *  @param  __last  An input iterator.
 638:c:\program files\daisytoolchain\arm-none-eabi\include\c++\10.2.1\bits\stl_vector.h ****        *  @param  __a  An allocator.
 639:c:\program files\daisytoolchain\arm-none-eabi\include\c++\10.2.1\bits\stl_vector.h ****        *
 640:c:\program files\daisytoolchain\arm-none-eabi\include\c++\10.2.1\bits\stl_vector.h ****        *  Create a %vector consisting of copies of the elements from
 641:c:\program files\daisytoolchain\arm-none-eabi\include\c++\10.2.1\bits\stl_vector.h ****        *  [first,last).
 642:c:\program files\daisytoolchain\arm-none-eabi\include\c++\10.2.1\bits\stl_vector.h ****        *
 643:c:\program files\daisytoolchain\arm-none-eabi\include\c++\10.2.1\bits\stl_vector.h ****        *  If the iterators are forward, bidirectional, or
 644:c:\program files\daisytoolchain\arm-none-eabi\include\c++\10.2.1\bits\stl_vector.h ****        *  random-access, then this will call the elements' copy
 645:c:\program files\daisytoolchain\arm-none-eabi\include\c++\10.2.1\bits\stl_vector.h ****        *  constructor N times (where N is distance(first,last)) and do
 646:c:\program files\daisytoolchain\arm-none-eabi\include\c++\10.2.1\bits\stl_vector.h ****        *  no memory reallocation.  But if only input iterators are
 647:c:\program files\daisytoolchain\arm-none-eabi\include\c++\10.2.1\bits\stl_vector.h ****        *  used, then this will do at most 2N calls to the copy
 648:c:\program files\daisytoolchain\arm-none-eabi\include\c++\10.2.1\bits\stl_vector.h ****        *  constructor, and logN memory reallocations.
 649:c:\program files\daisytoolchain\arm-none-eabi\include\c++\10.2.1\bits\stl_vector.h ****        */
 650:c:\program files\daisytoolchain\arm-none-eabi\include\c++\10.2.1\bits\stl_vector.h **** #if __cplusplus >= 201103L
 651:c:\program files\daisytoolchain\arm-none-eabi\include\c++\10.2.1\bits\stl_vector.h ****       template<typename _InputIterator,
 652:c:\program files\daisytoolchain\arm-none-eabi\include\c++\10.2.1\bits\stl_vector.h **** 	       typename = std::_RequireInputIter<_InputIterator>>
 653:c:\program files\daisytoolchain\arm-none-eabi\include\c++\10.2.1\bits\stl_vector.h **** 	vector(_InputIterator __first, _InputIterator __last,
 654:c:\program files\daisytoolchain\arm-none-eabi\include\c++\10.2.1\bits\stl_vector.h **** 	       const allocator_type& __a = allocator_type())
 655:c:\program files\daisytoolchain\arm-none-eabi\include\c++\10.2.1\bits\stl_vector.h **** 	: _Base(__a)
 656:c:\program files\daisytoolchain\arm-none-eabi\include\c++\10.2.1\bits\stl_vector.h **** 	{
 657:c:\program files\daisytoolchain\arm-none-eabi\include\c++\10.2.1\bits\stl_vector.h **** 	  _M_range_initialize(__first, __last,
 658:c:\program files\daisytoolchain\arm-none-eabi\include\c++\10.2.1\bits\stl_vector.h **** 			      std::__iterator_category(__first));
 659:c:\program files\daisytoolchain\arm-none-eabi\include\c++\10.2.1\bits\stl_vector.h **** 	}
 660:c:\program files\daisytoolchain\arm-none-eabi\include\c++\10.2.1\bits\stl_vector.h **** #else
 661:c:\program files\daisytoolchain\arm-none-eabi\include\c++\10.2.1\bits\stl_vector.h ****       template<typename _InputIterator>
 662:c:\program files\daisytoolchain\arm-none-eabi\include\c++\10.2.1\bits\stl_vector.h **** 	vector(_InputIterator __first, _InputIterator __last,
 663:c:\program files\daisytoolchain\arm-none-eabi\include\c++\10.2.1\bits\stl_vector.h **** 	       const allocator_type& __a = allocator_type())
 664:c:\program files\daisytoolchain\arm-none-eabi\include\c++\10.2.1\bits\stl_vector.h **** 	: _Base(__a)
 665:c:\program files\daisytoolchain\arm-none-eabi\include\c++\10.2.1\bits\stl_vector.h **** 	{
 666:c:\program files\daisytoolchain\arm-none-eabi\include\c++\10.2.1\bits\stl_vector.h **** 	  // Check whether it's an integral type.  If so, it's not an iterator.
 667:c:\program files\daisytoolchain\arm-none-eabi\include\c++\10.2.1\bits\stl_vector.h **** 	  typedef typename std::__is_integer<_InputIterator>::__type _Integral;
 668:c:\program files\daisytoolchain\arm-none-eabi\include\c++\10.2.1\bits\stl_vector.h **** 	  _M_initialize_dispatch(__first, __last, _Integral());
 669:c:\program files\daisytoolchain\arm-none-eabi\include\c++\10.2.1\bits\stl_vector.h **** 	}
ARM GAS  C:\Users\theja\AppData\Local\Temp\ccV0pz5d.s 			page 16


 670:c:\program files\daisytoolchain\arm-none-eabi\include\c++\10.2.1\bits\stl_vector.h **** #endif
 671:c:\program files\daisytoolchain\arm-none-eabi\include\c++\10.2.1\bits\stl_vector.h **** 
 672:c:\program files\daisytoolchain\arm-none-eabi\include\c++\10.2.1\bits\stl_vector.h ****       /**
 673:c:\program files\daisytoolchain\arm-none-eabi\include\c++\10.2.1\bits\stl_vector.h ****        *  The dtor only erases the elements, and note that if the
 674:c:\program files\daisytoolchain\arm-none-eabi\include\c++\10.2.1\bits\stl_vector.h ****        *  elements themselves are pointers, the pointed-to memory is
 675:c:\program files\daisytoolchain\arm-none-eabi\include\c++\10.2.1\bits\stl_vector.h ****        *  not touched in any way.  Managing the pointer is the user's
 676:c:\program files\daisytoolchain\arm-none-eabi\include\c++\10.2.1\bits\stl_vector.h ****        *  responsibility.
 677:c:\program files\daisytoolchain\arm-none-eabi\include\c++\10.2.1\bits\stl_vector.h ****        */
 678:c:\program files\daisytoolchain\arm-none-eabi\include\c++\10.2.1\bits\stl_vector.h ****       ~vector() _GLIBCXX_NOEXCEPT
 679:c:\program files\daisytoolchain\arm-none-eabi\include\c++\10.2.1\bits\stl_vector.h ****       {
 680:c:\program files\daisytoolchain\arm-none-eabi\include\c++\10.2.1\bits\stl_vector.h **** 	std::_Destroy(this->_M_impl._M_start, this->_M_impl._M_finish,
 681:c:\program files\daisytoolchain\arm-none-eabi\include\c++\10.2.1\bits\stl_vector.h **** 		      _M_get_Tp_allocator());
 682:c:\program files\daisytoolchain\arm-none-eabi\include\c++\10.2.1\bits\stl_vector.h **** 	_GLIBCXX_ASAN_ANNOTATE_BEFORE_DEALLOC;
 683:c:\program files\daisytoolchain\arm-none-eabi\include\c++\10.2.1\bits\stl_vector.h ****       }
 684:c:\program files\daisytoolchain\arm-none-eabi\include\c++\10.2.1\bits\stl_vector.h **** 
 685:c:\program files\daisytoolchain\arm-none-eabi\include\c++\10.2.1\bits\stl_vector.h ****       /**
 686:c:\program files\daisytoolchain\arm-none-eabi\include\c++\10.2.1\bits\stl_vector.h ****        *  @brief  %Vector assignment operator.
 687:c:\program files\daisytoolchain\arm-none-eabi\include\c++\10.2.1\bits\stl_vector.h ****        *  @param  __x  A %vector of identical element and allocator types.
 688:c:\program files\daisytoolchain\arm-none-eabi\include\c++\10.2.1\bits\stl_vector.h ****        *
 689:c:\program files\daisytoolchain\arm-none-eabi\include\c++\10.2.1\bits\stl_vector.h ****        *  All the elements of @a __x are copied, but any unused capacity in
 690:c:\program files\daisytoolchain\arm-none-eabi\include\c++\10.2.1\bits\stl_vector.h ****        *  @a __x will not be copied.
 691:c:\program files\daisytoolchain\arm-none-eabi\include\c++\10.2.1\bits\stl_vector.h ****        *
 692:c:\program files\daisytoolchain\arm-none-eabi\include\c++\10.2.1\bits\stl_vector.h ****        *  Whether the allocator is copied depends on the allocator traits.
 693:c:\program files\daisytoolchain\arm-none-eabi\include\c++\10.2.1\bits\stl_vector.h ****        */
 694:c:\program files\daisytoolchain\arm-none-eabi\include\c++\10.2.1\bits\stl_vector.h ****       vector&
 695:c:\program files\daisytoolchain\arm-none-eabi\include\c++\10.2.1\bits\stl_vector.h ****       operator=(const vector& __x);
 696:c:\program files\daisytoolchain\arm-none-eabi\include\c++\10.2.1\bits\stl_vector.h **** 
 697:c:\program files\daisytoolchain\arm-none-eabi\include\c++\10.2.1\bits\stl_vector.h **** #if __cplusplus >= 201103L
 698:c:\program files\daisytoolchain\arm-none-eabi\include\c++\10.2.1\bits\stl_vector.h ****       /**
 699:c:\program files\daisytoolchain\arm-none-eabi\include\c++\10.2.1\bits\stl_vector.h ****        *  @brief  %Vector move assignment operator.
 700:c:\program files\daisytoolchain\arm-none-eabi\include\c++\10.2.1\bits\stl_vector.h ****        *  @param  __x  A %vector of identical element and allocator types.
 701:c:\program files\daisytoolchain\arm-none-eabi\include\c++\10.2.1\bits\stl_vector.h ****        *
 702:c:\program files\daisytoolchain\arm-none-eabi\include\c++\10.2.1\bits\stl_vector.h ****        *  The contents of @a __x are moved into this %vector (without copying,
 703:c:\program files\daisytoolchain\arm-none-eabi\include\c++\10.2.1\bits\stl_vector.h ****        *  if the allocators permit it).
 704:c:\program files\daisytoolchain\arm-none-eabi\include\c++\10.2.1\bits\stl_vector.h ****        *  Afterwards @a __x is a valid, but unspecified %vector.
 705:c:\program files\daisytoolchain\arm-none-eabi\include\c++\10.2.1\bits\stl_vector.h ****        *
 706:c:\program files\daisytoolchain\arm-none-eabi\include\c++\10.2.1\bits\stl_vector.h ****        *  Whether the allocator is moved depends on the allocator traits.
 707:c:\program files\daisytoolchain\arm-none-eabi\include\c++\10.2.1\bits\stl_vector.h ****        */
 708:c:\program files\daisytoolchain\arm-none-eabi\include\c++\10.2.1\bits\stl_vector.h ****       vector&
 709:c:\program files\daisytoolchain\arm-none-eabi\include\c++\10.2.1\bits\stl_vector.h ****       operator=(vector&& __x) noexcept(_Alloc_traits::_S_nothrow_move())
 710:c:\program files\daisytoolchain\arm-none-eabi\include\c++\10.2.1\bits\stl_vector.h ****       {
 711:c:\program files\daisytoolchain\arm-none-eabi\include\c++\10.2.1\bits\stl_vector.h **** 	constexpr bool __move_storage =
 712:c:\program files\daisytoolchain\arm-none-eabi\include\c++\10.2.1\bits\stl_vector.h **** 	  _Alloc_traits::_S_propagate_on_move_assign()
 713:c:\program files\daisytoolchain\arm-none-eabi\include\c++\10.2.1\bits\stl_vector.h **** 	  || _Alloc_traits::_S_always_equal();
 714:c:\program files\daisytoolchain\arm-none-eabi\include\c++\10.2.1\bits\stl_vector.h **** 	_M_move_assign(std::move(__x), __bool_constant<__move_storage>());
 715:c:\program files\daisytoolchain\arm-none-eabi\include\c++\10.2.1\bits\stl_vector.h **** 	return *this;
 716:c:\program files\daisytoolchain\arm-none-eabi\include\c++\10.2.1\bits\stl_vector.h ****       }
 717:c:\program files\daisytoolchain\arm-none-eabi\include\c++\10.2.1\bits\stl_vector.h **** 
 718:c:\program files\daisytoolchain\arm-none-eabi\include\c++\10.2.1\bits\stl_vector.h ****       /**
 719:c:\program files\daisytoolchain\arm-none-eabi\include\c++\10.2.1\bits\stl_vector.h ****        *  @brief  %Vector list assignment operator.
 720:c:\program files\daisytoolchain\arm-none-eabi\include\c++\10.2.1\bits\stl_vector.h ****        *  @param  __l  An initializer_list.
 721:c:\program files\daisytoolchain\arm-none-eabi\include\c++\10.2.1\bits\stl_vector.h ****        *
 722:c:\program files\daisytoolchain\arm-none-eabi\include\c++\10.2.1\bits\stl_vector.h ****        *  This function fills a %vector with copies of the elements in the
 723:c:\program files\daisytoolchain\arm-none-eabi\include\c++\10.2.1\bits\stl_vector.h ****        *  initializer list @a __l.
 724:c:\program files\daisytoolchain\arm-none-eabi\include\c++\10.2.1\bits\stl_vector.h ****        *
 725:c:\program files\daisytoolchain\arm-none-eabi\include\c++\10.2.1\bits\stl_vector.h ****        *  Note that the assignment completely changes the %vector and
 726:c:\program files\daisytoolchain\arm-none-eabi\include\c++\10.2.1\bits\stl_vector.h ****        *  that the resulting %vector's size is the same as the number
ARM GAS  C:\Users\theja\AppData\Local\Temp\ccV0pz5d.s 			page 17


 727:c:\program files\daisytoolchain\arm-none-eabi\include\c++\10.2.1\bits\stl_vector.h ****        *  of elements assigned.
 728:c:\program files\daisytoolchain\arm-none-eabi\include\c++\10.2.1\bits\stl_vector.h ****        */
 729:c:\program files\daisytoolchain\arm-none-eabi\include\c++\10.2.1\bits\stl_vector.h ****       vector&
 730:c:\program files\daisytoolchain\arm-none-eabi\include\c++\10.2.1\bits\stl_vector.h ****       operator=(initializer_list<value_type> __l)
 731:c:\program files\daisytoolchain\arm-none-eabi\include\c++\10.2.1\bits\stl_vector.h ****       {
 732:c:\program files\daisytoolchain\arm-none-eabi\include\c++\10.2.1\bits\stl_vector.h **** 	this->_M_assign_aux(__l.begin(), __l.end(),
 733:c:\program files\daisytoolchain\arm-none-eabi\include\c++\10.2.1\bits\stl_vector.h **** 			    random_access_iterator_tag());
 734:c:\program files\daisytoolchain\arm-none-eabi\include\c++\10.2.1\bits\stl_vector.h **** 	return *this;
 735:c:\program files\daisytoolchain\arm-none-eabi\include\c++\10.2.1\bits\stl_vector.h ****       }
 736:c:\program files\daisytoolchain\arm-none-eabi\include\c++\10.2.1\bits\stl_vector.h **** #endif
 737:c:\program files\daisytoolchain\arm-none-eabi\include\c++\10.2.1\bits\stl_vector.h **** 
 738:c:\program files\daisytoolchain\arm-none-eabi\include\c++\10.2.1\bits\stl_vector.h ****       /**
 739:c:\program files\daisytoolchain\arm-none-eabi\include\c++\10.2.1\bits\stl_vector.h ****        *  @brief  Assigns a given value to a %vector.
 740:c:\program files\daisytoolchain\arm-none-eabi\include\c++\10.2.1\bits\stl_vector.h ****        *  @param  __n  Number of elements to be assigned.
 741:c:\program files\daisytoolchain\arm-none-eabi\include\c++\10.2.1\bits\stl_vector.h ****        *  @param  __val  Value to be assigned.
 742:c:\program files\daisytoolchain\arm-none-eabi\include\c++\10.2.1\bits\stl_vector.h ****        *
 743:c:\program files\daisytoolchain\arm-none-eabi\include\c++\10.2.1\bits\stl_vector.h ****        *  This function fills a %vector with @a __n copies of the given
 744:c:\program files\daisytoolchain\arm-none-eabi\include\c++\10.2.1\bits\stl_vector.h ****        *  value.  Note that the assignment completely changes the
 745:c:\program files\daisytoolchain\arm-none-eabi\include\c++\10.2.1\bits\stl_vector.h ****        *  %vector and that the resulting %vector's size is the same as
 746:c:\program files\daisytoolchain\arm-none-eabi\include\c++\10.2.1\bits\stl_vector.h ****        *  the number of elements assigned.
 747:c:\program files\daisytoolchain\arm-none-eabi\include\c++\10.2.1\bits\stl_vector.h ****        */
 748:c:\program files\daisytoolchain\arm-none-eabi\include\c++\10.2.1\bits\stl_vector.h ****       void
 749:c:\program files\daisytoolchain\arm-none-eabi\include\c++\10.2.1\bits\stl_vector.h ****       assign(size_type __n, const value_type& __val)
 750:c:\program files\daisytoolchain\arm-none-eabi\include\c++\10.2.1\bits\stl_vector.h ****       { _M_fill_assign(__n, __val); }
 751:c:\program files\daisytoolchain\arm-none-eabi\include\c++\10.2.1\bits\stl_vector.h **** 
 752:c:\program files\daisytoolchain\arm-none-eabi\include\c++\10.2.1\bits\stl_vector.h ****       /**
 753:c:\program files\daisytoolchain\arm-none-eabi\include\c++\10.2.1\bits\stl_vector.h ****        *  @brief  Assigns a range to a %vector.
 754:c:\program files\daisytoolchain\arm-none-eabi\include\c++\10.2.1\bits\stl_vector.h ****        *  @param  __first  An input iterator.
 755:c:\program files\daisytoolchain\arm-none-eabi\include\c++\10.2.1\bits\stl_vector.h ****        *  @param  __last   An input iterator.
 756:c:\program files\daisytoolchain\arm-none-eabi\include\c++\10.2.1\bits\stl_vector.h ****        *
 757:c:\program files\daisytoolchain\arm-none-eabi\include\c++\10.2.1\bits\stl_vector.h ****        *  This function fills a %vector with copies of the elements in the
 758:c:\program files\daisytoolchain\arm-none-eabi\include\c++\10.2.1\bits\stl_vector.h ****        *  range [__first,__last).
 759:c:\program files\daisytoolchain\arm-none-eabi\include\c++\10.2.1\bits\stl_vector.h ****        *
 760:c:\program files\daisytoolchain\arm-none-eabi\include\c++\10.2.1\bits\stl_vector.h ****        *  Note that the assignment completely changes the %vector and
 761:c:\program files\daisytoolchain\arm-none-eabi\include\c++\10.2.1\bits\stl_vector.h ****        *  that the resulting %vector's size is the same as the number
 762:c:\program files\daisytoolchain\arm-none-eabi\include\c++\10.2.1\bits\stl_vector.h ****        *  of elements assigned.
 763:c:\program files\daisytoolchain\arm-none-eabi\include\c++\10.2.1\bits\stl_vector.h ****        */
 764:c:\program files\daisytoolchain\arm-none-eabi\include\c++\10.2.1\bits\stl_vector.h **** #if __cplusplus >= 201103L
 765:c:\program files\daisytoolchain\arm-none-eabi\include\c++\10.2.1\bits\stl_vector.h ****       template<typename _InputIterator,
 766:c:\program files\daisytoolchain\arm-none-eabi\include\c++\10.2.1\bits\stl_vector.h **** 	       typename = std::_RequireInputIter<_InputIterator>>
 767:c:\program files\daisytoolchain\arm-none-eabi\include\c++\10.2.1\bits\stl_vector.h **** 	void
 768:c:\program files\daisytoolchain\arm-none-eabi\include\c++\10.2.1\bits\stl_vector.h **** 	assign(_InputIterator __first, _InputIterator __last)
 769:c:\program files\daisytoolchain\arm-none-eabi\include\c++\10.2.1\bits\stl_vector.h **** 	{ _M_assign_dispatch(__first, __last, __false_type()); }
 770:c:\program files\daisytoolchain\arm-none-eabi\include\c++\10.2.1\bits\stl_vector.h **** #else
 771:c:\program files\daisytoolchain\arm-none-eabi\include\c++\10.2.1\bits\stl_vector.h ****       template<typename _InputIterator>
 772:c:\program files\daisytoolchain\arm-none-eabi\include\c++\10.2.1\bits\stl_vector.h **** 	void
 773:c:\program files\daisytoolchain\arm-none-eabi\include\c++\10.2.1\bits\stl_vector.h **** 	assign(_InputIterator __first, _InputIterator __last)
 774:c:\program files\daisytoolchain\arm-none-eabi\include\c++\10.2.1\bits\stl_vector.h **** 	{
 775:c:\program files\daisytoolchain\arm-none-eabi\include\c++\10.2.1\bits\stl_vector.h **** 	  // Check whether it's an integral type.  If so, it's not an iterator.
 776:c:\program files\daisytoolchain\arm-none-eabi\include\c++\10.2.1\bits\stl_vector.h **** 	  typedef typename std::__is_integer<_InputIterator>::__type _Integral;
 777:c:\program files\daisytoolchain\arm-none-eabi\include\c++\10.2.1\bits\stl_vector.h **** 	  _M_assign_dispatch(__first, __last, _Integral());
 778:c:\program files\daisytoolchain\arm-none-eabi\include\c++\10.2.1\bits\stl_vector.h **** 	}
 779:c:\program files\daisytoolchain\arm-none-eabi\include\c++\10.2.1\bits\stl_vector.h **** #endif
 780:c:\program files\daisytoolchain\arm-none-eabi\include\c++\10.2.1\bits\stl_vector.h **** 
 781:c:\program files\daisytoolchain\arm-none-eabi\include\c++\10.2.1\bits\stl_vector.h **** #if __cplusplus >= 201103L
 782:c:\program files\daisytoolchain\arm-none-eabi\include\c++\10.2.1\bits\stl_vector.h ****       /**
 783:c:\program files\daisytoolchain\arm-none-eabi\include\c++\10.2.1\bits\stl_vector.h ****        *  @brief  Assigns an initializer list to a %vector.
ARM GAS  C:\Users\theja\AppData\Local\Temp\ccV0pz5d.s 			page 18


 784:c:\program files\daisytoolchain\arm-none-eabi\include\c++\10.2.1\bits\stl_vector.h ****        *  @param  __l  An initializer_list.
 785:c:\program files\daisytoolchain\arm-none-eabi\include\c++\10.2.1\bits\stl_vector.h ****        *
 786:c:\program files\daisytoolchain\arm-none-eabi\include\c++\10.2.1\bits\stl_vector.h ****        *  This function fills a %vector with copies of the elements in the
 787:c:\program files\daisytoolchain\arm-none-eabi\include\c++\10.2.1\bits\stl_vector.h ****        *  initializer list @a __l.
 788:c:\program files\daisytoolchain\arm-none-eabi\include\c++\10.2.1\bits\stl_vector.h ****        *
 789:c:\program files\daisytoolchain\arm-none-eabi\include\c++\10.2.1\bits\stl_vector.h ****        *  Note that the assignment completely changes the %vector and
 790:c:\program files\daisytoolchain\arm-none-eabi\include\c++\10.2.1\bits\stl_vector.h ****        *  that the resulting %vector's size is the same as the number
 791:c:\program files\daisytoolchain\arm-none-eabi\include\c++\10.2.1\bits\stl_vector.h ****        *  of elements assigned.
 792:c:\program files\daisytoolchain\arm-none-eabi\include\c++\10.2.1\bits\stl_vector.h ****        */
 793:c:\program files\daisytoolchain\arm-none-eabi\include\c++\10.2.1\bits\stl_vector.h ****       void
 794:c:\program files\daisytoolchain\arm-none-eabi\include\c++\10.2.1\bits\stl_vector.h ****       assign(initializer_list<value_type> __l)
 795:c:\program files\daisytoolchain\arm-none-eabi\include\c++\10.2.1\bits\stl_vector.h ****       {
 796:c:\program files\daisytoolchain\arm-none-eabi\include\c++\10.2.1\bits\stl_vector.h **** 	this->_M_assign_aux(__l.begin(), __l.end(),
 797:c:\program files\daisytoolchain\arm-none-eabi\include\c++\10.2.1\bits\stl_vector.h **** 			    random_access_iterator_tag());
 798:c:\program files\daisytoolchain\arm-none-eabi\include\c++\10.2.1\bits\stl_vector.h ****       }
 799:c:\program files\daisytoolchain\arm-none-eabi\include\c++\10.2.1\bits\stl_vector.h **** #endif
 800:c:\program files\daisytoolchain\arm-none-eabi\include\c++\10.2.1\bits\stl_vector.h **** 
 801:c:\program files\daisytoolchain\arm-none-eabi\include\c++\10.2.1\bits\stl_vector.h ****       /// Get a copy of the memory allocation object.
 802:c:\program files\daisytoolchain\arm-none-eabi\include\c++\10.2.1\bits\stl_vector.h ****       using _Base::get_allocator;
 803:c:\program files\daisytoolchain\arm-none-eabi\include\c++\10.2.1\bits\stl_vector.h **** 
 804:c:\program files\daisytoolchain\arm-none-eabi\include\c++\10.2.1\bits\stl_vector.h ****       // iterators
 805:c:\program files\daisytoolchain\arm-none-eabi\include\c++\10.2.1\bits\stl_vector.h ****       /**
 806:c:\program files\daisytoolchain\arm-none-eabi\include\c++\10.2.1\bits\stl_vector.h ****        *  Returns a read/write iterator that points to the first
 807:c:\program files\daisytoolchain\arm-none-eabi\include\c++\10.2.1\bits\stl_vector.h ****        *  element in the %vector.  Iteration is done in ordinary
 808:c:\program files\daisytoolchain\arm-none-eabi\include\c++\10.2.1\bits\stl_vector.h ****        *  element order.
 809:c:\program files\daisytoolchain\arm-none-eabi\include\c++\10.2.1\bits\stl_vector.h ****        */
 810:c:\program files\daisytoolchain\arm-none-eabi\include\c++\10.2.1\bits\stl_vector.h ****       iterator
 811:c:\program files\daisytoolchain\arm-none-eabi\include\c++\10.2.1\bits\stl_vector.h ****       begin() _GLIBCXX_NOEXCEPT
 812:c:\program files\daisytoolchain\arm-none-eabi\include\c++\10.2.1\bits\stl_vector.h ****       { return iterator(this->_M_impl._M_start); }
 813:c:\program files\daisytoolchain\arm-none-eabi\include\c++\10.2.1\bits\stl_vector.h **** 
 814:c:\program files\daisytoolchain\arm-none-eabi\include\c++\10.2.1\bits\stl_vector.h ****       /**
 815:c:\program files\daisytoolchain\arm-none-eabi\include\c++\10.2.1\bits\stl_vector.h ****        *  Returns a read-only (constant) iterator that points to the
 816:c:\program files\daisytoolchain\arm-none-eabi\include\c++\10.2.1\bits\stl_vector.h ****        *  first element in the %vector.  Iteration is done in ordinary
 817:c:\program files\daisytoolchain\arm-none-eabi\include\c++\10.2.1\bits\stl_vector.h ****        *  element order.
 818:c:\program files\daisytoolchain\arm-none-eabi\include\c++\10.2.1\bits\stl_vector.h ****        */
 819:c:\program files\daisytoolchain\arm-none-eabi\include\c++\10.2.1\bits\stl_vector.h ****       const_iterator
 820:c:\program files\daisytoolchain\arm-none-eabi\include\c++\10.2.1\bits\stl_vector.h ****       begin() const _GLIBCXX_NOEXCEPT
 821:c:\program files\daisytoolchain\arm-none-eabi\include\c++\10.2.1\bits\stl_vector.h ****       { return const_iterator(this->_M_impl._M_start); }
 822:c:\program files\daisytoolchain\arm-none-eabi\include\c++\10.2.1\bits\stl_vector.h **** 
 823:c:\program files\daisytoolchain\arm-none-eabi\include\c++\10.2.1\bits\stl_vector.h ****       /**
 824:c:\program files\daisytoolchain\arm-none-eabi\include\c++\10.2.1\bits\stl_vector.h ****        *  Returns a read/write iterator that points one past the last
 825:c:\program files\daisytoolchain\arm-none-eabi\include\c++\10.2.1\bits\stl_vector.h ****        *  element in the %vector.  Iteration is done in ordinary
 826:c:\program files\daisytoolchain\arm-none-eabi\include\c++\10.2.1\bits\stl_vector.h ****        *  element order.
 827:c:\program files\daisytoolchain\arm-none-eabi\include\c++\10.2.1\bits\stl_vector.h ****        */
 828:c:\program files\daisytoolchain\arm-none-eabi\include\c++\10.2.1\bits\stl_vector.h ****       iterator
 829:c:\program files\daisytoolchain\arm-none-eabi\include\c++\10.2.1\bits\stl_vector.h ****       end() _GLIBCXX_NOEXCEPT
 830:c:\program files\daisytoolchain\arm-none-eabi\include\c++\10.2.1\bits\stl_vector.h ****       { return iterator(this->_M_impl._M_finish); }
 831:c:\program files\daisytoolchain\arm-none-eabi\include\c++\10.2.1\bits\stl_vector.h **** 
 832:c:\program files\daisytoolchain\arm-none-eabi\include\c++\10.2.1\bits\stl_vector.h ****       /**
 833:c:\program files\daisytoolchain\arm-none-eabi\include\c++\10.2.1\bits\stl_vector.h ****        *  Returns a read-only (constant) iterator that points one past
 834:c:\program files\daisytoolchain\arm-none-eabi\include\c++\10.2.1\bits\stl_vector.h ****        *  the last element in the %vector.  Iteration is done in
 835:c:\program files\daisytoolchain\arm-none-eabi\include\c++\10.2.1\bits\stl_vector.h ****        *  ordinary element order.
 836:c:\program files\daisytoolchain\arm-none-eabi\include\c++\10.2.1\bits\stl_vector.h ****        */
 837:c:\program files\daisytoolchain\arm-none-eabi\include\c++\10.2.1\bits\stl_vector.h ****       const_iterator
 838:c:\program files\daisytoolchain\arm-none-eabi\include\c++\10.2.1\bits\stl_vector.h ****       end() const _GLIBCXX_NOEXCEPT
 839:c:\program files\daisytoolchain\arm-none-eabi\include\c++\10.2.1\bits\stl_vector.h ****       { return const_iterator(this->_M_impl._M_finish); }
 840:c:\program files\daisytoolchain\arm-none-eabi\include\c++\10.2.1\bits\stl_vector.h **** 
ARM GAS  C:\Users\theja\AppData\Local\Temp\ccV0pz5d.s 			page 19


 841:c:\program files\daisytoolchain\arm-none-eabi\include\c++\10.2.1\bits\stl_vector.h ****       /**
 842:c:\program files\daisytoolchain\arm-none-eabi\include\c++\10.2.1\bits\stl_vector.h ****        *  Returns a read/write reverse iterator that points to the
 843:c:\program files\daisytoolchain\arm-none-eabi\include\c++\10.2.1\bits\stl_vector.h ****        *  last element in the %vector.  Iteration is done in reverse
 844:c:\program files\daisytoolchain\arm-none-eabi\include\c++\10.2.1\bits\stl_vector.h ****        *  element order.
 845:c:\program files\daisytoolchain\arm-none-eabi\include\c++\10.2.1\bits\stl_vector.h ****        */
 846:c:\program files\daisytoolchain\arm-none-eabi\include\c++\10.2.1\bits\stl_vector.h ****       reverse_iterator
 847:c:\program files\daisytoolchain\arm-none-eabi\include\c++\10.2.1\bits\stl_vector.h ****       rbegin() _GLIBCXX_NOEXCEPT
 848:c:\program files\daisytoolchain\arm-none-eabi\include\c++\10.2.1\bits\stl_vector.h ****       { return reverse_iterator(end()); }
 849:c:\program files\daisytoolchain\arm-none-eabi\include\c++\10.2.1\bits\stl_vector.h **** 
 850:c:\program files\daisytoolchain\arm-none-eabi\include\c++\10.2.1\bits\stl_vector.h ****       /**
 851:c:\program files\daisytoolchain\arm-none-eabi\include\c++\10.2.1\bits\stl_vector.h ****        *  Returns a read-only (constant) reverse iterator that points
 852:c:\program files\daisytoolchain\arm-none-eabi\include\c++\10.2.1\bits\stl_vector.h ****        *  to the last element in the %vector.  Iteration is done in
 853:c:\program files\daisytoolchain\arm-none-eabi\include\c++\10.2.1\bits\stl_vector.h ****        *  reverse element order.
 854:c:\program files\daisytoolchain\arm-none-eabi\include\c++\10.2.1\bits\stl_vector.h ****        */
 855:c:\program files\daisytoolchain\arm-none-eabi\include\c++\10.2.1\bits\stl_vector.h ****       const_reverse_iterator
 856:c:\program files\daisytoolchain\arm-none-eabi\include\c++\10.2.1\bits\stl_vector.h ****       rbegin() const _GLIBCXX_NOEXCEPT
 857:c:\program files\daisytoolchain\arm-none-eabi\include\c++\10.2.1\bits\stl_vector.h ****       { return const_reverse_iterator(end()); }
 858:c:\program files\daisytoolchain\arm-none-eabi\include\c++\10.2.1\bits\stl_vector.h **** 
 859:c:\program files\daisytoolchain\arm-none-eabi\include\c++\10.2.1\bits\stl_vector.h ****       /**
 860:c:\program files\daisytoolchain\arm-none-eabi\include\c++\10.2.1\bits\stl_vector.h ****        *  Returns a read/write reverse iterator that points to one
 861:c:\program files\daisytoolchain\arm-none-eabi\include\c++\10.2.1\bits\stl_vector.h ****        *  before the first element in the %vector.  Iteration is done
 862:c:\program files\daisytoolchain\arm-none-eabi\include\c++\10.2.1\bits\stl_vector.h ****        *  in reverse element order.
 863:c:\program files\daisytoolchain\arm-none-eabi\include\c++\10.2.1\bits\stl_vector.h ****        */
 864:c:\program files\daisytoolchain\arm-none-eabi\include\c++\10.2.1\bits\stl_vector.h ****       reverse_iterator
 865:c:\program files\daisytoolchain\arm-none-eabi\include\c++\10.2.1\bits\stl_vector.h ****       rend() _GLIBCXX_NOEXCEPT
 866:c:\program files\daisytoolchain\arm-none-eabi\include\c++\10.2.1\bits\stl_vector.h ****       { return reverse_iterator(begin()); }
 867:c:\program files\daisytoolchain\arm-none-eabi\include\c++\10.2.1\bits\stl_vector.h **** 
 868:c:\program files\daisytoolchain\arm-none-eabi\include\c++\10.2.1\bits\stl_vector.h ****       /**
 869:c:\program files\daisytoolchain\arm-none-eabi\include\c++\10.2.1\bits\stl_vector.h ****        *  Returns a read-only (constant) reverse iterator that points
 870:c:\program files\daisytoolchain\arm-none-eabi\include\c++\10.2.1\bits\stl_vector.h ****        *  to one before the first element in the %vector.  Iteration
 871:c:\program files\daisytoolchain\arm-none-eabi\include\c++\10.2.1\bits\stl_vector.h ****        *  is done in reverse element order.
 872:c:\program files\daisytoolchain\arm-none-eabi\include\c++\10.2.1\bits\stl_vector.h ****        */
 873:c:\program files\daisytoolchain\arm-none-eabi\include\c++\10.2.1\bits\stl_vector.h ****       const_reverse_iterator
 874:c:\program files\daisytoolchain\arm-none-eabi\include\c++\10.2.1\bits\stl_vector.h ****       rend() const _GLIBCXX_NOEXCEPT
 875:c:\program files\daisytoolchain\arm-none-eabi\include\c++\10.2.1\bits\stl_vector.h ****       { return const_reverse_iterator(begin()); }
 876:c:\program files\daisytoolchain\arm-none-eabi\include\c++\10.2.1\bits\stl_vector.h **** 
 877:c:\program files\daisytoolchain\arm-none-eabi\include\c++\10.2.1\bits\stl_vector.h **** #if __cplusplus >= 201103L
 878:c:\program files\daisytoolchain\arm-none-eabi\include\c++\10.2.1\bits\stl_vector.h ****       /**
 879:c:\program files\daisytoolchain\arm-none-eabi\include\c++\10.2.1\bits\stl_vector.h ****        *  Returns a read-only (constant) iterator that points to the
 880:c:\program files\daisytoolchain\arm-none-eabi\include\c++\10.2.1\bits\stl_vector.h ****        *  first element in the %vector.  Iteration is done in ordinary
 881:c:\program files\daisytoolchain\arm-none-eabi\include\c++\10.2.1\bits\stl_vector.h ****        *  element order.
 882:c:\program files\daisytoolchain\arm-none-eabi\include\c++\10.2.1\bits\stl_vector.h ****        */
 883:c:\program files\daisytoolchain\arm-none-eabi\include\c++\10.2.1\bits\stl_vector.h ****       const_iterator
 884:c:\program files\daisytoolchain\arm-none-eabi\include\c++\10.2.1\bits\stl_vector.h ****       cbegin() const noexcept
 885:c:\program files\daisytoolchain\arm-none-eabi\include\c++\10.2.1\bits\stl_vector.h ****       { return const_iterator(this->_M_impl._M_start); }
 886:c:\program files\daisytoolchain\arm-none-eabi\include\c++\10.2.1\bits\stl_vector.h **** 
 887:c:\program files\daisytoolchain\arm-none-eabi\include\c++\10.2.1\bits\stl_vector.h ****       /**
 888:c:\program files\daisytoolchain\arm-none-eabi\include\c++\10.2.1\bits\stl_vector.h ****        *  Returns a read-only (constant) iterator that points one past
 889:c:\program files\daisytoolchain\arm-none-eabi\include\c++\10.2.1\bits\stl_vector.h ****        *  the last element in the %vector.  Iteration is done in
 890:c:\program files\daisytoolchain\arm-none-eabi\include\c++\10.2.1\bits\stl_vector.h ****        *  ordinary element order.
 891:c:\program files\daisytoolchain\arm-none-eabi\include\c++\10.2.1\bits\stl_vector.h ****        */
 892:c:\program files\daisytoolchain\arm-none-eabi\include\c++\10.2.1\bits\stl_vector.h ****       const_iterator
 893:c:\program files\daisytoolchain\arm-none-eabi\include\c++\10.2.1\bits\stl_vector.h ****       cend() const noexcept
 894:c:\program files\daisytoolchain\arm-none-eabi\include\c++\10.2.1\bits\stl_vector.h ****       { return const_iterator(this->_M_impl._M_finish); }
 895:c:\program files\daisytoolchain\arm-none-eabi\include\c++\10.2.1\bits\stl_vector.h **** 
 896:c:\program files\daisytoolchain\arm-none-eabi\include\c++\10.2.1\bits\stl_vector.h ****       /**
 897:c:\program files\daisytoolchain\arm-none-eabi\include\c++\10.2.1\bits\stl_vector.h ****        *  Returns a read-only (constant) reverse iterator that points
ARM GAS  C:\Users\theja\AppData\Local\Temp\ccV0pz5d.s 			page 20


 898:c:\program files\daisytoolchain\arm-none-eabi\include\c++\10.2.1\bits\stl_vector.h ****        *  to the last element in the %vector.  Iteration is done in
 899:c:\program files\daisytoolchain\arm-none-eabi\include\c++\10.2.1\bits\stl_vector.h ****        *  reverse element order.
 900:c:\program files\daisytoolchain\arm-none-eabi\include\c++\10.2.1\bits\stl_vector.h ****        */
 901:c:\program files\daisytoolchain\arm-none-eabi\include\c++\10.2.1\bits\stl_vector.h ****       const_reverse_iterator
 902:c:\program files\daisytoolchain\arm-none-eabi\include\c++\10.2.1\bits\stl_vector.h ****       crbegin() const noexcept
 903:c:\program files\daisytoolchain\arm-none-eabi\include\c++\10.2.1\bits\stl_vector.h ****       { return const_reverse_iterator(end()); }
 904:c:\program files\daisytoolchain\arm-none-eabi\include\c++\10.2.1\bits\stl_vector.h **** 
 905:c:\program files\daisytoolchain\arm-none-eabi\include\c++\10.2.1\bits\stl_vector.h ****       /**
 906:c:\program files\daisytoolchain\arm-none-eabi\include\c++\10.2.1\bits\stl_vector.h ****        *  Returns a read-only (constant) reverse iterator that points
 907:c:\program files\daisytoolchain\arm-none-eabi\include\c++\10.2.1\bits\stl_vector.h ****        *  to one before the first element in the %vector.  Iteration
 908:c:\program files\daisytoolchain\arm-none-eabi\include\c++\10.2.1\bits\stl_vector.h ****        *  is done in reverse element order.
 909:c:\program files\daisytoolchain\arm-none-eabi\include\c++\10.2.1\bits\stl_vector.h ****        */
 910:c:\program files\daisytoolchain\arm-none-eabi\include\c++\10.2.1\bits\stl_vector.h ****       const_reverse_iterator
 911:c:\program files\daisytoolchain\arm-none-eabi\include\c++\10.2.1\bits\stl_vector.h ****       crend() const noexcept
 912:c:\program files\daisytoolchain\arm-none-eabi\include\c++\10.2.1\bits\stl_vector.h ****       { return const_reverse_iterator(begin()); }
 913:c:\program files\daisytoolchain\arm-none-eabi\include\c++\10.2.1\bits\stl_vector.h **** #endif
 914:c:\program files\daisytoolchain\arm-none-eabi\include\c++\10.2.1\bits\stl_vector.h **** 
 915:c:\program files\daisytoolchain\arm-none-eabi\include\c++\10.2.1\bits\stl_vector.h ****       // [23.2.4.2] capacity
 916:c:\program files\daisytoolchain\arm-none-eabi\include\c++\10.2.1\bits\stl_vector.h ****       /**  Returns the number of elements in the %vector.  */
 917:c:\program files\daisytoolchain\arm-none-eabi\include\c++\10.2.1\bits\stl_vector.h ****       size_type
 918:c:\program files\daisytoolchain\arm-none-eabi\include\c++\10.2.1\bits\stl_vector.h ****       size() const _GLIBCXX_NOEXCEPT
 919:c:\program files\daisytoolchain\arm-none-eabi\include\c++\10.2.1\bits\stl_vector.h ****       { return size_type(this->_M_impl._M_finish - this->_M_impl._M_start); }
 920:c:\program files\daisytoolchain\arm-none-eabi\include\c++\10.2.1\bits\stl_vector.h **** 
 921:c:\program files\daisytoolchain\arm-none-eabi\include\c++\10.2.1\bits\stl_vector.h ****       /**  Returns the size() of the largest possible %vector.  */
 922:c:\program files\daisytoolchain\arm-none-eabi\include\c++\10.2.1\bits\stl_vector.h ****       size_type
 923:c:\program files\daisytoolchain\arm-none-eabi\include\c++\10.2.1\bits\stl_vector.h ****       max_size() const _GLIBCXX_NOEXCEPT
 924:c:\program files\daisytoolchain\arm-none-eabi\include\c++\10.2.1\bits\stl_vector.h ****       { return _S_max_size(_M_get_Tp_allocator()); }
 925:c:\program files\daisytoolchain\arm-none-eabi\include\c++\10.2.1\bits\stl_vector.h **** 
 926:c:\program files\daisytoolchain\arm-none-eabi\include\c++\10.2.1\bits\stl_vector.h **** #if __cplusplus >= 201103L
 927:c:\program files\daisytoolchain\arm-none-eabi\include\c++\10.2.1\bits\stl_vector.h ****       /**
 928:c:\program files\daisytoolchain\arm-none-eabi\include\c++\10.2.1\bits\stl_vector.h ****        *  @brief  Resizes the %vector to the specified number of elements.
 929:c:\program files\daisytoolchain\arm-none-eabi\include\c++\10.2.1\bits\stl_vector.h ****        *  @param  __new_size  Number of elements the %vector should contain.
 930:c:\program files\daisytoolchain\arm-none-eabi\include\c++\10.2.1\bits\stl_vector.h ****        *
 931:c:\program files\daisytoolchain\arm-none-eabi\include\c++\10.2.1\bits\stl_vector.h ****        *  This function will %resize the %vector to the specified
 932:c:\program files\daisytoolchain\arm-none-eabi\include\c++\10.2.1\bits\stl_vector.h ****        *  number of elements.  If the number is smaller than the
 933:c:\program files\daisytoolchain\arm-none-eabi\include\c++\10.2.1\bits\stl_vector.h ****        *  %vector's current size the %vector is truncated, otherwise
 934:c:\program files\daisytoolchain\arm-none-eabi\include\c++\10.2.1\bits\stl_vector.h ****        *  default constructed elements are appended.
 935:c:\program files\daisytoolchain\arm-none-eabi\include\c++\10.2.1\bits\stl_vector.h ****        */
 936:c:\program files\daisytoolchain\arm-none-eabi\include\c++\10.2.1\bits\stl_vector.h ****       void
 937:c:\program files\daisytoolchain\arm-none-eabi\include\c++\10.2.1\bits\stl_vector.h ****       resize(size_type __new_size)
 938:c:\program files\daisytoolchain\arm-none-eabi\include\c++\10.2.1\bits\stl_vector.h ****       {
 939:c:\program files\daisytoolchain\arm-none-eabi\include\c++\10.2.1\bits\stl_vector.h **** 	if (__new_size > size())
 940:c:\program files\daisytoolchain\arm-none-eabi\include\c++\10.2.1\bits\stl_vector.h **** 	  _M_default_append(__new_size - size());
 941:c:\program files\daisytoolchain\arm-none-eabi\include\c++\10.2.1\bits\stl_vector.h **** 	else if (__new_size < size())
 942:c:\program files\daisytoolchain\arm-none-eabi\include\c++\10.2.1\bits\stl_vector.h **** 	  _M_erase_at_end(this->_M_impl._M_start + __new_size);
 943:c:\program files\daisytoolchain\arm-none-eabi\include\c++\10.2.1\bits\stl_vector.h ****       }
 944:c:\program files\daisytoolchain\arm-none-eabi\include\c++\10.2.1\bits\stl_vector.h **** 
 945:c:\program files\daisytoolchain\arm-none-eabi\include\c++\10.2.1\bits\stl_vector.h ****       /**
 946:c:\program files\daisytoolchain\arm-none-eabi\include\c++\10.2.1\bits\stl_vector.h ****        *  @brief  Resizes the %vector to the specified number of elements.
 947:c:\program files\daisytoolchain\arm-none-eabi\include\c++\10.2.1\bits\stl_vector.h ****        *  @param  __new_size  Number of elements the %vector should contain.
 948:c:\program files\daisytoolchain\arm-none-eabi\include\c++\10.2.1\bits\stl_vector.h ****        *  @param  __x  Data with which new elements should be populated.
 949:c:\program files\daisytoolchain\arm-none-eabi\include\c++\10.2.1\bits\stl_vector.h ****        *
 950:c:\program files\daisytoolchain\arm-none-eabi\include\c++\10.2.1\bits\stl_vector.h ****        *  This function will %resize the %vector to the specified
 951:c:\program files\daisytoolchain\arm-none-eabi\include\c++\10.2.1\bits\stl_vector.h ****        *  number of elements.  If the number is smaller than the
 952:c:\program files\daisytoolchain\arm-none-eabi\include\c++\10.2.1\bits\stl_vector.h ****        *  %vector's current size the %vector is truncated, otherwise
 953:c:\program files\daisytoolchain\arm-none-eabi\include\c++\10.2.1\bits\stl_vector.h ****        *  the %vector is extended and new elements are populated with
 954:c:\program files\daisytoolchain\arm-none-eabi\include\c++\10.2.1\bits\stl_vector.h ****        *  given data.
ARM GAS  C:\Users\theja\AppData\Local\Temp\ccV0pz5d.s 			page 21


 955:c:\program files\daisytoolchain\arm-none-eabi\include\c++\10.2.1\bits\stl_vector.h ****        */
 956:c:\program files\daisytoolchain\arm-none-eabi\include\c++\10.2.1\bits\stl_vector.h ****       void
 957:c:\program files\daisytoolchain\arm-none-eabi\include\c++\10.2.1\bits\stl_vector.h ****       resize(size_type __new_size, const value_type& __x)
 958:c:\program files\daisytoolchain\arm-none-eabi\include\c++\10.2.1\bits\stl_vector.h ****       {
 959:c:\program files\daisytoolchain\arm-none-eabi\include\c++\10.2.1\bits\stl_vector.h **** 	if (__new_size > size())
 960:c:\program files\daisytoolchain\arm-none-eabi\include\c++\10.2.1\bits\stl_vector.h **** 	  _M_fill_insert(end(), __new_size - size(), __x);
 961:c:\program files\daisytoolchain\arm-none-eabi\include\c++\10.2.1\bits\stl_vector.h **** 	else if (__new_size < size())
 962:c:\program files\daisytoolchain\arm-none-eabi\include\c++\10.2.1\bits\stl_vector.h **** 	  _M_erase_at_end(this->_M_impl._M_start + __new_size);
 963:c:\program files\daisytoolchain\arm-none-eabi\include\c++\10.2.1\bits\stl_vector.h ****       }
 964:c:\program files\daisytoolchain\arm-none-eabi\include\c++\10.2.1\bits\stl_vector.h **** #else
 965:c:\program files\daisytoolchain\arm-none-eabi\include\c++\10.2.1\bits\stl_vector.h ****       /**
 966:c:\program files\daisytoolchain\arm-none-eabi\include\c++\10.2.1\bits\stl_vector.h ****        *  @brief  Resizes the %vector to the specified number of elements.
 967:c:\program files\daisytoolchain\arm-none-eabi\include\c++\10.2.1\bits\stl_vector.h ****        *  @param  __new_size  Number of elements the %vector should contain.
 968:c:\program files\daisytoolchain\arm-none-eabi\include\c++\10.2.1\bits\stl_vector.h ****        *  @param  __x  Data with which new elements should be populated.
 969:c:\program files\daisytoolchain\arm-none-eabi\include\c++\10.2.1\bits\stl_vector.h ****        *
 970:c:\program files\daisytoolchain\arm-none-eabi\include\c++\10.2.1\bits\stl_vector.h ****        *  This function will %resize the %vector to the specified
 971:c:\program files\daisytoolchain\arm-none-eabi\include\c++\10.2.1\bits\stl_vector.h ****        *  number of elements.  If the number is smaller than the
 972:c:\program files\daisytoolchain\arm-none-eabi\include\c++\10.2.1\bits\stl_vector.h ****        *  %vector's current size the %vector is truncated, otherwise
 973:c:\program files\daisytoolchain\arm-none-eabi\include\c++\10.2.1\bits\stl_vector.h ****        *  the %vector is extended and new elements are populated with
 974:c:\program files\daisytoolchain\arm-none-eabi\include\c++\10.2.1\bits\stl_vector.h ****        *  given data.
 975:c:\program files\daisytoolchain\arm-none-eabi\include\c++\10.2.1\bits\stl_vector.h ****        */
 976:c:\program files\daisytoolchain\arm-none-eabi\include\c++\10.2.1\bits\stl_vector.h ****       void
 977:c:\program files\daisytoolchain\arm-none-eabi\include\c++\10.2.1\bits\stl_vector.h ****       resize(size_type __new_size, value_type __x = value_type())
 978:c:\program files\daisytoolchain\arm-none-eabi\include\c++\10.2.1\bits\stl_vector.h ****       {
 979:c:\program files\daisytoolchain\arm-none-eabi\include\c++\10.2.1\bits\stl_vector.h **** 	if (__new_size > size())
 980:c:\program files\daisytoolchain\arm-none-eabi\include\c++\10.2.1\bits\stl_vector.h **** 	  _M_fill_insert(end(), __new_size - size(), __x);
 981:c:\program files\daisytoolchain\arm-none-eabi\include\c++\10.2.1\bits\stl_vector.h **** 	else if (__new_size < size())
 982:c:\program files\daisytoolchain\arm-none-eabi\include\c++\10.2.1\bits\stl_vector.h **** 	  _M_erase_at_end(this->_M_impl._M_start + __new_size);
 983:c:\program files\daisytoolchain\arm-none-eabi\include\c++\10.2.1\bits\stl_vector.h ****       }
 984:c:\program files\daisytoolchain\arm-none-eabi\include\c++\10.2.1\bits\stl_vector.h **** #endif
 985:c:\program files\daisytoolchain\arm-none-eabi\include\c++\10.2.1\bits\stl_vector.h **** 
 986:c:\program files\daisytoolchain\arm-none-eabi\include\c++\10.2.1\bits\stl_vector.h **** #if __cplusplus >= 201103L
 987:c:\program files\daisytoolchain\arm-none-eabi\include\c++\10.2.1\bits\stl_vector.h ****       /**  A non-binding request to reduce capacity() to size().  */
 988:c:\program files\daisytoolchain\arm-none-eabi\include\c++\10.2.1\bits\stl_vector.h ****       void
 989:c:\program files\daisytoolchain\arm-none-eabi\include\c++\10.2.1\bits\stl_vector.h ****       shrink_to_fit()
 990:c:\program files\daisytoolchain\arm-none-eabi\include\c++\10.2.1\bits\stl_vector.h ****       { _M_shrink_to_fit(); }
 991:c:\program files\daisytoolchain\arm-none-eabi\include\c++\10.2.1\bits\stl_vector.h **** #endif
 992:c:\program files\daisytoolchain\arm-none-eabi\include\c++\10.2.1\bits\stl_vector.h **** 
 993:c:\program files\daisytoolchain\arm-none-eabi\include\c++\10.2.1\bits\stl_vector.h ****       /**
 994:c:\program files\daisytoolchain\arm-none-eabi\include\c++\10.2.1\bits\stl_vector.h ****        *  Returns the total number of elements that the %vector can
 995:c:\program files\daisytoolchain\arm-none-eabi\include\c++\10.2.1\bits\stl_vector.h ****        *  hold before needing to allocate more memory.
 996:c:\program files\daisytoolchain\arm-none-eabi\include\c++\10.2.1\bits\stl_vector.h ****        */
 997:c:\program files\daisytoolchain\arm-none-eabi\include\c++\10.2.1\bits\stl_vector.h ****       size_type
 998:c:\program files\daisytoolchain\arm-none-eabi\include\c++\10.2.1\bits\stl_vector.h ****       capacity() const _GLIBCXX_NOEXCEPT
 999:c:\program files\daisytoolchain\arm-none-eabi\include\c++\10.2.1\bits\stl_vector.h ****       { return size_type(this->_M_impl._M_end_of_storage
1000:c:\program files\daisytoolchain\arm-none-eabi\include\c++\10.2.1\bits\stl_vector.h **** 			 - this->_M_impl._M_start); }
1001:c:\program files\daisytoolchain\arm-none-eabi\include\c++\10.2.1\bits\stl_vector.h **** 
1002:c:\program files\daisytoolchain\arm-none-eabi\include\c++\10.2.1\bits\stl_vector.h ****       /**
1003:c:\program files\daisytoolchain\arm-none-eabi\include\c++\10.2.1\bits\stl_vector.h ****        *  Returns true if the %vector is empty.  (Thus begin() would
1004:c:\program files\daisytoolchain\arm-none-eabi\include\c++\10.2.1\bits\stl_vector.h ****        *  equal end().)
1005:c:\program files\daisytoolchain\arm-none-eabi\include\c++\10.2.1\bits\stl_vector.h ****        */
1006:c:\program files\daisytoolchain\arm-none-eabi\include\c++\10.2.1\bits\stl_vector.h ****       _GLIBCXX_NODISCARD bool
1007:c:\program files\daisytoolchain\arm-none-eabi\include\c++\10.2.1\bits\stl_vector.h ****       empty() const _GLIBCXX_NOEXCEPT
1008:c:\program files\daisytoolchain\arm-none-eabi\include\c++\10.2.1\bits\stl_vector.h ****       { return begin() == end(); }
1009:c:\program files\daisytoolchain\arm-none-eabi\include\c++\10.2.1\bits\stl_vector.h **** 
1010:c:\program files\daisytoolchain\arm-none-eabi\include\c++\10.2.1\bits\stl_vector.h ****       /**
1011:c:\program files\daisytoolchain\arm-none-eabi\include\c++\10.2.1\bits\stl_vector.h ****        *  @brief  Attempt to preallocate enough memory for specified number of
ARM GAS  C:\Users\theja\AppData\Local\Temp\ccV0pz5d.s 			page 22


1012:c:\program files\daisytoolchain\arm-none-eabi\include\c++\10.2.1\bits\stl_vector.h ****        *          elements.
1013:c:\program files\daisytoolchain\arm-none-eabi\include\c++\10.2.1\bits\stl_vector.h ****        *  @param  __n  Number of elements required.
1014:c:\program files\daisytoolchain\arm-none-eabi\include\c++\10.2.1\bits\stl_vector.h ****        *  @throw  std::length_error  If @a n exceeds @c max_size().
1015:c:\program files\daisytoolchain\arm-none-eabi\include\c++\10.2.1\bits\stl_vector.h ****        *
1016:c:\program files\daisytoolchain\arm-none-eabi\include\c++\10.2.1\bits\stl_vector.h ****        *  This function attempts to reserve enough memory for the
1017:c:\program files\daisytoolchain\arm-none-eabi\include\c++\10.2.1\bits\stl_vector.h ****        *  %vector to hold the specified number of elements.  If the
1018:c:\program files\daisytoolchain\arm-none-eabi\include\c++\10.2.1\bits\stl_vector.h ****        *  number requested is more than max_size(), length_error is
1019:c:\program files\daisytoolchain\arm-none-eabi\include\c++\10.2.1\bits\stl_vector.h ****        *  thrown.
1020:c:\program files\daisytoolchain\arm-none-eabi\include\c++\10.2.1\bits\stl_vector.h ****        *
1021:c:\program files\daisytoolchain\arm-none-eabi\include\c++\10.2.1\bits\stl_vector.h ****        *  The advantage of this function is that if optimal code is a
1022:c:\program files\daisytoolchain\arm-none-eabi\include\c++\10.2.1\bits\stl_vector.h ****        *  necessity and the user can determine the number of elements
1023:c:\program files\daisytoolchain\arm-none-eabi\include\c++\10.2.1\bits\stl_vector.h ****        *  that will be required, the user can reserve the memory in
1024:c:\program files\daisytoolchain\arm-none-eabi\include\c++\10.2.1\bits\stl_vector.h ****        *  %advance, and thus prevent a possible reallocation of memory
1025:c:\program files\daisytoolchain\arm-none-eabi\include\c++\10.2.1\bits\stl_vector.h ****        *  and copying of %vector data.
1026:c:\program files\daisytoolchain\arm-none-eabi\include\c++\10.2.1\bits\stl_vector.h ****        */
1027:c:\program files\daisytoolchain\arm-none-eabi\include\c++\10.2.1\bits\stl_vector.h ****       void
1028:c:\program files\daisytoolchain\arm-none-eabi\include\c++\10.2.1\bits\stl_vector.h ****       reserve(size_type __n);
1029:c:\program files\daisytoolchain\arm-none-eabi\include\c++\10.2.1\bits\stl_vector.h **** 
1030:c:\program files\daisytoolchain\arm-none-eabi\include\c++\10.2.1\bits\stl_vector.h ****       // element access
1031:c:\program files\daisytoolchain\arm-none-eabi\include\c++\10.2.1\bits\stl_vector.h ****       /**
1032:c:\program files\daisytoolchain\arm-none-eabi\include\c++\10.2.1\bits\stl_vector.h ****        *  @brief  Subscript access to the data contained in the %vector.
1033:c:\program files\daisytoolchain\arm-none-eabi\include\c++\10.2.1\bits\stl_vector.h ****        *  @param __n The index of the element for which data should be
1034:c:\program files\daisytoolchain\arm-none-eabi\include\c++\10.2.1\bits\stl_vector.h ****        *  accessed.
1035:c:\program files\daisytoolchain\arm-none-eabi\include\c++\10.2.1\bits\stl_vector.h ****        *  @return  Read/write reference to data.
1036:c:\program files\daisytoolchain\arm-none-eabi\include\c++\10.2.1\bits\stl_vector.h ****        *
1037:c:\program files\daisytoolchain\arm-none-eabi\include\c++\10.2.1\bits\stl_vector.h ****        *  This operator allows for easy, array-style, data access.
1038:c:\program files\daisytoolchain\arm-none-eabi\include\c++\10.2.1\bits\stl_vector.h ****        *  Note that data access with this operator is unchecked and
1039:c:\program files\daisytoolchain\arm-none-eabi\include\c++\10.2.1\bits\stl_vector.h ****        *  out_of_range lookups are not defined. (For checked lookups
1040:c:\program files\daisytoolchain\arm-none-eabi\include\c++\10.2.1\bits\stl_vector.h ****        *  see at().)
1041:c:\program files\daisytoolchain\arm-none-eabi\include\c++\10.2.1\bits\stl_vector.h ****        */
1042:c:\program files\daisytoolchain\arm-none-eabi\include\c++\10.2.1\bits\stl_vector.h ****       reference
1043:c:\program files\daisytoolchain\arm-none-eabi\include\c++\10.2.1\bits\stl_vector.h ****       operator[](size_type __n) _GLIBCXX_NOEXCEPT
 129              		.loc 2 1043 7 view .LVU31
 130              	.LBB279:
1044:c:\program files\daisytoolchain\arm-none-eabi\include\c++\10.2.1\bits\stl_vector.h ****       {
1045:c:\program files\daisytoolchain\arm-none-eabi\include\c++\10.2.1\bits\stl_vector.h **** 	__glibcxx_requires_subscript(__n);
1046:c:\program files\daisytoolchain\arm-none-eabi\include\c++\10.2.1\bits\stl_vector.h **** 	return *(this->_M_impl._M_start + __n);
 131              		.loc 2 1046 34 is_stmt 0 view .LVU32
 132 005a 0378     		ldrb	r3, [r0]	@ zero_extendqisi2
 133              	.LBE279:
 134              	.LBE278:
  31:Sequencer.cpp ****         if (seq.drum_sequence.snare_steps[current_step])   drum_synth.trigger_snare();
 135              		.loc 1 31 9 view .LVU33
 136 005c 16AA     		add	r2, sp, #88
 137 005e 5618     		adds	r6, r2, r1
 138              	.LBB282:
 139              	.LBB280:
 140              		.loc 2 1046 34 view .LVU34
 141 0060 03EB8301 		add	r1, r3, r3, lsl #2
 142              	.LVL9:
 143              		.loc 2 1046 34 view .LVU35
 144              	.LBE280:
 145              	.LBE282:
  30:Sequencer.cpp ****         if (seq.drum_sequence.kick_steps[current_step])    drum_synth.trigger_kick();
 146              		.loc 1 30 42 view .LVU36
 147 0064 5222     		movs	r2, #82
 148              	.LBB283:
ARM GAS  C:\Users\theja\AppData\Local\Temp\ccV0pz5d.s 			page 23


 149              	.LBB281:
 150              		.loc 2 1046 34 view .LVU37
 151 0066 03EBC103 		add	r3, r3, r1, lsl #3
 152              	.LBE281:
 153              	.LBE283:
  30:Sequencer.cpp ****         if (seq.drum_sequence.kick_steps[current_step])    drum_synth.trigger_kick();
 154              		.loc 1 30 42 view .LVU38
 155 006a 8169     		ldr	r1, [r0, #24]
 156 006c 01A8     		add	r0, sp, #4
 157              	.LVL10:
  30:Sequencer.cpp ****         if (seq.drum_sequence.kick_steps[current_step])    drum_synth.trigger_kick();
 158              		.loc 1 30 42 view .LVU39
 159 006e 01EB4301 		add	r1, r1, r3, lsl #1
 160 0072 FFF7FEFF 		bl	memcpy
 161              	.LVL11:
  31:Sequencer.cpp ****         if (seq.drum_sequence.snare_steps[current_step])   drum_synth.trigger_snare();
 162              		.loc 1 31 9 is_stmt 1 view .LVU40
 163              	.LBB284:
 164              	.LBI284:
 165              		.file 3 "c:\\program files\\daisytoolchain\\arm-none-eabi\\include\\c++\\10.2.1\\array"
   1:c:\program files\daisytoolchain\arm-none-eabi\include\c++\10.2.1\array **** // <array> -*- C++ -*-
   2:c:\program files\daisytoolchain\arm-none-eabi\include\c++\10.2.1\array **** 
   3:c:\program files\daisytoolchain\arm-none-eabi\include\c++\10.2.1\array **** // Copyright (C) 2007-2020 Free Software Foundation, Inc.
   4:c:\program files\daisytoolchain\arm-none-eabi\include\c++\10.2.1\array **** //
   5:c:\program files\daisytoolchain\arm-none-eabi\include\c++\10.2.1\array **** // This file is part of the GNU ISO C++ Library.  This library is free
   6:c:\program files\daisytoolchain\arm-none-eabi\include\c++\10.2.1\array **** // software; you can redistribute it and/or modify it under the
   7:c:\program files\daisytoolchain\arm-none-eabi\include\c++\10.2.1\array **** // terms of the GNU General Public License as published by the
   8:c:\program files\daisytoolchain\arm-none-eabi\include\c++\10.2.1\array **** // Free Software Foundation; either version 3, or (at your option)
   9:c:\program files\daisytoolchain\arm-none-eabi\include\c++\10.2.1\array **** // any later version.
  10:c:\program files\daisytoolchain\arm-none-eabi\include\c++\10.2.1\array **** 
  11:c:\program files\daisytoolchain\arm-none-eabi\include\c++\10.2.1\array **** // This library is distributed in the hope that it will be useful,
  12:c:\program files\daisytoolchain\arm-none-eabi\include\c++\10.2.1\array **** // but WITHOUT ANY WARRANTY; without even the implied warranty of
  13:c:\program files\daisytoolchain\arm-none-eabi\include\c++\10.2.1\array **** // MERCHANTABILITY or FITNESS FOR A PARTICULAR PURPOSE.  See the
  14:c:\program files\daisytoolchain\arm-none-eabi\include\c++\10.2.1\array **** // GNU General Public License for more details.
  15:c:\program files\daisytoolchain\arm-none-eabi\include\c++\10.2.1\array **** 
  16:c:\program files\daisytoolchain\arm-none-eabi\include\c++\10.2.1\array **** // Under Section 7 of GPL version 3, you are granted additional
  17:c:\program files\daisytoolchain\arm-none-eabi\include\c++\10.2.1\array **** // permissions described in the GCC Runtime Library Exception, version
  18:c:\program files\daisytoolchain\arm-none-eabi\include\c++\10.2.1\array **** // 3.1, as published by the Free Software Foundation.
  19:c:\program files\daisytoolchain\arm-none-eabi\include\c++\10.2.1\array **** 
  20:c:\program files\daisytoolchain\arm-none-eabi\include\c++\10.2.1\array **** // You should have received a copy of the GNU General Public License and
  21:c:\program files\daisytoolchain\arm-none-eabi\include\c++\10.2.1\array **** // a copy of the GCC Runtime Library Exception along with this program;
  22:c:\program files\daisytoolchain\arm-none-eabi\include\c++\10.2.1\array **** // see the files COPYING3 and COPYING.RUNTIME respectively.  If not, see
  23:c:\program files\daisytoolchain\arm-none-eabi\include\c++\10.2.1\array **** // <http://www.gnu.org/licenses/>.
  24:c:\program files\daisytoolchain\arm-none-eabi\include\c++\10.2.1\array **** 
  25:c:\program files\daisytoolchain\arm-none-eabi\include\c++\10.2.1\array **** /** @file include/array
  26:c:\program files\daisytoolchain\arm-none-eabi\include\c++\10.2.1\array ****  *  This is a Standard C++ Library header.
  27:c:\program files\daisytoolchain\arm-none-eabi\include\c++\10.2.1\array ****  */
  28:c:\program files\daisytoolchain\arm-none-eabi\include\c++\10.2.1\array **** 
  29:c:\program files\daisytoolchain\arm-none-eabi\include\c++\10.2.1\array **** #ifndef _GLIBCXX_ARRAY
  30:c:\program files\daisytoolchain\arm-none-eabi\include\c++\10.2.1\array **** #define _GLIBCXX_ARRAY 1
  31:c:\program files\daisytoolchain\arm-none-eabi\include\c++\10.2.1\array **** 
  32:c:\program files\daisytoolchain\arm-none-eabi\include\c++\10.2.1\array **** #pragma GCC system_header
  33:c:\program files\daisytoolchain\arm-none-eabi\include\c++\10.2.1\array **** 
  34:c:\program files\daisytoolchain\arm-none-eabi\include\c++\10.2.1\array **** #if __cplusplus < 201103L
  35:c:\program files\daisytoolchain\arm-none-eabi\include\c++\10.2.1\array **** # include <bits/c++0x_warning.h>
  36:c:\program files\daisytoolchain\arm-none-eabi\include\c++\10.2.1\array **** #else
  37:c:\program files\daisytoolchain\arm-none-eabi\include\c++\10.2.1\array **** 
ARM GAS  C:\Users\theja\AppData\Local\Temp\ccV0pz5d.s 			page 24


  38:c:\program files\daisytoolchain\arm-none-eabi\include\c++\10.2.1\array **** #include <utility>
  39:c:\program files\daisytoolchain\arm-none-eabi\include\c++\10.2.1\array **** #include <bits/functexcept.h>
  40:c:\program files\daisytoolchain\arm-none-eabi\include\c++\10.2.1\array **** #include <bits/stl_algobase.h>
  41:c:\program files\daisytoolchain\arm-none-eabi\include\c++\10.2.1\array **** #include <bits/range_access.h>
  42:c:\program files\daisytoolchain\arm-none-eabi\include\c++\10.2.1\array **** 
  43:c:\program files\daisytoolchain\arm-none-eabi\include\c++\10.2.1\array **** namespace std _GLIBCXX_VISIBILITY(default)
  44:c:\program files\daisytoolchain\arm-none-eabi\include\c++\10.2.1\array **** {
  45:c:\program files\daisytoolchain\arm-none-eabi\include\c++\10.2.1\array **** _GLIBCXX_BEGIN_NAMESPACE_CONTAINER
  46:c:\program files\daisytoolchain\arm-none-eabi\include\c++\10.2.1\array **** 
  47:c:\program files\daisytoolchain\arm-none-eabi\include\c++\10.2.1\array ****   template<typename _Tp, std::size_t _Nm>
  48:c:\program files\daisytoolchain\arm-none-eabi\include\c++\10.2.1\array ****     struct __array_traits
  49:c:\program files\daisytoolchain\arm-none-eabi\include\c++\10.2.1\array ****     {
  50:c:\program files\daisytoolchain\arm-none-eabi\include\c++\10.2.1\array ****       typedef _Tp _Type[_Nm];
  51:c:\program files\daisytoolchain\arm-none-eabi\include\c++\10.2.1\array ****       typedef __is_swappable<_Tp> _Is_swappable;
  52:c:\program files\daisytoolchain\arm-none-eabi\include\c++\10.2.1\array ****       typedef __is_nothrow_swappable<_Tp> _Is_nothrow_swappable;
  53:c:\program files\daisytoolchain\arm-none-eabi\include\c++\10.2.1\array **** 
  54:c:\program files\daisytoolchain\arm-none-eabi\include\c++\10.2.1\array ****       static constexpr _Tp&
  55:c:\program files\daisytoolchain\arm-none-eabi\include\c++\10.2.1\array ****       _S_ref(const _Type& __t, std::size_t __n) noexcept
  56:c:\program files\daisytoolchain\arm-none-eabi\include\c++\10.2.1\array ****       { return const_cast<_Tp&>(__t[__n]); }
  57:c:\program files\daisytoolchain\arm-none-eabi\include\c++\10.2.1\array **** 
  58:c:\program files\daisytoolchain\arm-none-eabi\include\c++\10.2.1\array ****       static constexpr _Tp*
  59:c:\program files\daisytoolchain\arm-none-eabi\include\c++\10.2.1\array ****       _S_ptr(const _Type& __t) noexcept
  60:c:\program files\daisytoolchain\arm-none-eabi\include\c++\10.2.1\array ****       { return const_cast<_Tp*>(__t); }
  61:c:\program files\daisytoolchain\arm-none-eabi\include\c++\10.2.1\array ****     };
  62:c:\program files\daisytoolchain\arm-none-eabi\include\c++\10.2.1\array **** 
  63:c:\program files\daisytoolchain\arm-none-eabi\include\c++\10.2.1\array ****  template<typename _Tp>
  64:c:\program files\daisytoolchain\arm-none-eabi\include\c++\10.2.1\array ****    struct __array_traits<_Tp, 0>
  65:c:\program files\daisytoolchain\arm-none-eabi\include\c++\10.2.1\array ****    {
  66:c:\program files\daisytoolchain\arm-none-eabi\include\c++\10.2.1\array ****      struct _Type { };
  67:c:\program files\daisytoolchain\arm-none-eabi\include\c++\10.2.1\array ****      typedef true_type _Is_swappable;
  68:c:\program files\daisytoolchain\arm-none-eabi\include\c++\10.2.1\array ****      typedef true_type _Is_nothrow_swappable;
  69:c:\program files\daisytoolchain\arm-none-eabi\include\c++\10.2.1\array **** 
  70:c:\program files\daisytoolchain\arm-none-eabi\include\c++\10.2.1\array ****      static constexpr _Tp&
  71:c:\program files\daisytoolchain\arm-none-eabi\include\c++\10.2.1\array ****      _S_ref(const _Type&, std::size_t) noexcept
  72:c:\program files\daisytoolchain\arm-none-eabi\include\c++\10.2.1\array ****      { return *static_cast<_Tp*>(nullptr); }
  73:c:\program files\daisytoolchain\arm-none-eabi\include\c++\10.2.1\array **** 
  74:c:\program files\daisytoolchain\arm-none-eabi\include\c++\10.2.1\array ****      static constexpr _Tp*
  75:c:\program files\daisytoolchain\arm-none-eabi\include\c++\10.2.1\array ****      _S_ptr(const _Type&) noexcept
  76:c:\program files\daisytoolchain\arm-none-eabi\include\c++\10.2.1\array ****      { return nullptr; }
  77:c:\program files\daisytoolchain\arm-none-eabi\include\c++\10.2.1\array ****    };
  78:c:\program files\daisytoolchain\arm-none-eabi\include\c++\10.2.1\array **** 
  79:c:\program files\daisytoolchain\arm-none-eabi\include\c++\10.2.1\array ****   /**
  80:c:\program files\daisytoolchain\arm-none-eabi\include\c++\10.2.1\array ****    *  @brief A standard container for storing a fixed size sequence of elements.
  81:c:\program files\daisytoolchain\arm-none-eabi\include\c++\10.2.1\array ****    *
  82:c:\program files\daisytoolchain\arm-none-eabi\include\c++\10.2.1\array ****    *  @ingroup sequences
  83:c:\program files\daisytoolchain\arm-none-eabi\include\c++\10.2.1\array ****    *
  84:c:\program files\daisytoolchain\arm-none-eabi\include\c++\10.2.1\array ****    *  Meets the requirements of a <a href="tables.html#65">container</a>, a
  85:c:\program files\daisytoolchain\arm-none-eabi\include\c++\10.2.1\array ****    *  <a href="tables.html#66">reversible container</a>, and a
  86:c:\program files\daisytoolchain\arm-none-eabi\include\c++\10.2.1\array ****    *  <a href="tables.html#67">sequence</a>.
  87:c:\program files\daisytoolchain\arm-none-eabi\include\c++\10.2.1\array ****    *
  88:c:\program files\daisytoolchain\arm-none-eabi\include\c++\10.2.1\array ****    *  Sets support random access iterators.
  89:c:\program files\daisytoolchain\arm-none-eabi\include\c++\10.2.1\array ****    *
  90:c:\program files\daisytoolchain\arm-none-eabi\include\c++\10.2.1\array ****    *  @tparam  Tp  Type of element. Required to be a complete type.
  91:c:\program files\daisytoolchain\arm-none-eabi\include\c++\10.2.1\array ****    *  @tparam  Nm  Number of elements.
  92:c:\program files\daisytoolchain\arm-none-eabi\include\c++\10.2.1\array ****   */
  93:c:\program files\daisytoolchain\arm-none-eabi\include\c++\10.2.1\array ****   template<typename _Tp, std::size_t _Nm>
  94:c:\program files\daisytoolchain\arm-none-eabi\include\c++\10.2.1\array ****     struct array
ARM GAS  C:\Users\theja\AppData\Local\Temp\ccV0pz5d.s 			page 25


  95:c:\program files\daisytoolchain\arm-none-eabi\include\c++\10.2.1\array ****     {
  96:c:\program files\daisytoolchain\arm-none-eabi\include\c++\10.2.1\array ****       typedef _Tp 	    			      value_type;
  97:c:\program files\daisytoolchain\arm-none-eabi\include\c++\10.2.1\array ****       typedef value_type*			      pointer;
  98:c:\program files\daisytoolchain\arm-none-eabi\include\c++\10.2.1\array ****       typedef const value_type*                       const_pointer;
  99:c:\program files\daisytoolchain\arm-none-eabi\include\c++\10.2.1\array ****       typedef value_type&                   	      reference;
 100:c:\program files\daisytoolchain\arm-none-eabi\include\c++\10.2.1\array ****       typedef const value_type&             	      const_reference;
 101:c:\program files\daisytoolchain\arm-none-eabi\include\c++\10.2.1\array ****       typedef value_type*          		      iterator;
 102:c:\program files\daisytoolchain\arm-none-eabi\include\c++\10.2.1\array ****       typedef const value_type*			      const_iterator;
 103:c:\program files\daisytoolchain\arm-none-eabi\include\c++\10.2.1\array ****       typedef std::size_t                    	      size_type;
 104:c:\program files\daisytoolchain\arm-none-eabi\include\c++\10.2.1\array ****       typedef std::ptrdiff_t                   	      difference_type;
 105:c:\program files\daisytoolchain\arm-none-eabi\include\c++\10.2.1\array ****       typedef std::reverse_iterator<iterator>	      reverse_iterator;
 106:c:\program files\daisytoolchain\arm-none-eabi\include\c++\10.2.1\array ****       typedef std::reverse_iterator<const_iterator>   const_reverse_iterator;
 107:c:\program files\daisytoolchain\arm-none-eabi\include\c++\10.2.1\array **** 
 108:c:\program files\daisytoolchain\arm-none-eabi\include\c++\10.2.1\array ****       // Support for zero-sized arrays mandatory.
 109:c:\program files\daisytoolchain\arm-none-eabi\include\c++\10.2.1\array ****       typedef _GLIBCXX_STD_C::__array_traits<_Tp, _Nm> _AT_Type;
 110:c:\program files\daisytoolchain\arm-none-eabi\include\c++\10.2.1\array ****       typename _AT_Type::_Type                         _M_elems;
 111:c:\program files\daisytoolchain\arm-none-eabi\include\c++\10.2.1\array **** 
 112:c:\program files\daisytoolchain\arm-none-eabi\include\c++\10.2.1\array ****       // No explicit construct/copy/destroy for aggregate type.
 113:c:\program files\daisytoolchain\arm-none-eabi\include\c++\10.2.1\array **** 
 114:c:\program files\daisytoolchain\arm-none-eabi\include\c++\10.2.1\array ****       // DR 776.
 115:c:\program files\daisytoolchain\arm-none-eabi\include\c++\10.2.1\array ****       _GLIBCXX20_CONSTEXPR void
 116:c:\program files\daisytoolchain\arm-none-eabi\include\c++\10.2.1\array ****       fill(const value_type& __u)
 117:c:\program files\daisytoolchain\arm-none-eabi\include\c++\10.2.1\array ****       { std::fill_n(begin(), size(), __u); }
 118:c:\program files\daisytoolchain\arm-none-eabi\include\c++\10.2.1\array **** 
 119:c:\program files\daisytoolchain\arm-none-eabi\include\c++\10.2.1\array ****       _GLIBCXX20_CONSTEXPR void
 120:c:\program files\daisytoolchain\arm-none-eabi\include\c++\10.2.1\array ****       swap(array& __other)
 121:c:\program files\daisytoolchain\arm-none-eabi\include\c++\10.2.1\array ****       noexcept(_AT_Type::_Is_nothrow_swappable::value)
 122:c:\program files\daisytoolchain\arm-none-eabi\include\c++\10.2.1\array ****       { std::swap_ranges(begin(), end(), __other.begin()); }
 123:c:\program files\daisytoolchain\arm-none-eabi\include\c++\10.2.1\array **** 
 124:c:\program files\daisytoolchain\arm-none-eabi\include\c++\10.2.1\array ****       // Iterators.
 125:c:\program files\daisytoolchain\arm-none-eabi\include\c++\10.2.1\array ****       _GLIBCXX17_CONSTEXPR iterator
 126:c:\program files\daisytoolchain\arm-none-eabi\include\c++\10.2.1\array ****       begin() noexcept
 127:c:\program files\daisytoolchain\arm-none-eabi\include\c++\10.2.1\array ****       { return iterator(data()); }
 128:c:\program files\daisytoolchain\arm-none-eabi\include\c++\10.2.1\array **** 
 129:c:\program files\daisytoolchain\arm-none-eabi\include\c++\10.2.1\array ****       _GLIBCXX17_CONSTEXPR const_iterator
 130:c:\program files\daisytoolchain\arm-none-eabi\include\c++\10.2.1\array ****       begin() const noexcept
 131:c:\program files\daisytoolchain\arm-none-eabi\include\c++\10.2.1\array ****       { return const_iterator(data()); }
 132:c:\program files\daisytoolchain\arm-none-eabi\include\c++\10.2.1\array **** 
 133:c:\program files\daisytoolchain\arm-none-eabi\include\c++\10.2.1\array ****       _GLIBCXX17_CONSTEXPR iterator
 134:c:\program files\daisytoolchain\arm-none-eabi\include\c++\10.2.1\array ****       end() noexcept
 135:c:\program files\daisytoolchain\arm-none-eabi\include\c++\10.2.1\array ****       { return iterator(data() + _Nm); }
 136:c:\program files\daisytoolchain\arm-none-eabi\include\c++\10.2.1\array **** 
 137:c:\program files\daisytoolchain\arm-none-eabi\include\c++\10.2.1\array ****       _GLIBCXX17_CONSTEXPR const_iterator
 138:c:\program files\daisytoolchain\arm-none-eabi\include\c++\10.2.1\array ****       end() const noexcept
 139:c:\program files\daisytoolchain\arm-none-eabi\include\c++\10.2.1\array ****       { return const_iterator(data() + _Nm); }
 140:c:\program files\daisytoolchain\arm-none-eabi\include\c++\10.2.1\array **** 
 141:c:\program files\daisytoolchain\arm-none-eabi\include\c++\10.2.1\array ****       _GLIBCXX17_CONSTEXPR reverse_iterator
 142:c:\program files\daisytoolchain\arm-none-eabi\include\c++\10.2.1\array ****       rbegin() noexcept
 143:c:\program files\daisytoolchain\arm-none-eabi\include\c++\10.2.1\array ****       { return reverse_iterator(end()); }
 144:c:\program files\daisytoolchain\arm-none-eabi\include\c++\10.2.1\array **** 
 145:c:\program files\daisytoolchain\arm-none-eabi\include\c++\10.2.1\array ****       _GLIBCXX17_CONSTEXPR const_reverse_iterator
 146:c:\program files\daisytoolchain\arm-none-eabi\include\c++\10.2.1\array ****       rbegin() const noexcept
 147:c:\program files\daisytoolchain\arm-none-eabi\include\c++\10.2.1\array ****       { return const_reverse_iterator(end()); }
 148:c:\program files\daisytoolchain\arm-none-eabi\include\c++\10.2.1\array **** 
 149:c:\program files\daisytoolchain\arm-none-eabi\include\c++\10.2.1\array ****       _GLIBCXX17_CONSTEXPR reverse_iterator
 150:c:\program files\daisytoolchain\arm-none-eabi\include\c++\10.2.1\array ****       rend() noexcept
 151:c:\program files\daisytoolchain\arm-none-eabi\include\c++\10.2.1\array ****       { return reverse_iterator(begin()); }
ARM GAS  C:\Users\theja\AppData\Local\Temp\ccV0pz5d.s 			page 26


 152:c:\program files\daisytoolchain\arm-none-eabi\include\c++\10.2.1\array **** 
 153:c:\program files\daisytoolchain\arm-none-eabi\include\c++\10.2.1\array ****       _GLIBCXX17_CONSTEXPR const_reverse_iterator
 154:c:\program files\daisytoolchain\arm-none-eabi\include\c++\10.2.1\array ****       rend() const noexcept
 155:c:\program files\daisytoolchain\arm-none-eabi\include\c++\10.2.1\array ****       { return const_reverse_iterator(begin()); }
 156:c:\program files\daisytoolchain\arm-none-eabi\include\c++\10.2.1\array **** 
 157:c:\program files\daisytoolchain\arm-none-eabi\include\c++\10.2.1\array ****       _GLIBCXX17_CONSTEXPR const_iterator
 158:c:\program files\daisytoolchain\arm-none-eabi\include\c++\10.2.1\array ****       cbegin() const noexcept
 159:c:\program files\daisytoolchain\arm-none-eabi\include\c++\10.2.1\array ****       { return const_iterator(data()); }
 160:c:\program files\daisytoolchain\arm-none-eabi\include\c++\10.2.1\array **** 
 161:c:\program files\daisytoolchain\arm-none-eabi\include\c++\10.2.1\array ****       _GLIBCXX17_CONSTEXPR const_iterator
 162:c:\program files\daisytoolchain\arm-none-eabi\include\c++\10.2.1\array ****       cend() const noexcept
 163:c:\program files\daisytoolchain\arm-none-eabi\include\c++\10.2.1\array ****       { return const_iterator(data() + _Nm); }
 164:c:\program files\daisytoolchain\arm-none-eabi\include\c++\10.2.1\array **** 
 165:c:\program files\daisytoolchain\arm-none-eabi\include\c++\10.2.1\array ****       _GLIBCXX17_CONSTEXPR const_reverse_iterator
 166:c:\program files\daisytoolchain\arm-none-eabi\include\c++\10.2.1\array ****       crbegin() const noexcept
 167:c:\program files\daisytoolchain\arm-none-eabi\include\c++\10.2.1\array ****       { return const_reverse_iterator(end()); }
 168:c:\program files\daisytoolchain\arm-none-eabi\include\c++\10.2.1\array **** 
 169:c:\program files\daisytoolchain\arm-none-eabi\include\c++\10.2.1\array ****       _GLIBCXX17_CONSTEXPR const_reverse_iterator
 170:c:\program files\daisytoolchain\arm-none-eabi\include\c++\10.2.1\array ****       crend() const noexcept
 171:c:\program files\daisytoolchain\arm-none-eabi\include\c++\10.2.1\array ****       { return const_reverse_iterator(begin()); }
 172:c:\program files\daisytoolchain\arm-none-eabi\include\c++\10.2.1\array **** 
 173:c:\program files\daisytoolchain\arm-none-eabi\include\c++\10.2.1\array ****       // Capacity.
 174:c:\program files\daisytoolchain\arm-none-eabi\include\c++\10.2.1\array ****       constexpr size_type
 175:c:\program files\daisytoolchain\arm-none-eabi\include\c++\10.2.1\array ****       size() const noexcept { return _Nm; }
 176:c:\program files\daisytoolchain\arm-none-eabi\include\c++\10.2.1\array **** 
 177:c:\program files\daisytoolchain\arm-none-eabi\include\c++\10.2.1\array ****       constexpr size_type
 178:c:\program files\daisytoolchain\arm-none-eabi\include\c++\10.2.1\array ****       max_size() const noexcept { return _Nm; }
 179:c:\program files\daisytoolchain\arm-none-eabi\include\c++\10.2.1\array **** 
 180:c:\program files\daisytoolchain\arm-none-eabi\include\c++\10.2.1\array ****       _GLIBCXX_NODISCARD constexpr bool
 181:c:\program files\daisytoolchain\arm-none-eabi\include\c++\10.2.1\array ****       empty() const noexcept { return size() == 0; }
 182:c:\program files\daisytoolchain\arm-none-eabi\include\c++\10.2.1\array **** 
 183:c:\program files\daisytoolchain\arm-none-eabi\include\c++\10.2.1\array ****       // Element access.
 184:c:\program files\daisytoolchain\arm-none-eabi\include\c++\10.2.1\array ****       _GLIBCXX17_CONSTEXPR reference
 185:c:\program files\daisytoolchain\arm-none-eabi\include\c++\10.2.1\array ****       operator[](size_type __n) noexcept
 166              		.loc 3 185 7 view .LVU41
 167              	.LBB285:
 168              	.LBI285:
  55:c:\program files\daisytoolchain\arm-none-eabi\include\c++\10.2.1\array ****       { return const_cast<_Tp&>(__t[__n]); }
 169              		.loc 3 55 7 view .LVU42
  55:c:\program files\daisytoolchain\arm-none-eabi\include\c++\10.2.1\array ****       { return const_cast<_Tp&>(__t[__n]); }
 170              		.loc 3 55 7 is_stmt 0 view .LVU43
 171              	.LBE285:
 172              	.LBE284:
  31:Sequencer.cpp ****         if (seq.drum_sequence.snare_steps[current_step])   drum_synth.trigger_snare();
 173              		.loc 1 31 9 view .LVU44
 174 0076 16F8543C 		ldrb	r3, [r6, #-84]	@ zero_extendqisi2
 175 007a FBB9     		cbnz	r3, .L31
 176              	.L4:
  32:Sequencer.cpp ****         if (seq.drum_sequence.hat_steps[current_step])     drum_synth.trigger_hat();
 177              		.loc 1 32 9 is_stmt 1 view .LVU45
 178              	.LVL12:
 179              	.LBB286:
 180              	.LBI286:
 181              		.loc 3 185 7 view .LVU46
 182              	.LBB287:
 183              	.LBI287:
  55:c:\program files\daisytoolchain\arm-none-eabi\include\c++\10.2.1\array ****       { return const_cast<_Tp&>(__t[__n]); }
ARM GAS  C:\Users\theja\AppData\Local\Temp\ccV0pz5d.s 			page 27


 184              		.loc 3 55 7 view .LVU47
  55:c:\program files\daisytoolchain\arm-none-eabi\include\c++\10.2.1\array ****       { return const_cast<_Tp&>(__t[__n]); }
 185              		.loc 3 55 7 is_stmt 0 view .LVU48
 186              	.LBE287:
 187              	.LBE286:
  32:Sequencer.cpp ****         if (seq.drum_sequence.hat_steps[current_step])     drum_synth.trigger_hat();
 188              		.loc 1 32 9 view .LVU49
 189 007c 16F8343C 		ldrb	r3, [r6, #-52]	@ zero_extendqisi2
 190 0080 C3B9     		cbnz	r3, .L32
 191              	.L5:
  33:Sequencer.cpp **** 
 192              		.loc 1 33 9 is_stmt 1 view .LVU50
 193              	.LVL13:
 194              	.LBB288:
 195              	.LBI288:
 196              		.loc 3 185 7 view .LVU51
 197              	.LBB289:
 198              	.LBI289:
  55:c:\program files\daisytoolchain\arm-none-eabi\include\c++\10.2.1\array ****       { return const_cast<_Tp&>(__t[__n]); }
 199              		.loc 3 55 7 view .LVU52
  55:c:\program files\daisytoolchain\arm-none-eabi\include\c++\10.2.1\array ****       { return const_cast<_Tp&>(__t[__n]); }
 200              		.loc 3 55 7 is_stmt 0 view .LVU53
 201              	.LBE289:
 202              	.LBE288:
  33:Sequencer.cpp **** 
 203              		.loc 1 33 9 view .LVU54
 204 0082 16F8443C 		ldrb	r3, [r6, #-68]	@ zero_extendqisi2
 205 0086 8BB9     		cbnz	r3, .L33
 206              	.L6:
  35:Sequencer.cpp ****         if (groove) {
 207              		.loc 1 35 9 is_stmt 1 view .LVU55
 208              	.LBB290:
 209              	.LBB291:
 210              		.file 4 "ChordSynth.h"
   1:ChordSynth.h  **** #pragma once
   2:ChordSynth.h  **** #include "daisysp.h"
   3:ChordSynth.h  **** #include "InstrumentState.h"
   4:ChordSynth.h  **** #include "utils.h"
   5:ChordSynth.h  **** #include <vector>
   6:ChordSynth.h  **** 
   7:ChordSynth.h  **** using namespace daisysp;
   8:ChordSynth.h  **** 
   9:ChordSynth.h  **** class ChordSynth
  10:ChordSynth.h  **** {
  11:ChordSynth.h  **** public:
  12:ChordSynth.h  ****     ChordSynth(float sample_rate) : sample_rate(sample_rate) {};
  13:ChordSynth.h  **** 
  14:ChordSynth.h  ****     void set_chord(Chord chord);
  15:ChordSynth.h  ****     void set_bass_note(uint8_t scale_idx);
  16:ChordSynth.h  ****     float process();
  17:ChordSynth.h  **** 
  18:ChordSynth.h  ****     void enable()  {enabled  = true;}
 211              		.loc 4 18 30 is_stmt 0 view .LVU56
 212 0088 0123     		movs	r3, #1
 213              	.LBE291:
 214              	.LBE290:
  35:Sequencer.cpp ****         if (groove) {
ARM GAS  C:\Users\theja\AppData\Local\Temp\ccV0pz5d.s 			page 28


 215              		.loc 1 35 9 view .LVU57
 216 008a 2069     		ldr	r0, [r4, #16]
 217              	.LVL14:
 218              	.LBB293:
 219              	.LBI290:
 220              		.loc 4 18 10 is_stmt 1 view .LVU58
 221              	.LBB292:
 222              		.loc 4 18 21 view .LVU59
 223              		.loc 4 18 30 is_stmt 0 view .LVU60
 224 008c 0371     		strb	r3, [r0, #4]
 225              	.LVL15:
 226              		.loc 4 18 30 view .LVU61
 227              	.LBE292:
 228              	.LBE293:
  36:Sequencer.cpp ****             chord_synth.set_bass_note(seq.bass_sequence[current_step]);
 229              		.loc 1 36 9 is_stmt 1 view .LVU62
 230 008e 237D     		ldrb	r3, [r4, #20]	@ zero_extendqisi2
 231 0090 0BB9     		cbnz	r3, .L34
 232              	.L8:
 233              	.LBE277:
 234              	.LBE301:
  44:Sequencer.cpp ****     if (current_tick >= SAMPLES_IN_BAR)
 235              		.loc 1 44 5 is_stmt 0 discriminator 1 view .LVU63
 236 0092 A268     		ldr	r2, [r4, #8]
 237              	.LBB302:
 238 0094 D7E7     		b	.L3
 239              	.L34:
 240              	.LBB300:
  37:Sequencer.cpp ****             if (!seq.chord_sequence[current_step]) {
 241              		.loc 1 37 13 is_stmt 1 view .LVU64
 242              	.LVL16:
 243              	.LBB294:
 244              	.LBI294:
 245              		.loc 3 185 7 view .LVU65
 246              	.LBB295:
 247              	.LBI295:
  55:c:\program files\daisytoolchain\arm-none-eabi\include\c++\10.2.1\array ****       { return const_cast<_Tp&>(__t[__n]); }
 248              		.loc 3 55 7 view .LVU66
  55:c:\program files\daisytoolchain\arm-none-eabi\include\c++\10.2.1\array ****       { return const_cast<_Tp&>(__t[__n]); }
 249              		.loc 3 55 7 is_stmt 0 view .LVU67
 250              	.LBE295:
 251              	.LBE294:
  37:Sequencer.cpp ****             if (!seq.chord_sequence[current_step]) {
 252              		.loc 1 37 38 view .LVU68
 253 0096 16F8141C 		ldrb	r1, [r6, #-20]	@ zero_extendqisi2
 254 009a FFF7FEFF 		bl	_ZN10ChordSynth13set_bass_noteEh
 255              	.LVL17:
  38:Sequencer.cpp ****                 chord_synth.disable();
 256              		.loc 1 38 13 is_stmt 1 view .LVU69
 257              	.LBB296:
 258              	.LBI296:
 259              		.loc 3 185 7 view .LVU70
 260              	.LBB297:
 261              	.LBI297:
  55:c:\program files\daisytoolchain\arm-none-eabi\include\c++\10.2.1\array ****       { return const_cast<_Tp&>(__t[__n]); }
 262              		.loc 3 55 7 view .LVU71
  55:c:\program files\daisytoolchain\arm-none-eabi\include\c++\10.2.1\array ****       { return const_cast<_Tp&>(__t[__n]); }
ARM GAS  C:\Users\theja\AppData\Local\Temp\ccV0pz5d.s 			page 29


 263              		.loc 3 55 7 is_stmt 0 view .LVU72
 264              	.LBE297:
 265              	.LBE296:
  38:Sequencer.cpp ****                 chord_synth.disable();
 266              		.loc 1 38 13 view .LVU73
 267 009e 16F8243C 		ldrb	r3, [r6, #-36]	@ zero_extendqisi2
 268 00a2 002B     		cmp	r3, #0
 269 00a4 F5D1     		bne	.L8
  39:Sequencer.cpp ****             }
 270              		.loc 1 39 17 is_stmt 1 view .LVU74
 271              	.LVL18:
 272              	.LBB298:
 273              	.LBI298:
  19:ChordSynth.h  ****     void disable() {enabled  = false;}
 274              		.loc 4 19 10 view .LVU75
 275              	.LBB299:
 276              		.loc 4 19 21 view .LVU76
 277              		.loc 4 19 30 is_stmt 0 view .LVU77
 278 00a6 2269     		ldr	r2, [r4, #16]
 279 00a8 1371     		strb	r3, [r2, #4]
 280              		.loc 4 19 38 view .LVU78
 281 00aa F2E7     		b	.L8
 282              	.LVL19:
 283              	.L33:
 284              		.loc 4 19 38 view .LVU79
 285              	.LBE299:
 286              	.LBE298:
  33:Sequencer.cpp **** 
 287              		.loc 1 33 60 is_stmt 1 discriminator 1 view .LVU80
  33:Sequencer.cpp **** 
 288              		.loc 1 33 82 is_stmt 0 discriminator 1 view .LVU81
 289 00ac E068     		ldr	r0, [r4, #12]
 290 00ae FFF7FEFF 		bl	_ZN9DrumSynth11trigger_hatEv
 291              	.LVL20:
 292 00b2 E9E7     		b	.L6
 293              	.L32:
  32:Sequencer.cpp ****         if (seq.drum_sequence.hat_steps[current_step])     drum_synth.trigger_hat();
 294              		.loc 1 32 60 is_stmt 1 discriminator 1 view .LVU82
  32:Sequencer.cpp ****         if (seq.drum_sequence.hat_steps[current_step])     drum_synth.trigger_hat();
 295              		.loc 1 32 84 is_stmt 0 discriminator 1 view .LVU83
 296 00b4 E068     		ldr	r0, [r4, #12]
 297 00b6 FFF7FEFF 		bl	_ZN9DrumSynth13trigger_snareEv
 298              	.LVL21:
 299 00ba E2E7     		b	.L5
 300              	.L31:
  31:Sequencer.cpp ****         if (seq.drum_sequence.snare_steps[current_step])   drum_synth.trigger_snare();
 301              		.loc 1 31 60 is_stmt 1 discriminator 1 view .LVU84
  31:Sequencer.cpp ****         if (seq.drum_sequence.snare_steps[current_step])   drum_synth.trigger_snare();
 302              		.loc 1 31 83 is_stmt 0 discriminator 1 view .LVU85
 303 00bc E068     		ldr	r0, [r4, #12]
 304 00be FFF7FEFF 		bl	_ZN9DrumSynth12trigger_kickEv
 305              	.LVL22:
 306 00c2 DBE7     		b	.L4
 307              	.L36:
 308              		.align	2
 309              	.L35:
 310 00c4 00007043 		.word	1131413504
ARM GAS  C:\Users\theja\AppData\Local\Temp\ccV0pz5d.s 			page 30


 311              	.LBE300:
 312              	.LBE302:
 313              		.cfi_endproc
 314              	.LFE4305:
 316              		.section	.text._ZN9Sequencer14scroll_patternEb,"ax",%progbits
 317              		.align	1
 318              		.p2align 2,,3
 319              		.global	_ZN9Sequencer14scroll_patternEb
 320              		.syntax unified
 321              		.thumb
 322              		.thumb_func
 323              		.fpu fpv5-d16
 325              	_ZN9Sequencer14scroll_patternEb:
 326              	.LVL23:
 327              	.LFB4306:
  48:Sequencer.cpp **** 
  49:Sequencer.cpp **** void Sequencer::scroll_pattern(bool direction) {
 328              		.loc 1 49 48 is_stmt 1 view -0
 329              		.cfi_startproc
 330              		@ args = 0, pretend = 0, frame = 0
 331              		@ frame_needed = 0, uses_anonymous_args = 0
 332              		@ link register save eliminated.
  50:Sequencer.cpp ****     if (direction) {
 333              		.loc 1 50 5 view .LVU87
 334 0000 A1B1     		cbz	r1, .L38
  51:Sequencer.cpp ****         sequence_idx++;
 335              		.loc 1 51 9 view .LVU88
 336              	.LBB303:
 337              	.LBB304:
 919:c:\program files\daisytoolchain\arm-none-eabi\include\c++\10.2.1\bits\stl_vector.h **** 
 338              		.loc 2 919 50 is_stmt 0 view .LVU89
 339 0002 C369     		ldr	r3, [r0, #28]
 340              	.LBE304:
 341              	.LBE303:
 342              		.loc 1 51 21 view .LVU90
 343 0004 0278     		ldrb	r2, [r0]	@ zero_extendqisi2
 344              	.LBB309:
 345              	.LBB305:
 919:c:\program files\daisytoolchain\arm-none-eabi\include\c++\10.2.1\bits\stl_vector.h **** 
 346              		.loc 2 919 50 view .LVU91
 347 0006 1349     		ldr	r1, .L46
 348              	.LVL24:
 919:c:\program files\daisytoolchain\arm-none-eabi\include\c++\10.2.1\bits\stl_vector.h **** 
 349              		.loc 2 919 50 view .LVU92
 350              	.LBE305:
 351              	.LBE309:
 352              		.loc 1 51 21 view .LVU93
 353 0008 0132     		adds	r2, r2, #1
  49:Sequencer.cpp ****     if (direction) {
 354              		.loc 1 49 48 view .LVU94
 355 000a 10B4     		push	{r4}
 356              		.cfi_def_cfa_offset 4
 357              		.cfi_offset 4, -4
 358              	.LBB310:
 359              	.LBB306:
 919:c:\program files\daisytoolchain\arm-none-eabi\include\c++\10.2.1\bits\stl_vector.h **** 
 360              		.loc 2 919 50 view .LVU95
ARM GAS  C:\Users\theja\AppData\Local\Temp\ccV0pz5d.s 			page 31


 361 000c 8469     		ldr	r4, [r0, #24]
 362              	.LBE306:
 363              	.LBE310:
 364              		.loc 1 51 21 view .LVU96
 365 000e D2B2     		uxtb	r2, r2
 366              	.LBB311:
 367              	.LBB307:
 919:c:\program files\daisytoolchain\arm-none-eabi\include\c++\10.2.1\bits\stl_vector.h **** 
 368              		.loc 2 919 50 view .LVU97
 369 0010 1B1B     		subs	r3, r3, r4
 370              	.LBE307:
 371              	.LBE311:
 372              		.loc 1 51 21 view .LVU98
 373 0012 0270     		strb	r2, [r0]
  52:Sequencer.cpp ****         if (sequence_idx >= sequences.size())
 374              		.loc 1 52 9 is_stmt 1 view .LVU99
 375              	.LVL25:
 376              	.LBB312:
 377              	.LBI303:
 918:c:\program files\daisytoolchain\arm-none-eabi\include\c++\10.2.1\bits\stl_vector.h ****       { return size_type(this->_M_impl._M_finish - this->_M_impl._M_start); }
 378              		.loc 2 918 7 view .LVU100
 379              	.LBB308:
 919:c:\program files\daisytoolchain\arm-none-eabi\include\c++\10.2.1\bits\stl_vector.h **** 
 380              		.loc 2 919 50 is_stmt 0 view .LVU101
 381 0014 5B10     		asrs	r3, r3, #1
 382 0016 01FB03F3 		mul	r3, r1, r3
 383              	.LBE308:
 384              	.LBE312:
 385              		.loc 1 52 9 view .LVU102
 386 001a 9A42     		cmp	r2, r3
 387 001c 01D3     		bcc	.L39
  53:Sequencer.cpp ****             sequence_idx = 0;
 388              		.loc 1 53 13 is_stmt 1 view .LVU103
 389              		.loc 1 53 26 is_stmt 0 view .LVU104
 390 001e 0023     		movs	r3, #0
 391 0020 0370     		strb	r3, [r0]
 392              	.L39:
  54:Sequencer.cpp ****     } else {
  55:Sequencer.cpp ****         if (sequence_idx == 0)
  56:Sequencer.cpp ****             sequence_idx = sequences.size() - 1;
  57:Sequencer.cpp ****         else
  58:Sequencer.cpp ****             sequence_idx--;
  59:Sequencer.cpp ****     }
  60:Sequencer.cpp **** 
  61:Sequencer.cpp ****     // Reset the current tick to the start of the new pattern
  62:Sequencer.cpp ****     current_tick = 0;
 393              		.loc 1 62 5 is_stmt 1 view .LVU105
 394              		.loc 1 62 18 is_stmt 0 view .LVU106
 395 0022 0023     		movs	r3, #0
  63:Sequencer.cpp **** }
 396              		.loc 1 63 1 view .LVU107
 397 0024 5DF8044B 		ldr	r4, [sp], #4
 398              		.cfi_restore 4
 399              		.cfi_def_cfa_offset 0
  62:Sequencer.cpp **** }
 400              		.loc 1 62 18 view .LVU108
 401 0028 8360     		str	r3, [r0, #8]
ARM GAS  C:\Users\theja\AppData\Local\Temp\ccV0pz5d.s 			page 32


 402              		.loc 1 63 1 view .LVU109
 403 002a 7047     		bx	lr
 404              	.LVL26:
 405              	.L38:
  55:Sequencer.cpp ****             sequence_idx = sequences.size() - 1;
 406              		.loc 1 55 9 is_stmt 1 view .LVU110
  55:Sequencer.cpp ****             sequence_idx = sequences.size() - 1;
 407              		.loc 1 55 13 is_stmt 0 view .LVU111
 408 002c 0378     		ldrb	r3, [r0]	@ zero_extendqisi2
  55:Sequencer.cpp ****             sequence_idx = sequences.size() - 1;
 409              		.loc 1 55 9 view .LVU112
 410 002e 23B1     		cbz	r3, .L45
  58:Sequencer.cpp ****     }
 411              		.loc 1 58 13 is_stmt 1 view .LVU113
  58:Sequencer.cpp ****     }
 412              		.loc 1 58 25 is_stmt 0 view .LVU114
 413 0030 013B     		subs	r3, r3, #1
 414 0032 0370     		strb	r3, [r0]
  62:Sequencer.cpp **** }
 415              		.loc 1 62 5 is_stmt 1 view .LVU115
  62:Sequencer.cpp **** }
 416              		.loc 1 62 18 is_stmt 0 view .LVU116
 417 0034 0023     		movs	r3, #0
 418 0036 8360     		str	r3, [r0, #8]
 419 0038 7047     		bx	lr
 420              	.L45:
  56:Sequencer.cpp ****         else
 421              		.loc 1 56 13 is_stmt 1 view .LVU117
 422              	.LVL27:
 423              	.LBB313:
 424              	.LBI313:
 918:c:\program files\daisytoolchain\arm-none-eabi\include\c++\10.2.1\bits\stl_vector.h ****       { return size_type(this->_M_impl._M_finish - this->_M_impl._M_start); }
 425              		.loc 2 918 7 view .LVU118
 426              	.LBB314:
 919:c:\program files\daisytoolchain\arm-none-eabi\include\c++\10.2.1\bits\stl_vector.h **** 
 427              		.loc 2 919 50 is_stmt 0 view .LVU119
 428 003a D0E90613 		ldrd	r1, r3, [r0, #24]
 429              	.LVL28:
 919:c:\program files\daisytoolchain\arm-none-eabi\include\c++\10.2.1\bits\stl_vector.h **** 
 430              		.loc 2 919 50 view .LVU120
 431 003e 054A     		ldr	r2, .L46
 432 0040 5B1A     		subs	r3, r3, r1
 433 0042 5B10     		asrs	r3, r3, #1
 434 0044 02FB03F3 		mul	r3, r2, r3
 435              	.LBE314:
 436              	.LBE313:
  56:Sequencer.cpp ****         else
 437              		.loc 1 56 45 view .LVU121
 438 0048 013B     		subs	r3, r3, #1
  56:Sequencer.cpp ****         else
 439              		.loc 1 56 26 view .LVU122
 440 004a 0370     		strb	r3, [r0]
  62:Sequencer.cpp **** }
 441              		.loc 1 62 5 is_stmt 1 view .LVU123
  62:Sequencer.cpp **** }
 442              		.loc 1 62 18 is_stmt 0 view .LVU124
 443 004c 0023     		movs	r3, #0
ARM GAS  C:\Users\theja\AppData\Local\Temp\ccV0pz5d.s 			page 33


 444 004e 8360     		str	r3, [r0, #8]
 445 0050 7047     		bx	lr
 446              	.L47:
 447 0052 00BF     		.align	2
 448              	.L46:
 449 0054 199C8FC1 		.word	-1047552999
 450              		.cfi_endproc
 451              	.LFE4306:
 453              		.section	.rodata._ZNSt6vectorIN9Sequencer8SequenceESaIS1_EE17_M_realloc_insertIJRKS1_EEEvN9__gnu_c
 454              		.align	2
 455              	.LC10:
 456 0000 76656374 		.ascii	"vector::_M_realloc_insert\000"
 456      6F723A3A 
 456      5F4D5F72 
 456      65616C6C 
 456      6F635F69 
 457              		.section	.text._ZNSt6vectorIN9Sequencer8SequenceESaIS1_EE17_M_realloc_insertIJRKS1_EEEvN9__gnu_cxx
 458              		.align	1
 459              		.p2align 2,,3
 460              		.weak	_ZNSt6vectorIN9Sequencer8SequenceESaIS1_EE17_M_realloc_insertIJRKS1_EEEvN9__gnu_cxx17__norma
 461              		.syntax unified
 462              		.thumb
 463              		.thumb_func
 464              		.fpu fpv5-d16
 466              	_ZNSt6vectorIN9Sequencer8SequenceESaIS1_EE17_M_realloc_insertIJRKS1_EEEvN9__gnu_cxx17__normal_itera
 467              	.LVL29:
 468              	.LFB5010:
 469              		.file 5 "c:\\program files\\daisytoolchain\\arm-none-eabi\\include\\c++\\10.2.1\\bits\\vector.tcc"
   1:c:\program files\daisytoolchain\arm-none-eabi\include\c++\10.2.1\bits\vector.tcc **** // Vector implementation (out of line) -*- C++ -*-
   2:c:\program files\daisytoolchain\arm-none-eabi\include\c++\10.2.1\bits\vector.tcc **** 
   3:c:\program files\daisytoolchain\arm-none-eabi\include\c++\10.2.1\bits\vector.tcc **** // Copyright (C) 2001-2020 Free Software Foundation, Inc.
   4:c:\program files\daisytoolchain\arm-none-eabi\include\c++\10.2.1\bits\vector.tcc **** //
   5:c:\program files\daisytoolchain\arm-none-eabi\include\c++\10.2.1\bits\vector.tcc **** // This file is part of the GNU ISO C++ Library.  This library is free
   6:c:\program files\daisytoolchain\arm-none-eabi\include\c++\10.2.1\bits\vector.tcc **** // software; you can redistribute it and/or modify it under the
   7:c:\program files\daisytoolchain\arm-none-eabi\include\c++\10.2.1\bits\vector.tcc **** // terms of the GNU General Public License as published by the
   8:c:\program files\daisytoolchain\arm-none-eabi\include\c++\10.2.1\bits\vector.tcc **** // Free Software Foundation; either version 3, or (at your option)
   9:c:\program files\daisytoolchain\arm-none-eabi\include\c++\10.2.1\bits\vector.tcc **** // any later version.
  10:c:\program files\daisytoolchain\arm-none-eabi\include\c++\10.2.1\bits\vector.tcc **** 
  11:c:\program files\daisytoolchain\arm-none-eabi\include\c++\10.2.1\bits\vector.tcc **** // This library is distributed in the hope that it will be useful,
  12:c:\program files\daisytoolchain\arm-none-eabi\include\c++\10.2.1\bits\vector.tcc **** // but WITHOUT ANY WARRANTY; without even the implied warranty of
  13:c:\program files\daisytoolchain\arm-none-eabi\include\c++\10.2.1\bits\vector.tcc **** // MERCHANTABILITY or FITNESS FOR A PARTICULAR PURPOSE.  See the
  14:c:\program files\daisytoolchain\arm-none-eabi\include\c++\10.2.1\bits\vector.tcc **** // GNU General Public License for more details.
  15:c:\program files\daisytoolchain\arm-none-eabi\include\c++\10.2.1\bits\vector.tcc **** 
  16:c:\program files\daisytoolchain\arm-none-eabi\include\c++\10.2.1\bits\vector.tcc **** // Under Section 7 of GPL version 3, you are granted additional
  17:c:\program files\daisytoolchain\arm-none-eabi\include\c++\10.2.1\bits\vector.tcc **** // permissions described in the GCC Runtime Library Exception, version
  18:c:\program files\daisytoolchain\arm-none-eabi\include\c++\10.2.1\bits\vector.tcc **** // 3.1, as published by the Free Software Foundation.
  19:c:\program files\daisytoolchain\arm-none-eabi\include\c++\10.2.1\bits\vector.tcc **** 
  20:c:\program files\daisytoolchain\arm-none-eabi\include\c++\10.2.1\bits\vector.tcc **** // You should have received a copy of the GNU General Public License and
  21:c:\program files\daisytoolchain\arm-none-eabi\include\c++\10.2.1\bits\vector.tcc **** // a copy of the GCC Runtime Library Exception along with this program;
  22:c:\program files\daisytoolchain\arm-none-eabi\include\c++\10.2.1\bits\vector.tcc **** // see the files COPYING3 and COPYING.RUNTIME respectively.  If not, see
  23:c:\program files\daisytoolchain\arm-none-eabi\include\c++\10.2.1\bits\vector.tcc **** // <http://www.gnu.org/licenses/>.
  24:c:\program files\daisytoolchain\arm-none-eabi\include\c++\10.2.1\bits\vector.tcc **** 
  25:c:\program files\daisytoolchain\arm-none-eabi\include\c++\10.2.1\bits\vector.tcc **** /*
  26:c:\program files\daisytoolchain\arm-none-eabi\include\c++\10.2.1\bits\vector.tcc ****  *
  27:c:\program files\daisytoolchain\arm-none-eabi\include\c++\10.2.1\bits\vector.tcc ****  * Copyright (c) 1994
  28:c:\program files\daisytoolchain\arm-none-eabi\include\c++\10.2.1\bits\vector.tcc ****  * Hewlett-Packard Company
  29:c:\program files\daisytoolchain\arm-none-eabi\include\c++\10.2.1\bits\vector.tcc ****  *
ARM GAS  C:\Users\theja\AppData\Local\Temp\ccV0pz5d.s 			page 34


  30:c:\program files\daisytoolchain\arm-none-eabi\include\c++\10.2.1\bits\vector.tcc ****  * Permission to use, copy, modify, distribute and sell this software
  31:c:\program files\daisytoolchain\arm-none-eabi\include\c++\10.2.1\bits\vector.tcc ****  * and its documentation for any purpose is hereby granted without fee,
  32:c:\program files\daisytoolchain\arm-none-eabi\include\c++\10.2.1\bits\vector.tcc ****  * provided that the above copyright notice appear in all copies and
  33:c:\program files\daisytoolchain\arm-none-eabi\include\c++\10.2.1\bits\vector.tcc ****  * that both that copyright notice and this permission notice appear
  34:c:\program files\daisytoolchain\arm-none-eabi\include\c++\10.2.1\bits\vector.tcc ****  * in supporting documentation.  Hewlett-Packard Company makes no
  35:c:\program files\daisytoolchain\arm-none-eabi\include\c++\10.2.1\bits\vector.tcc ****  * representations about the suitability of this software for any
  36:c:\program files\daisytoolchain\arm-none-eabi\include\c++\10.2.1\bits\vector.tcc ****  * purpose.  It is provided "as is" without express or implied warranty.
  37:c:\program files\daisytoolchain\arm-none-eabi\include\c++\10.2.1\bits\vector.tcc ****  *
  38:c:\program files\daisytoolchain\arm-none-eabi\include\c++\10.2.1\bits\vector.tcc ****  *
  39:c:\program files\daisytoolchain\arm-none-eabi\include\c++\10.2.1\bits\vector.tcc ****  * Copyright (c) 1996
  40:c:\program files\daisytoolchain\arm-none-eabi\include\c++\10.2.1\bits\vector.tcc ****  * Silicon Graphics Computer Systems, Inc.
  41:c:\program files\daisytoolchain\arm-none-eabi\include\c++\10.2.1\bits\vector.tcc ****  *
  42:c:\program files\daisytoolchain\arm-none-eabi\include\c++\10.2.1\bits\vector.tcc ****  * Permission to use, copy, modify, distribute and sell this software
  43:c:\program files\daisytoolchain\arm-none-eabi\include\c++\10.2.1\bits\vector.tcc ****  * and its documentation for any purpose is hereby granted without fee,
  44:c:\program files\daisytoolchain\arm-none-eabi\include\c++\10.2.1\bits\vector.tcc ****  * provided that the above copyright notice appear in all copies and
  45:c:\program files\daisytoolchain\arm-none-eabi\include\c++\10.2.1\bits\vector.tcc ****  * that both that copyright notice and this permission notice appear
  46:c:\program files\daisytoolchain\arm-none-eabi\include\c++\10.2.1\bits\vector.tcc ****  * in supporting documentation.  Silicon Graphics makes no
  47:c:\program files\daisytoolchain\arm-none-eabi\include\c++\10.2.1\bits\vector.tcc ****  * representations about the suitability of this  software for any
  48:c:\program files\daisytoolchain\arm-none-eabi\include\c++\10.2.1\bits\vector.tcc ****  * purpose.  It is provided "as is" without express or implied warranty.
  49:c:\program files\daisytoolchain\arm-none-eabi\include\c++\10.2.1\bits\vector.tcc ****  */
  50:c:\program files\daisytoolchain\arm-none-eabi\include\c++\10.2.1\bits\vector.tcc **** 
  51:c:\program files\daisytoolchain\arm-none-eabi\include\c++\10.2.1\bits\vector.tcc **** /** @file bits/vector.tcc
  52:c:\program files\daisytoolchain\arm-none-eabi\include\c++\10.2.1\bits\vector.tcc ****  *  This is an internal header file, included by other library headers.
  53:c:\program files\daisytoolchain\arm-none-eabi\include\c++\10.2.1\bits\vector.tcc ****  *  Do not attempt to use it directly. @headername{vector}
  54:c:\program files\daisytoolchain\arm-none-eabi\include\c++\10.2.1\bits\vector.tcc ****  */
  55:c:\program files\daisytoolchain\arm-none-eabi\include\c++\10.2.1\bits\vector.tcc **** 
  56:c:\program files\daisytoolchain\arm-none-eabi\include\c++\10.2.1\bits\vector.tcc **** #ifndef _VECTOR_TCC
  57:c:\program files\daisytoolchain\arm-none-eabi\include\c++\10.2.1\bits\vector.tcc **** #define _VECTOR_TCC 1
  58:c:\program files\daisytoolchain\arm-none-eabi\include\c++\10.2.1\bits\vector.tcc **** 
  59:c:\program files\daisytoolchain\arm-none-eabi\include\c++\10.2.1\bits\vector.tcc **** namespace std _GLIBCXX_VISIBILITY(default)
  60:c:\program files\daisytoolchain\arm-none-eabi\include\c++\10.2.1\bits\vector.tcc **** {
  61:c:\program files\daisytoolchain\arm-none-eabi\include\c++\10.2.1\bits\vector.tcc **** _GLIBCXX_BEGIN_NAMESPACE_VERSION
  62:c:\program files\daisytoolchain\arm-none-eabi\include\c++\10.2.1\bits\vector.tcc **** _GLIBCXX_BEGIN_NAMESPACE_CONTAINER
  63:c:\program files\daisytoolchain\arm-none-eabi\include\c++\10.2.1\bits\vector.tcc **** 
  64:c:\program files\daisytoolchain\arm-none-eabi\include\c++\10.2.1\bits\vector.tcc ****   template<typename _Tp, typename _Alloc>
  65:c:\program files\daisytoolchain\arm-none-eabi\include\c++\10.2.1\bits\vector.tcc ****     void
  66:c:\program files\daisytoolchain\arm-none-eabi\include\c++\10.2.1\bits\vector.tcc ****     vector<_Tp, _Alloc>::
  67:c:\program files\daisytoolchain\arm-none-eabi\include\c++\10.2.1\bits\vector.tcc ****     reserve(size_type __n)
  68:c:\program files\daisytoolchain\arm-none-eabi\include\c++\10.2.1\bits\vector.tcc ****     {
  69:c:\program files\daisytoolchain\arm-none-eabi\include\c++\10.2.1\bits\vector.tcc ****       if (__n > this->max_size())
  70:c:\program files\daisytoolchain\arm-none-eabi\include\c++\10.2.1\bits\vector.tcc **** 	__throw_length_error(__N("vector::reserve"));
  71:c:\program files\daisytoolchain\arm-none-eabi\include\c++\10.2.1\bits\vector.tcc ****       if (this->capacity() < __n)
  72:c:\program files\daisytoolchain\arm-none-eabi\include\c++\10.2.1\bits\vector.tcc **** 	{
  73:c:\program files\daisytoolchain\arm-none-eabi\include\c++\10.2.1\bits\vector.tcc **** 	  const size_type __old_size = size();
  74:c:\program files\daisytoolchain\arm-none-eabi\include\c++\10.2.1\bits\vector.tcc **** 	  pointer __tmp;
  75:c:\program files\daisytoolchain\arm-none-eabi\include\c++\10.2.1\bits\vector.tcc **** #if __cplusplus >= 201103L
  76:c:\program files\daisytoolchain\arm-none-eabi\include\c++\10.2.1\bits\vector.tcc **** 	  if _GLIBCXX17_CONSTEXPR (_S_use_relocate())
  77:c:\program files\daisytoolchain\arm-none-eabi\include\c++\10.2.1\bits\vector.tcc **** 	    {
  78:c:\program files\daisytoolchain\arm-none-eabi\include\c++\10.2.1\bits\vector.tcc **** 	      __tmp = this->_M_allocate(__n);
  79:c:\program files\daisytoolchain\arm-none-eabi\include\c++\10.2.1\bits\vector.tcc **** 	      _S_relocate(this->_M_impl._M_start, this->_M_impl._M_finish,
  80:c:\program files\daisytoolchain\arm-none-eabi\include\c++\10.2.1\bits\vector.tcc **** 			  __tmp, _M_get_Tp_allocator());
  81:c:\program files\daisytoolchain\arm-none-eabi\include\c++\10.2.1\bits\vector.tcc **** 	    }
  82:c:\program files\daisytoolchain\arm-none-eabi\include\c++\10.2.1\bits\vector.tcc **** 	  else
  83:c:\program files\daisytoolchain\arm-none-eabi\include\c++\10.2.1\bits\vector.tcc **** #endif
  84:c:\program files\daisytoolchain\arm-none-eabi\include\c++\10.2.1\bits\vector.tcc **** 	    {
  85:c:\program files\daisytoolchain\arm-none-eabi\include\c++\10.2.1\bits\vector.tcc **** 	      __tmp = _M_allocate_and_copy(__n,
  86:c:\program files\daisytoolchain\arm-none-eabi\include\c++\10.2.1\bits\vector.tcc **** 		_GLIBCXX_MAKE_MOVE_IF_NOEXCEPT_ITERATOR(this->_M_impl._M_start),
ARM GAS  C:\Users\theja\AppData\Local\Temp\ccV0pz5d.s 			page 35


  87:c:\program files\daisytoolchain\arm-none-eabi\include\c++\10.2.1\bits\vector.tcc **** 		_GLIBCXX_MAKE_MOVE_IF_NOEXCEPT_ITERATOR(this->_M_impl._M_finish));
  88:c:\program files\daisytoolchain\arm-none-eabi\include\c++\10.2.1\bits\vector.tcc **** 	      std::_Destroy(this->_M_impl._M_start, this->_M_impl._M_finish,
  89:c:\program files\daisytoolchain\arm-none-eabi\include\c++\10.2.1\bits\vector.tcc **** 			    _M_get_Tp_allocator());
  90:c:\program files\daisytoolchain\arm-none-eabi\include\c++\10.2.1\bits\vector.tcc **** 	    }
  91:c:\program files\daisytoolchain\arm-none-eabi\include\c++\10.2.1\bits\vector.tcc **** 	  _GLIBCXX_ASAN_ANNOTATE_REINIT;
  92:c:\program files\daisytoolchain\arm-none-eabi\include\c++\10.2.1\bits\vector.tcc **** 	  _M_deallocate(this->_M_impl._M_start,
  93:c:\program files\daisytoolchain\arm-none-eabi\include\c++\10.2.1\bits\vector.tcc **** 			this->_M_impl._M_end_of_storage
  94:c:\program files\daisytoolchain\arm-none-eabi\include\c++\10.2.1\bits\vector.tcc **** 			- this->_M_impl._M_start);
  95:c:\program files\daisytoolchain\arm-none-eabi\include\c++\10.2.1\bits\vector.tcc **** 	  this->_M_impl._M_start = __tmp;
  96:c:\program files\daisytoolchain\arm-none-eabi\include\c++\10.2.1\bits\vector.tcc **** 	  this->_M_impl._M_finish = __tmp + __old_size;
  97:c:\program files\daisytoolchain\arm-none-eabi\include\c++\10.2.1\bits\vector.tcc **** 	  this->_M_impl._M_end_of_storage = this->_M_impl._M_start + __n;
  98:c:\program files\daisytoolchain\arm-none-eabi\include\c++\10.2.1\bits\vector.tcc **** 	}
  99:c:\program files\daisytoolchain\arm-none-eabi\include\c++\10.2.1\bits\vector.tcc ****     }
 100:c:\program files\daisytoolchain\arm-none-eabi\include\c++\10.2.1\bits\vector.tcc **** 
 101:c:\program files\daisytoolchain\arm-none-eabi\include\c++\10.2.1\bits\vector.tcc **** #if __cplusplus >= 201103L
 102:c:\program files\daisytoolchain\arm-none-eabi\include\c++\10.2.1\bits\vector.tcc ****   template<typename _Tp, typename _Alloc>
 103:c:\program files\daisytoolchain\arm-none-eabi\include\c++\10.2.1\bits\vector.tcc ****     template<typename... _Args>
 104:c:\program files\daisytoolchain\arm-none-eabi\include\c++\10.2.1\bits\vector.tcc **** #if __cplusplus > 201402L
 105:c:\program files\daisytoolchain\arm-none-eabi\include\c++\10.2.1\bits\vector.tcc ****       typename vector<_Tp, _Alloc>::reference
 106:c:\program files\daisytoolchain\arm-none-eabi\include\c++\10.2.1\bits\vector.tcc **** #else
 107:c:\program files\daisytoolchain\arm-none-eabi\include\c++\10.2.1\bits\vector.tcc ****       void
 108:c:\program files\daisytoolchain\arm-none-eabi\include\c++\10.2.1\bits\vector.tcc **** #endif
 109:c:\program files\daisytoolchain\arm-none-eabi\include\c++\10.2.1\bits\vector.tcc ****       vector<_Tp, _Alloc>::
 110:c:\program files\daisytoolchain\arm-none-eabi\include\c++\10.2.1\bits\vector.tcc ****       emplace_back(_Args&&... __args)
 111:c:\program files\daisytoolchain\arm-none-eabi\include\c++\10.2.1\bits\vector.tcc ****       {
 112:c:\program files\daisytoolchain\arm-none-eabi\include\c++\10.2.1\bits\vector.tcc **** 	if (this->_M_impl._M_finish != this->_M_impl._M_end_of_storage)
 113:c:\program files\daisytoolchain\arm-none-eabi\include\c++\10.2.1\bits\vector.tcc **** 	  {
 114:c:\program files\daisytoolchain\arm-none-eabi\include\c++\10.2.1\bits\vector.tcc **** 	    _GLIBCXX_ASAN_ANNOTATE_GROW(1);
 115:c:\program files\daisytoolchain\arm-none-eabi\include\c++\10.2.1\bits\vector.tcc **** 	    _Alloc_traits::construct(this->_M_impl, this->_M_impl._M_finish,
 116:c:\program files\daisytoolchain\arm-none-eabi\include\c++\10.2.1\bits\vector.tcc **** 				     std::forward<_Args>(__args)...);
 117:c:\program files\daisytoolchain\arm-none-eabi\include\c++\10.2.1\bits\vector.tcc **** 	    ++this->_M_impl._M_finish;
 118:c:\program files\daisytoolchain\arm-none-eabi\include\c++\10.2.1\bits\vector.tcc **** 	    _GLIBCXX_ASAN_ANNOTATE_GREW(1);
 119:c:\program files\daisytoolchain\arm-none-eabi\include\c++\10.2.1\bits\vector.tcc **** 	  }
 120:c:\program files\daisytoolchain\arm-none-eabi\include\c++\10.2.1\bits\vector.tcc **** 	else
 121:c:\program files\daisytoolchain\arm-none-eabi\include\c++\10.2.1\bits\vector.tcc **** 	  _M_realloc_insert(end(), std::forward<_Args>(__args)...);
 122:c:\program files\daisytoolchain\arm-none-eabi\include\c++\10.2.1\bits\vector.tcc **** #if __cplusplus > 201402L
 123:c:\program files\daisytoolchain\arm-none-eabi\include\c++\10.2.1\bits\vector.tcc **** 	return back();
 124:c:\program files\daisytoolchain\arm-none-eabi\include\c++\10.2.1\bits\vector.tcc **** #endif
 125:c:\program files\daisytoolchain\arm-none-eabi\include\c++\10.2.1\bits\vector.tcc ****       }
 126:c:\program files\daisytoolchain\arm-none-eabi\include\c++\10.2.1\bits\vector.tcc **** #endif
 127:c:\program files\daisytoolchain\arm-none-eabi\include\c++\10.2.1\bits\vector.tcc **** 
 128:c:\program files\daisytoolchain\arm-none-eabi\include\c++\10.2.1\bits\vector.tcc ****   template<typename _Tp, typename _Alloc>
 129:c:\program files\daisytoolchain\arm-none-eabi\include\c++\10.2.1\bits\vector.tcc ****     typename vector<_Tp, _Alloc>::iterator
 130:c:\program files\daisytoolchain\arm-none-eabi\include\c++\10.2.1\bits\vector.tcc ****     vector<_Tp, _Alloc>::
 131:c:\program files\daisytoolchain\arm-none-eabi\include\c++\10.2.1\bits\vector.tcc **** #if __cplusplus >= 201103L
 132:c:\program files\daisytoolchain\arm-none-eabi\include\c++\10.2.1\bits\vector.tcc ****     insert(const_iterator __position, const value_type& __x)
 133:c:\program files\daisytoolchain\arm-none-eabi\include\c++\10.2.1\bits\vector.tcc **** #else
 134:c:\program files\daisytoolchain\arm-none-eabi\include\c++\10.2.1\bits\vector.tcc ****     insert(iterator __position, const value_type& __x)
 135:c:\program files\daisytoolchain\arm-none-eabi\include\c++\10.2.1\bits\vector.tcc **** #endif
 136:c:\program files\daisytoolchain\arm-none-eabi\include\c++\10.2.1\bits\vector.tcc ****     {
 137:c:\program files\daisytoolchain\arm-none-eabi\include\c++\10.2.1\bits\vector.tcc ****       const size_type __n = __position - begin();
 138:c:\program files\daisytoolchain\arm-none-eabi\include\c++\10.2.1\bits\vector.tcc ****       if (this->_M_impl._M_finish != this->_M_impl._M_end_of_storage)
 139:c:\program files\daisytoolchain\arm-none-eabi\include\c++\10.2.1\bits\vector.tcc **** 	if (__position == end())
 140:c:\program files\daisytoolchain\arm-none-eabi\include\c++\10.2.1\bits\vector.tcc **** 	  {
 141:c:\program files\daisytoolchain\arm-none-eabi\include\c++\10.2.1\bits\vector.tcc **** 	    _GLIBCXX_ASAN_ANNOTATE_GROW(1);
 142:c:\program files\daisytoolchain\arm-none-eabi\include\c++\10.2.1\bits\vector.tcc **** 	    _Alloc_traits::construct(this->_M_impl, this->_M_impl._M_finish,
 143:c:\program files\daisytoolchain\arm-none-eabi\include\c++\10.2.1\bits\vector.tcc **** 				     __x);
ARM GAS  C:\Users\theja\AppData\Local\Temp\ccV0pz5d.s 			page 36


 144:c:\program files\daisytoolchain\arm-none-eabi\include\c++\10.2.1\bits\vector.tcc **** 	    ++this->_M_impl._M_finish;
 145:c:\program files\daisytoolchain\arm-none-eabi\include\c++\10.2.1\bits\vector.tcc **** 	    _GLIBCXX_ASAN_ANNOTATE_GREW(1);
 146:c:\program files\daisytoolchain\arm-none-eabi\include\c++\10.2.1\bits\vector.tcc **** 	  }
 147:c:\program files\daisytoolchain\arm-none-eabi\include\c++\10.2.1\bits\vector.tcc **** 	else
 148:c:\program files\daisytoolchain\arm-none-eabi\include\c++\10.2.1\bits\vector.tcc **** 	  {
 149:c:\program files\daisytoolchain\arm-none-eabi\include\c++\10.2.1\bits\vector.tcc **** #if __cplusplus >= 201103L
 150:c:\program files\daisytoolchain\arm-none-eabi\include\c++\10.2.1\bits\vector.tcc **** 	    const auto __pos = begin() + (__position - cbegin());
 151:c:\program files\daisytoolchain\arm-none-eabi\include\c++\10.2.1\bits\vector.tcc **** 	    // __x could be an existing element of this vector, so make a
 152:c:\program files\daisytoolchain\arm-none-eabi\include\c++\10.2.1\bits\vector.tcc **** 	    // copy of it before _M_insert_aux moves elements around.
 153:c:\program files\daisytoolchain\arm-none-eabi\include\c++\10.2.1\bits\vector.tcc **** 	    _Temporary_value __x_copy(this, __x);
 154:c:\program files\daisytoolchain\arm-none-eabi\include\c++\10.2.1\bits\vector.tcc **** 	    _M_insert_aux(__pos, std::move(__x_copy._M_val()));
 155:c:\program files\daisytoolchain\arm-none-eabi\include\c++\10.2.1\bits\vector.tcc **** #else
 156:c:\program files\daisytoolchain\arm-none-eabi\include\c++\10.2.1\bits\vector.tcc **** 	    _M_insert_aux(__position, __x);
 157:c:\program files\daisytoolchain\arm-none-eabi\include\c++\10.2.1\bits\vector.tcc **** #endif
 158:c:\program files\daisytoolchain\arm-none-eabi\include\c++\10.2.1\bits\vector.tcc **** 	  }
 159:c:\program files\daisytoolchain\arm-none-eabi\include\c++\10.2.1\bits\vector.tcc ****       else
 160:c:\program files\daisytoolchain\arm-none-eabi\include\c++\10.2.1\bits\vector.tcc **** #if __cplusplus >= 201103L
 161:c:\program files\daisytoolchain\arm-none-eabi\include\c++\10.2.1\bits\vector.tcc **** 	_M_realloc_insert(begin() + (__position - cbegin()), __x);
 162:c:\program files\daisytoolchain\arm-none-eabi\include\c++\10.2.1\bits\vector.tcc **** #else
 163:c:\program files\daisytoolchain\arm-none-eabi\include\c++\10.2.1\bits\vector.tcc **** 	_M_realloc_insert(__position, __x);
 164:c:\program files\daisytoolchain\arm-none-eabi\include\c++\10.2.1\bits\vector.tcc **** #endif
 165:c:\program files\daisytoolchain\arm-none-eabi\include\c++\10.2.1\bits\vector.tcc **** 
 166:c:\program files\daisytoolchain\arm-none-eabi\include\c++\10.2.1\bits\vector.tcc ****       return iterator(this->_M_impl._M_start + __n);
 167:c:\program files\daisytoolchain\arm-none-eabi\include\c++\10.2.1\bits\vector.tcc ****     }
 168:c:\program files\daisytoolchain\arm-none-eabi\include\c++\10.2.1\bits\vector.tcc **** 
 169:c:\program files\daisytoolchain\arm-none-eabi\include\c++\10.2.1\bits\vector.tcc ****   template<typename _Tp, typename _Alloc>
 170:c:\program files\daisytoolchain\arm-none-eabi\include\c++\10.2.1\bits\vector.tcc ****     typename vector<_Tp, _Alloc>::iterator
 171:c:\program files\daisytoolchain\arm-none-eabi\include\c++\10.2.1\bits\vector.tcc ****     vector<_Tp, _Alloc>::
 172:c:\program files\daisytoolchain\arm-none-eabi\include\c++\10.2.1\bits\vector.tcc ****     _M_erase(iterator __position)
 173:c:\program files\daisytoolchain\arm-none-eabi\include\c++\10.2.1\bits\vector.tcc ****     {
 174:c:\program files\daisytoolchain\arm-none-eabi\include\c++\10.2.1\bits\vector.tcc ****       if (__position + 1 != end())
 175:c:\program files\daisytoolchain\arm-none-eabi\include\c++\10.2.1\bits\vector.tcc **** 	_GLIBCXX_MOVE3(__position + 1, end(), __position);
 176:c:\program files\daisytoolchain\arm-none-eabi\include\c++\10.2.1\bits\vector.tcc ****       --this->_M_impl._M_finish;
 177:c:\program files\daisytoolchain\arm-none-eabi\include\c++\10.2.1\bits\vector.tcc ****       _Alloc_traits::destroy(this->_M_impl, this->_M_impl._M_finish);
 178:c:\program files\daisytoolchain\arm-none-eabi\include\c++\10.2.1\bits\vector.tcc ****       _GLIBCXX_ASAN_ANNOTATE_SHRINK(1);
 179:c:\program files\daisytoolchain\arm-none-eabi\include\c++\10.2.1\bits\vector.tcc ****       return __position;
 180:c:\program files\daisytoolchain\arm-none-eabi\include\c++\10.2.1\bits\vector.tcc ****     }
 181:c:\program files\daisytoolchain\arm-none-eabi\include\c++\10.2.1\bits\vector.tcc **** 
 182:c:\program files\daisytoolchain\arm-none-eabi\include\c++\10.2.1\bits\vector.tcc ****   template<typename _Tp, typename _Alloc>
 183:c:\program files\daisytoolchain\arm-none-eabi\include\c++\10.2.1\bits\vector.tcc ****     typename vector<_Tp, _Alloc>::iterator
 184:c:\program files\daisytoolchain\arm-none-eabi\include\c++\10.2.1\bits\vector.tcc ****     vector<_Tp, _Alloc>::
 185:c:\program files\daisytoolchain\arm-none-eabi\include\c++\10.2.1\bits\vector.tcc ****     _M_erase(iterator __first, iterator __last)
 186:c:\program files\daisytoolchain\arm-none-eabi\include\c++\10.2.1\bits\vector.tcc ****     {
 187:c:\program files\daisytoolchain\arm-none-eabi\include\c++\10.2.1\bits\vector.tcc ****       if (__first != __last)
 188:c:\program files\daisytoolchain\arm-none-eabi\include\c++\10.2.1\bits\vector.tcc **** 	{
 189:c:\program files\daisytoolchain\arm-none-eabi\include\c++\10.2.1\bits\vector.tcc **** 	  if (__last != end())
 190:c:\program files\daisytoolchain\arm-none-eabi\include\c++\10.2.1\bits\vector.tcc **** 	    _GLIBCXX_MOVE3(__last, end(), __first);
 191:c:\program files\daisytoolchain\arm-none-eabi\include\c++\10.2.1\bits\vector.tcc **** 	  _M_erase_at_end(__first.base() + (end() - __last));
 192:c:\program files\daisytoolchain\arm-none-eabi\include\c++\10.2.1\bits\vector.tcc **** 	}
 193:c:\program files\daisytoolchain\arm-none-eabi\include\c++\10.2.1\bits\vector.tcc ****       return __first;
 194:c:\program files\daisytoolchain\arm-none-eabi\include\c++\10.2.1\bits\vector.tcc ****     }
 195:c:\program files\daisytoolchain\arm-none-eabi\include\c++\10.2.1\bits\vector.tcc **** 
 196:c:\program files\daisytoolchain\arm-none-eabi\include\c++\10.2.1\bits\vector.tcc ****   template<typename _Tp, typename _Alloc>
 197:c:\program files\daisytoolchain\arm-none-eabi\include\c++\10.2.1\bits\vector.tcc ****     vector<_Tp, _Alloc>&
 198:c:\program files\daisytoolchain\arm-none-eabi\include\c++\10.2.1\bits\vector.tcc ****     vector<_Tp, _Alloc>::
 199:c:\program files\daisytoolchain\arm-none-eabi\include\c++\10.2.1\bits\vector.tcc ****     operator=(const vector<_Tp, _Alloc>& __x)
 200:c:\program files\daisytoolchain\arm-none-eabi\include\c++\10.2.1\bits\vector.tcc ****     {
ARM GAS  C:\Users\theja\AppData\Local\Temp\ccV0pz5d.s 			page 37


 201:c:\program files\daisytoolchain\arm-none-eabi\include\c++\10.2.1\bits\vector.tcc ****       if (&__x != this)
 202:c:\program files\daisytoolchain\arm-none-eabi\include\c++\10.2.1\bits\vector.tcc **** 	{
 203:c:\program files\daisytoolchain\arm-none-eabi\include\c++\10.2.1\bits\vector.tcc **** 	  _GLIBCXX_ASAN_ANNOTATE_REINIT;
 204:c:\program files\daisytoolchain\arm-none-eabi\include\c++\10.2.1\bits\vector.tcc **** #if __cplusplus >= 201103L
 205:c:\program files\daisytoolchain\arm-none-eabi\include\c++\10.2.1\bits\vector.tcc **** 	  if (_Alloc_traits::_S_propagate_on_copy_assign())
 206:c:\program files\daisytoolchain\arm-none-eabi\include\c++\10.2.1\bits\vector.tcc **** 	    {
 207:c:\program files\daisytoolchain\arm-none-eabi\include\c++\10.2.1\bits\vector.tcc **** 	      if (!_Alloc_traits::_S_always_equal()
 208:c:\program files\daisytoolchain\arm-none-eabi\include\c++\10.2.1\bits\vector.tcc **** 	          && _M_get_Tp_allocator() != __x._M_get_Tp_allocator())
 209:c:\program files\daisytoolchain\arm-none-eabi\include\c++\10.2.1\bits\vector.tcc **** 	        {
 210:c:\program files\daisytoolchain\arm-none-eabi\include\c++\10.2.1\bits\vector.tcc **** 		  // replacement allocator cannot free existing storage
 211:c:\program files\daisytoolchain\arm-none-eabi\include\c++\10.2.1\bits\vector.tcc **** 		  this->clear();
 212:c:\program files\daisytoolchain\arm-none-eabi\include\c++\10.2.1\bits\vector.tcc **** 		  _M_deallocate(this->_M_impl._M_start,
 213:c:\program files\daisytoolchain\arm-none-eabi\include\c++\10.2.1\bits\vector.tcc **** 				this->_M_impl._M_end_of_storage
 214:c:\program files\daisytoolchain\arm-none-eabi\include\c++\10.2.1\bits\vector.tcc **** 				- this->_M_impl._M_start);
 215:c:\program files\daisytoolchain\arm-none-eabi\include\c++\10.2.1\bits\vector.tcc **** 		  this->_M_impl._M_start = nullptr;
 216:c:\program files\daisytoolchain\arm-none-eabi\include\c++\10.2.1\bits\vector.tcc **** 		  this->_M_impl._M_finish = nullptr;
 217:c:\program files\daisytoolchain\arm-none-eabi\include\c++\10.2.1\bits\vector.tcc **** 		  this->_M_impl._M_end_of_storage = nullptr;
 218:c:\program files\daisytoolchain\arm-none-eabi\include\c++\10.2.1\bits\vector.tcc **** 		}
 219:c:\program files\daisytoolchain\arm-none-eabi\include\c++\10.2.1\bits\vector.tcc **** 	      std::__alloc_on_copy(_M_get_Tp_allocator(),
 220:c:\program files\daisytoolchain\arm-none-eabi\include\c++\10.2.1\bits\vector.tcc **** 				   __x._M_get_Tp_allocator());
 221:c:\program files\daisytoolchain\arm-none-eabi\include\c++\10.2.1\bits\vector.tcc **** 	    }
 222:c:\program files\daisytoolchain\arm-none-eabi\include\c++\10.2.1\bits\vector.tcc **** #endif
 223:c:\program files\daisytoolchain\arm-none-eabi\include\c++\10.2.1\bits\vector.tcc **** 	  const size_type __xlen = __x.size();
 224:c:\program files\daisytoolchain\arm-none-eabi\include\c++\10.2.1\bits\vector.tcc **** 	  if (__xlen > capacity())
 225:c:\program files\daisytoolchain\arm-none-eabi\include\c++\10.2.1\bits\vector.tcc **** 	    {
 226:c:\program files\daisytoolchain\arm-none-eabi\include\c++\10.2.1\bits\vector.tcc **** 	      pointer __tmp = _M_allocate_and_copy(__xlen, __x.begin(),
 227:c:\program files\daisytoolchain\arm-none-eabi\include\c++\10.2.1\bits\vector.tcc **** 						   __x.end());
 228:c:\program files\daisytoolchain\arm-none-eabi\include\c++\10.2.1\bits\vector.tcc **** 	      std::_Destroy(this->_M_impl._M_start, this->_M_impl._M_finish,
 229:c:\program files\daisytoolchain\arm-none-eabi\include\c++\10.2.1\bits\vector.tcc **** 			    _M_get_Tp_allocator());
 230:c:\program files\daisytoolchain\arm-none-eabi\include\c++\10.2.1\bits\vector.tcc **** 	      _M_deallocate(this->_M_impl._M_start,
 231:c:\program files\daisytoolchain\arm-none-eabi\include\c++\10.2.1\bits\vector.tcc **** 			    this->_M_impl._M_end_of_storage
 232:c:\program files\daisytoolchain\arm-none-eabi\include\c++\10.2.1\bits\vector.tcc **** 			    - this->_M_impl._M_start);
 233:c:\program files\daisytoolchain\arm-none-eabi\include\c++\10.2.1\bits\vector.tcc **** 	      this->_M_impl._M_start = __tmp;
 234:c:\program files\daisytoolchain\arm-none-eabi\include\c++\10.2.1\bits\vector.tcc **** 	      this->_M_impl._M_end_of_storage = this->_M_impl._M_start + __xlen;
 235:c:\program files\daisytoolchain\arm-none-eabi\include\c++\10.2.1\bits\vector.tcc **** 	    }
 236:c:\program files\daisytoolchain\arm-none-eabi\include\c++\10.2.1\bits\vector.tcc **** 	  else if (size() >= __xlen)
 237:c:\program files\daisytoolchain\arm-none-eabi\include\c++\10.2.1\bits\vector.tcc **** 	    {
 238:c:\program files\daisytoolchain\arm-none-eabi\include\c++\10.2.1\bits\vector.tcc **** 	      std::_Destroy(std::copy(__x.begin(), __x.end(), begin()),
 239:c:\program files\daisytoolchain\arm-none-eabi\include\c++\10.2.1\bits\vector.tcc **** 			    end(), _M_get_Tp_allocator());
 240:c:\program files\daisytoolchain\arm-none-eabi\include\c++\10.2.1\bits\vector.tcc **** 	    }
 241:c:\program files\daisytoolchain\arm-none-eabi\include\c++\10.2.1\bits\vector.tcc **** 	  else
 242:c:\program files\daisytoolchain\arm-none-eabi\include\c++\10.2.1\bits\vector.tcc **** 	    {
 243:c:\program files\daisytoolchain\arm-none-eabi\include\c++\10.2.1\bits\vector.tcc **** 	      std::copy(__x._M_impl._M_start, __x._M_impl._M_start + size(),
 244:c:\program files\daisytoolchain\arm-none-eabi\include\c++\10.2.1\bits\vector.tcc **** 			this->_M_impl._M_start);
 245:c:\program files\daisytoolchain\arm-none-eabi\include\c++\10.2.1\bits\vector.tcc **** 	      std::__uninitialized_copy_a(__x._M_impl._M_start + size(),
 246:c:\program files\daisytoolchain\arm-none-eabi\include\c++\10.2.1\bits\vector.tcc **** 					  __x._M_impl._M_finish,
 247:c:\program files\daisytoolchain\arm-none-eabi\include\c++\10.2.1\bits\vector.tcc **** 					  this->_M_impl._M_finish,
 248:c:\program files\daisytoolchain\arm-none-eabi\include\c++\10.2.1\bits\vector.tcc **** 					  _M_get_Tp_allocator());
 249:c:\program files\daisytoolchain\arm-none-eabi\include\c++\10.2.1\bits\vector.tcc **** 	    }
 250:c:\program files\daisytoolchain\arm-none-eabi\include\c++\10.2.1\bits\vector.tcc **** 	  this->_M_impl._M_finish = this->_M_impl._M_start + __xlen;
 251:c:\program files\daisytoolchain\arm-none-eabi\include\c++\10.2.1\bits\vector.tcc **** 	}
 252:c:\program files\daisytoolchain\arm-none-eabi\include\c++\10.2.1\bits\vector.tcc ****       return *this;
 253:c:\program files\daisytoolchain\arm-none-eabi\include\c++\10.2.1\bits\vector.tcc ****     }
 254:c:\program files\daisytoolchain\arm-none-eabi\include\c++\10.2.1\bits\vector.tcc **** 
 255:c:\program files\daisytoolchain\arm-none-eabi\include\c++\10.2.1\bits\vector.tcc ****   template<typename _Tp, typename _Alloc>
 256:c:\program files\daisytoolchain\arm-none-eabi\include\c++\10.2.1\bits\vector.tcc ****     void
 257:c:\program files\daisytoolchain\arm-none-eabi\include\c++\10.2.1\bits\vector.tcc ****     vector<_Tp, _Alloc>::
ARM GAS  C:\Users\theja\AppData\Local\Temp\ccV0pz5d.s 			page 38


 258:c:\program files\daisytoolchain\arm-none-eabi\include\c++\10.2.1\bits\vector.tcc ****     _M_fill_assign(size_t __n, const value_type& __val)
 259:c:\program files\daisytoolchain\arm-none-eabi\include\c++\10.2.1\bits\vector.tcc ****     {
 260:c:\program files\daisytoolchain\arm-none-eabi\include\c++\10.2.1\bits\vector.tcc ****       if (__n > capacity())
 261:c:\program files\daisytoolchain\arm-none-eabi\include\c++\10.2.1\bits\vector.tcc **** 	{
 262:c:\program files\daisytoolchain\arm-none-eabi\include\c++\10.2.1\bits\vector.tcc **** 	  vector __tmp(__n, __val, _M_get_Tp_allocator());
 263:c:\program files\daisytoolchain\arm-none-eabi\include\c++\10.2.1\bits\vector.tcc **** 	  __tmp._M_impl._M_swap_data(this->_M_impl);
 264:c:\program files\daisytoolchain\arm-none-eabi\include\c++\10.2.1\bits\vector.tcc **** 	}
 265:c:\program files\daisytoolchain\arm-none-eabi\include\c++\10.2.1\bits\vector.tcc ****       else if (__n > size())
 266:c:\program files\daisytoolchain\arm-none-eabi\include\c++\10.2.1\bits\vector.tcc **** 	{
 267:c:\program files\daisytoolchain\arm-none-eabi\include\c++\10.2.1\bits\vector.tcc **** 	  std::fill(begin(), end(), __val);
 268:c:\program files\daisytoolchain\arm-none-eabi\include\c++\10.2.1\bits\vector.tcc **** 	  const size_type __add = __n - size();
 269:c:\program files\daisytoolchain\arm-none-eabi\include\c++\10.2.1\bits\vector.tcc **** 	  _GLIBCXX_ASAN_ANNOTATE_GROW(__add);
 270:c:\program files\daisytoolchain\arm-none-eabi\include\c++\10.2.1\bits\vector.tcc **** 	  this->_M_impl._M_finish =
 271:c:\program files\daisytoolchain\arm-none-eabi\include\c++\10.2.1\bits\vector.tcc **** 	    std::__uninitialized_fill_n_a(this->_M_impl._M_finish,
 272:c:\program files\daisytoolchain\arm-none-eabi\include\c++\10.2.1\bits\vector.tcc **** 					  __add, __val, _M_get_Tp_allocator());
 273:c:\program files\daisytoolchain\arm-none-eabi\include\c++\10.2.1\bits\vector.tcc **** 	  _GLIBCXX_ASAN_ANNOTATE_GREW(__add);
 274:c:\program files\daisytoolchain\arm-none-eabi\include\c++\10.2.1\bits\vector.tcc **** 	}
 275:c:\program files\daisytoolchain\arm-none-eabi\include\c++\10.2.1\bits\vector.tcc ****       else
 276:c:\program files\daisytoolchain\arm-none-eabi\include\c++\10.2.1\bits\vector.tcc ****         _M_erase_at_end(std::fill_n(this->_M_impl._M_start, __n, __val));
 277:c:\program files\daisytoolchain\arm-none-eabi\include\c++\10.2.1\bits\vector.tcc ****     }
 278:c:\program files\daisytoolchain\arm-none-eabi\include\c++\10.2.1\bits\vector.tcc **** 
 279:c:\program files\daisytoolchain\arm-none-eabi\include\c++\10.2.1\bits\vector.tcc ****   template<typename _Tp, typename _Alloc>
 280:c:\program files\daisytoolchain\arm-none-eabi\include\c++\10.2.1\bits\vector.tcc ****     template<typename _InputIterator>
 281:c:\program files\daisytoolchain\arm-none-eabi\include\c++\10.2.1\bits\vector.tcc ****       void
 282:c:\program files\daisytoolchain\arm-none-eabi\include\c++\10.2.1\bits\vector.tcc ****       vector<_Tp, _Alloc>::
 283:c:\program files\daisytoolchain\arm-none-eabi\include\c++\10.2.1\bits\vector.tcc ****       _M_assign_aux(_InputIterator __first, _InputIterator __last,
 284:c:\program files\daisytoolchain\arm-none-eabi\include\c++\10.2.1\bits\vector.tcc **** 		    std::input_iterator_tag)
 285:c:\program files\daisytoolchain\arm-none-eabi\include\c++\10.2.1\bits\vector.tcc ****       {
 286:c:\program files\daisytoolchain\arm-none-eabi\include\c++\10.2.1\bits\vector.tcc **** 	pointer __cur(this->_M_impl._M_start);
 287:c:\program files\daisytoolchain\arm-none-eabi\include\c++\10.2.1\bits\vector.tcc **** 	for (; __first != __last && __cur != this->_M_impl._M_finish;
 288:c:\program files\daisytoolchain\arm-none-eabi\include\c++\10.2.1\bits\vector.tcc **** 	     ++__cur, (void)++__first)
 289:c:\program files\daisytoolchain\arm-none-eabi\include\c++\10.2.1\bits\vector.tcc **** 	  *__cur = *__first;
 290:c:\program files\daisytoolchain\arm-none-eabi\include\c++\10.2.1\bits\vector.tcc **** 	if (__first == __last)
 291:c:\program files\daisytoolchain\arm-none-eabi\include\c++\10.2.1\bits\vector.tcc **** 	  _M_erase_at_end(__cur);
 292:c:\program files\daisytoolchain\arm-none-eabi\include\c++\10.2.1\bits\vector.tcc **** 	else
 293:c:\program files\daisytoolchain\arm-none-eabi\include\c++\10.2.1\bits\vector.tcc **** 	  _M_range_insert(end(), __first, __last,
 294:c:\program files\daisytoolchain\arm-none-eabi\include\c++\10.2.1\bits\vector.tcc **** 			  std::__iterator_category(__first));
 295:c:\program files\daisytoolchain\arm-none-eabi\include\c++\10.2.1\bits\vector.tcc ****       }
 296:c:\program files\daisytoolchain\arm-none-eabi\include\c++\10.2.1\bits\vector.tcc **** 
 297:c:\program files\daisytoolchain\arm-none-eabi\include\c++\10.2.1\bits\vector.tcc ****   template<typename _Tp, typename _Alloc>
 298:c:\program files\daisytoolchain\arm-none-eabi\include\c++\10.2.1\bits\vector.tcc ****     template<typename _ForwardIterator>
 299:c:\program files\daisytoolchain\arm-none-eabi\include\c++\10.2.1\bits\vector.tcc ****       void
 300:c:\program files\daisytoolchain\arm-none-eabi\include\c++\10.2.1\bits\vector.tcc ****       vector<_Tp, _Alloc>::
 301:c:\program files\daisytoolchain\arm-none-eabi\include\c++\10.2.1\bits\vector.tcc ****       _M_assign_aux(_ForwardIterator __first, _ForwardIterator __last,
 302:c:\program files\daisytoolchain\arm-none-eabi\include\c++\10.2.1\bits\vector.tcc **** 		    std::forward_iterator_tag)
 303:c:\program files\daisytoolchain\arm-none-eabi\include\c++\10.2.1\bits\vector.tcc ****       {
 304:c:\program files\daisytoolchain\arm-none-eabi\include\c++\10.2.1\bits\vector.tcc **** 	const size_type __len = std::distance(__first, __last);
 305:c:\program files\daisytoolchain\arm-none-eabi\include\c++\10.2.1\bits\vector.tcc **** 
 306:c:\program files\daisytoolchain\arm-none-eabi\include\c++\10.2.1\bits\vector.tcc **** 	if (__len > capacity())
 307:c:\program files\daisytoolchain\arm-none-eabi\include\c++\10.2.1\bits\vector.tcc **** 	  {
 308:c:\program files\daisytoolchain\arm-none-eabi\include\c++\10.2.1\bits\vector.tcc **** 	    _S_check_init_len(__len, _M_get_Tp_allocator());
 309:c:\program files\daisytoolchain\arm-none-eabi\include\c++\10.2.1\bits\vector.tcc **** 	    pointer __tmp(_M_allocate_and_copy(__len, __first, __last));
 310:c:\program files\daisytoolchain\arm-none-eabi\include\c++\10.2.1\bits\vector.tcc **** 	    std::_Destroy(this->_M_impl._M_start, this->_M_impl._M_finish,
 311:c:\program files\daisytoolchain\arm-none-eabi\include\c++\10.2.1\bits\vector.tcc **** 			  _M_get_Tp_allocator());
 312:c:\program files\daisytoolchain\arm-none-eabi\include\c++\10.2.1\bits\vector.tcc **** 	    _GLIBCXX_ASAN_ANNOTATE_REINIT;
 313:c:\program files\daisytoolchain\arm-none-eabi\include\c++\10.2.1\bits\vector.tcc **** 	    _M_deallocate(this->_M_impl._M_start,
 314:c:\program files\daisytoolchain\arm-none-eabi\include\c++\10.2.1\bits\vector.tcc **** 			  this->_M_impl._M_end_of_storage
ARM GAS  C:\Users\theja\AppData\Local\Temp\ccV0pz5d.s 			page 39


 315:c:\program files\daisytoolchain\arm-none-eabi\include\c++\10.2.1\bits\vector.tcc **** 			  - this->_M_impl._M_start);
 316:c:\program files\daisytoolchain\arm-none-eabi\include\c++\10.2.1\bits\vector.tcc **** 	    this->_M_impl._M_start = __tmp;
 317:c:\program files\daisytoolchain\arm-none-eabi\include\c++\10.2.1\bits\vector.tcc **** 	    this->_M_impl._M_finish = this->_M_impl._M_start + __len;
 318:c:\program files\daisytoolchain\arm-none-eabi\include\c++\10.2.1\bits\vector.tcc **** 	    this->_M_impl._M_end_of_storage = this->_M_impl._M_finish;
 319:c:\program files\daisytoolchain\arm-none-eabi\include\c++\10.2.1\bits\vector.tcc **** 	  }
 320:c:\program files\daisytoolchain\arm-none-eabi\include\c++\10.2.1\bits\vector.tcc **** 	else if (size() >= __len)
 321:c:\program files\daisytoolchain\arm-none-eabi\include\c++\10.2.1\bits\vector.tcc **** 	  _M_erase_at_end(std::copy(__first, __last, this->_M_impl._M_start));
 322:c:\program files\daisytoolchain\arm-none-eabi\include\c++\10.2.1\bits\vector.tcc **** 	else
 323:c:\program files\daisytoolchain\arm-none-eabi\include\c++\10.2.1\bits\vector.tcc **** 	  {
 324:c:\program files\daisytoolchain\arm-none-eabi\include\c++\10.2.1\bits\vector.tcc **** 	    _ForwardIterator __mid = __first;
 325:c:\program files\daisytoolchain\arm-none-eabi\include\c++\10.2.1\bits\vector.tcc **** 	    std::advance(__mid, size());
 326:c:\program files\daisytoolchain\arm-none-eabi\include\c++\10.2.1\bits\vector.tcc **** 	    std::copy(__first, __mid, this->_M_impl._M_start);
 327:c:\program files\daisytoolchain\arm-none-eabi\include\c++\10.2.1\bits\vector.tcc **** 	    const size_type __attribute__((__unused__)) __n = __len - size();
 328:c:\program files\daisytoolchain\arm-none-eabi\include\c++\10.2.1\bits\vector.tcc **** 	    _GLIBCXX_ASAN_ANNOTATE_GROW(__n);
 329:c:\program files\daisytoolchain\arm-none-eabi\include\c++\10.2.1\bits\vector.tcc **** 	    this->_M_impl._M_finish =
 330:c:\program files\daisytoolchain\arm-none-eabi\include\c++\10.2.1\bits\vector.tcc **** 	      std::__uninitialized_copy_a(__mid, __last,
 331:c:\program files\daisytoolchain\arm-none-eabi\include\c++\10.2.1\bits\vector.tcc **** 					  this->_M_impl._M_finish,
 332:c:\program files\daisytoolchain\arm-none-eabi\include\c++\10.2.1\bits\vector.tcc **** 					  _M_get_Tp_allocator());
 333:c:\program files\daisytoolchain\arm-none-eabi\include\c++\10.2.1\bits\vector.tcc **** 	    _GLIBCXX_ASAN_ANNOTATE_GREW(__n);
 334:c:\program files\daisytoolchain\arm-none-eabi\include\c++\10.2.1\bits\vector.tcc **** 	  }
 335:c:\program files\daisytoolchain\arm-none-eabi\include\c++\10.2.1\bits\vector.tcc ****       }
 336:c:\program files\daisytoolchain\arm-none-eabi\include\c++\10.2.1\bits\vector.tcc **** 
 337:c:\program files\daisytoolchain\arm-none-eabi\include\c++\10.2.1\bits\vector.tcc **** #if __cplusplus >= 201103L
 338:c:\program files\daisytoolchain\arm-none-eabi\include\c++\10.2.1\bits\vector.tcc ****   template<typename _Tp, typename _Alloc>
 339:c:\program files\daisytoolchain\arm-none-eabi\include\c++\10.2.1\bits\vector.tcc ****     auto
 340:c:\program files\daisytoolchain\arm-none-eabi\include\c++\10.2.1\bits\vector.tcc ****     vector<_Tp, _Alloc>::
 341:c:\program files\daisytoolchain\arm-none-eabi\include\c++\10.2.1\bits\vector.tcc ****     _M_insert_rval(const_iterator __position, value_type&& __v) -> iterator
 342:c:\program files\daisytoolchain\arm-none-eabi\include\c++\10.2.1\bits\vector.tcc ****     {
 343:c:\program files\daisytoolchain\arm-none-eabi\include\c++\10.2.1\bits\vector.tcc ****       const auto __n = __position - cbegin();
 344:c:\program files\daisytoolchain\arm-none-eabi\include\c++\10.2.1\bits\vector.tcc ****       if (this->_M_impl._M_finish != this->_M_impl._M_end_of_storage)
 345:c:\program files\daisytoolchain\arm-none-eabi\include\c++\10.2.1\bits\vector.tcc **** 	if (__position == cend())
 346:c:\program files\daisytoolchain\arm-none-eabi\include\c++\10.2.1\bits\vector.tcc **** 	  {
 347:c:\program files\daisytoolchain\arm-none-eabi\include\c++\10.2.1\bits\vector.tcc **** 	    _GLIBCXX_ASAN_ANNOTATE_GROW(1);
 348:c:\program files\daisytoolchain\arm-none-eabi\include\c++\10.2.1\bits\vector.tcc **** 	    _Alloc_traits::construct(this->_M_impl, this->_M_impl._M_finish,
 349:c:\program files\daisytoolchain\arm-none-eabi\include\c++\10.2.1\bits\vector.tcc **** 				     std::move(__v));
 350:c:\program files\daisytoolchain\arm-none-eabi\include\c++\10.2.1\bits\vector.tcc **** 	    ++this->_M_impl._M_finish;
 351:c:\program files\daisytoolchain\arm-none-eabi\include\c++\10.2.1\bits\vector.tcc **** 	    _GLIBCXX_ASAN_ANNOTATE_GREW(1);
 352:c:\program files\daisytoolchain\arm-none-eabi\include\c++\10.2.1\bits\vector.tcc **** 	  }
 353:c:\program files\daisytoolchain\arm-none-eabi\include\c++\10.2.1\bits\vector.tcc **** 	else
 354:c:\program files\daisytoolchain\arm-none-eabi\include\c++\10.2.1\bits\vector.tcc **** 	  _M_insert_aux(begin() + __n, std::move(__v));
 355:c:\program files\daisytoolchain\arm-none-eabi\include\c++\10.2.1\bits\vector.tcc ****       else
 356:c:\program files\daisytoolchain\arm-none-eabi\include\c++\10.2.1\bits\vector.tcc **** 	_M_realloc_insert(begin() + __n, std::move(__v));
 357:c:\program files\daisytoolchain\arm-none-eabi\include\c++\10.2.1\bits\vector.tcc **** 
 358:c:\program files\daisytoolchain\arm-none-eabi\include\c++\10.2.1\bits\vector.tcc ****       return iterator(this->_M_impl._M_start + __n);
 359:c:\program files\daisytoolchain\arm-none-eabi\include\c++\10.2.1\bits\vector.tcc ****     }
 360:c:\program files\daisytoolchain\arm-none-eabi\include\c++\10.2.1\bits\vector.tcc **** 
 361:c:\program files\daisytoolchain\arm-none-eabi\include\c++\10.2.1\bits\vector.tcc ****   template<typename _Tp, typename _Alloc>
 362:c:\program files\daisytoolchain\arm-none-eabi\include\c++\10.2.1\bits\vector.tcc ****     template<typename... _Args>
 363:c:\program files\daisytoolchain\arm-none-eabi\include\c++\10.2.1\bits\vector.tcc ****       auto
 364:c:\program files\daisytoolchain\arm-none-eabi\include\c++\10.2.1\bits\vector.tcc ****       vector<_Tp, _Alloc>::
 365:c:\program files\daisytoolchain\arm-none-eabi\include\c++\10.2.1\bits\vector.tcc ****       _M_emplace_aux(const_iterator __position, _Args&&... __args)
 366:c:\program files\daisytoolchain\arm-none-eabi\include\c++\10.2.1\bits\vector.tcc ****       -> iterator
 367:c:\program files\daisytoolchain\arm-none-eabi\include\c++\10.2.1\bits\vector.tcc ****       {
 368:c:\program files\daisytoolchain\arm-none-eabi\include\c++\10.2.1\bits\vector.tcc **** 	const auto __n = __position - cbegin();
 369:c:\program files\daisytoolchain\arm-none-eabi\include\c++\10.2.1\bits\vector.tcc **** 	if (this->_M_impl._M_finish != this->_M_impl._M_end_of_storage)
 370:c:\program files\daisytoolchain\arm-none-eabi\include\c++\10.2.1\bits\vector.tcc **** 	  if (__position == cend())
 371:c:\program files\daisytoolchain\arm-none-eabi\include\c++\10.2.1\bits\vector.tcc **** 	    {
ARM GAS  C:\Users\theja\AppData\Local\Temp\ccV0pz5d.s 			page 40


 372:c:\program files\daisytoolchain\arm-none-eabi\include\c++\10.2.1\bits\vector.tcc **** 	      _GLIBCXX_ASAN_ANNOTATE_GROW(1);
 373:c:\program files\daisytoolchain\arm-none-eabi\include\c++\10.2.1\bits\vector.tcc **** 	      _Alloc_traits::construct(this->_M_impl, this->_M_impl._M_finish,
 374:c:\program files\daisytoolchain\arm-none-eabi\include\c++\10.2.1\bits\vector.tcc **** 				       std::forward<_Args>(__args)...);
 375:c:\program files\daisytoolchain\arm-none-eabi\include\c++\10.2.1\bits\vector.tcc **** 	      ++this->_M_impl._M_finish;
 376:c:\program files\daisytoolchain\arm-none-eabi\include\c++\10.2.1\bits\vector.tcc **** 	      _GLIBCXX_ASAN_ANNOTATE_GREW(1);
 377:c:\program files\daisytoolchain\arm-none-eabi\include\c++\10.2.1\bits\vector.tcc **** 	    }
 378:c:\program files\daisytoolchain\arm-none-eabi\include\c++\10.2.1\bits\vector.tcc **** 	  else
 379:c:\program files\daisytoolchain\arm-none-eabi\include\c++\10.2.1\bits\vector.tcc **** 	    {
 380:c:\program files\daisytoolchain\arm-none-eabi\include\c++\10.2.1\bits\vector.tcc **** 	      // We need to construct a temporary because something in __args...
 381:c:\program files\daisytoolchain\arm-none-eabi\include\c++\10.2.1\bits\vector.tcc **** 	      // could alias one of the elements of the container and so we
 382:c:\program files\daisytoolchain\arm-none-eabi\include\c++\10.2.1\bits\vector.tcc **** 	      // need to use it before _M_insert_aux moves elements around.
 383:c:\program files\daisytoolchain\arm-none-eabi\include\c++\10.2.1\bits\vector.tcc **** 	      _Temporary_value __tmp(this, std::forward<_Args>(__args)...);
 384:c:\program files\daisytoolchain\arm-none-eabi\include\c++\10.2.1\bits\vector.tcc **** 	      _M_insert_aux(begin() + __n, std::move(__tmp._M_val()));
 385:c:\program files\daisytoolchain\arm-none-eabi\include\c++\10.2.1\bits\vector.tcc **** 	    }
 386:c:\program files\daisytoolchain\arm-none-eabi\include\c++\10.2.1\bits\vector.tcc **** 	else
 387:c:\program files\daisytoolchain\arm-none-eabi\include\c++\10.2.1\bits\vector.tcc **** 	  _M_realloc_insert(begin() + __n, std::forward<_Args>(__args)...);
 388:c:\program files\daisytoolchain\arm-none-eabi\include\c++\10.2.1\bits\vector.tcc **** 
 389:c:\program files\daisytoolchain\arm-none-eabi\include\c++\10.2.1\bits\vector.tcc **** 	return iterator(this->_M_impl._M_start + __n);
 390:c:\program files\daisytoolchain\arm-none-eabi\include\c++\10.2.1\bits\vector.tcc ****       }
 391:c:\program files\daisytoolchain\arm-none-eabi\include\c++\10.2.1\bits\vector.tcc **** 
 392:c:\program files\daisytoolchain\arm-none-eabi\include\c++\10.2.1\bits\vector.tcc ****   template<typename _Tp, typename _Alloc>
 393:c:\program files\daisytoolchain\arm-none-eabi\include\c++\10.2.1\bits\vector.tcc ****     template<typename _Arg>
 394:c:\program files\daisytoolchain\arm-none-eabi\include\c++\10.2.1\bits\vector.tcc ****       void
 395:c:\program files\daisytoolchain\arm-none-eabi\include\c++\10.2.1\bits\vector.tcc ****       vector<_Tp, _Alloc>::
 396:c:\program files\daisytoolchain\arm-none-eabi\include\c++\10.2.1\bits\vector.tcc ****       _M_insert_aux(iterator __position, _Arg&& __arg)
 397:c:\program files\daisytoolchain\arm-none-eabi\include\c++\10.2.1\bits\vector.tcc **** #else
 398:c:\program files\daisytoolchain\arm-none-eabi\include\c++\10.2.1\bits\vector.tcc ****   template<typename _Tp, typename _Alloc>
 399:c:\program files\daisytoolchain\arm-none-eabi\include\c++\10.2.1\bits\vector.tcc ****     void
 400:c:\program files\daisytoolchain\arm-none-eabi\include\c++\10.2.1\bits\vector.tcc ****     vector<_Tp, _Alloc>::
 401:c:\program files\daisytoolchain\arm-none-eabi\include\c++\10.2.1\bits\vector.tcc ****     _M_insert_aux(iterator __position, const _Tp& __x)
 402:c:\program files\daisytoolchain\arm-none-eabi\include\c++\10.2.1\bits\vector.tcc **** #endif
 403:c:\program files\daisytoolchain\arm-none-eabi\include\c++\10.2.1\bits\vector.tcc ****     {
 404:c:\program files\daisytoolchain\arm-none-eabi\include\c++\10.2.1\bits\vector.tcc ****       _GLIBCXX_ASAN_ANNOTATE_GROW(1);
 405:c:\program files\daisytoolchain\arm-none-eabi\include\c++\10.2.1\bits\vector.tcc ****       _Alloc_traits::construct(this->_M_impl, this->_M_impl._M_finish,
 406:c:\program files\daisytoolchain\arm-none-eabi\include\c++\10.2.1\bits\vector.tcc **** 			       _GLIBCXX_MOVE(*(this->_M_impl._M_finish - 1)));
 407:c:\program files\daisytoolchain\arm-none-eabi\include\c++\10.2.1\bits\vector.tcc ****       ++this->_M_impl._M_finish;
 408:c:\program files\daisytoolchain\arm-none-eabi\include\c++\10.2.1\bits\vector.tcc ****       _GLIBCXX_ASAN_ANNOTATE_GREW(1);
 409:c:\program files\daisytoolchain\arm-none-eabi\include\c++\10.2.1\bits\vector.tcc **** #if __cplusplus < 201103L
 410:c:\program files\daisytoolchain\arm-none-eabi\include\c++\10.2.1\bits\vector.tcc ****       _Tp __x_copy = __x;
 411:c:\program files\daisytoolchain\arm-none-eabi\include\c++\10.2.1\bits\vector.tcc **** #endif
 412:c:\program files\daisytoolchain\arm-none-eabi\include\c++\10.2.1\bits\vector.tcc ****       _GLIBCXX_MOVE_BACKWARD3(__position.base(),
 413:c:\program files\daisytoolchain\arm-none-eabi\include\c++\10.2.1\bits\vector.tcc **** 			      this->_M_impl._M_finish - 2,
 414:c:\program files\daisytoolchain\arm-none-eabi\include\c++\10.2.1\bits\vector.tcc **** 			      this->_M_impl._M_finish - 1);
 415:c:\program files\daisytoolchain\arm-none-eabi\include\c++\10.2.1\bits\vector.tcc **** #if __cplusplus < 201103L
 416:c:\program files\daisytoolchain\arm-none-eabi\include\c++\10.2.1\bits\vector.tcc ****       *__position = __x_copy;
 417:c:\program files\daisytoolchain\arm-none-eabi\include\c++\10.2.1\bits\vector.tcc **** #else
 418:c:\program files\daisytoolchain\arm-none-eabi\include\c++\10.2.1\bits\vector.tcc ****       *__position = std::forward<_Arg>(__arg);
 419:c:\program files\daisytoolchain\arm-none-eabi\include\c++\10.2.1\bits\vector.tcc **** #endif
 420:c:\program files\daisytoolchain\arm-none-eabi\include\c++\10.2.1\bits\vector.tcc ****     }
 421:c:\program files\daisytoolchain\arm-none-eabi\include\c++\10.2.1\bits\vector.tcc **** 
 422:c:\program files\daisytoolchain\arm-none-eabi\include\c++\10.2.1\bits\vector.tcc **** #if __cplusplus >= 201103L
 423:c:\program files\daisytoolchain\arm-none-eabi\include\c++\10.2.1\bits\vector.tcc ****   template<typename _Tp, typename _Alloc>
 424:c:\program files\daisytoolchain\arm-none-eabi\include\c++\10.2.1\bits\vector.tcc ****     template<typename... _Args>
 425:c:\program files\daisytoolchain\arm-none-eabi\include\c++\10.2.1\bits\vector.tcc ****       void
 426:c:\program files\daisytoolchain\arm-none-eabi\include\c++\10.2.1\bits\vector.tcc ****       vector<_Tp, _Alloc>::
 470              		.loc 5 426 7 is_stmt 1 view -0
 471              		.cfi_startproc
ARM GAS  C:\Users\theja\AppData\Local\Temp\ccV0pz5d.s 			page 41


 472              		@ args = 0, pretend = 0, frame = 8
 473              		@ frame_needed = 0, uses_anonymous_args = 0
 474              		.loc 5 426 7 is_stmt 0 view .LVU126
 475 0000 2DE9F04F 		push	{r4, r5, r6, r7, r8, r9, r10, fp, lr}
 476              		.cfi_def_cfa_offset 36
 477              		.cfi_offset 4, -36
 478              		.cfi_offset 5, -32
 479              		.cfi_offset 6, -28
 480              		.cfi_offset 7, -24
 481              		.cfi_offset 8, -20
 482              		.cfi_offset 9, -16
 483              		.cfi_offset 10, -12
 484              		.cfi_offset 11, -8
 485              		.cfi_offset 14, -4
 486 0004 D0E900A7 		ldrd	r10, r7, [r0]
 487 0008 0E46     		mov	r6, r1
 488              	.LVL30:
 489              	.LBB368:
 490              	.LBI368:
1047:c:\program files\daisytoolchain\arm-none-eabi\include\c++\10.2.1\bits\stl_vector.h ****       }
1048:c:\program files\daisytoolchain\arm-none-eabi\include\c++\10.2.1\bits\stl_vector.h **** 
1049:c:\program files\daisytoolchain\arm-none-eabi\include\c++\10.2.1\bits\stl_vector.h ****       /**
1050:c:\program files\daisytoolchain\arm-none-eabi\include\c++\10.2.1\bits\stl_vector.h ****        *  @brief  Subscript access to the data contained in the %vector.
1051:c:\program files\daisytoolchain\arm-none-eabi\include\c++\10.2.1\bits\stl_vector.h ****        *  @param __n The index of the element for which data should be
1052:c:\program files\daisytoolchain\arm-none-eabi\include\c++\10.2.1\bits\stl_vector.h ****        *  accessed.
1053:c:\program files\daisytoolchain\arm-none-eabi\include\c++\10.2.1\bits\stl_vector.h ****        *  @return  Read-only (constant) reference to data.
1054:c:\program files\daisytoolchain\arm-none-eabi\include\c++\10.2.1\bits\stl_vector.h ****        *
1055:c:\program files\daisytoolchain\arm-none-eabi\include\c++\10.2.1\bits\stl_vector.h ****        *  This operator allows for easy, array-style, data access.
1056:c:\program files\daisytoolchain\arm-none-eabi\include\c++\10.2.1\bits\stl_vector.h ****        *  Note that data access with this operator is unchecked and
1057:c:\program files\daisytoolchain\arm-none-eabi\include\c++\10.2.1\bits\stl_vector.h ****        *  out_of_range lookups are not defined. (For checked lookups
1058:c:\program files\daisytoolchain\arm-none-eabi\include\c++\10.2.1\bits\stl_vector.h ****        *  see at().)
1059:c:\program files\daisytoolchain\arm-none-eabi\include\c++\10.2.1\bits\stl_vector.h ****        */
1060:c:\program files\daisytoolchain\arm-none-eabi\include\c++\10.2.1\bits\stl_vector.h ****       const_reference
1061:c:\program files\daisytoolchain\arm-none-eabi\include\c++\10.2.1\bits\stl_vector.h ****       operator[](size_type __n) const _GLIBCXX_NOEXCEPT
1062:c:\program files\daisytoolchain\arm-none-eabi\include\c++\10.2.1\bits\stl_vector.h ****       {
1063:c:\program files\daisytoolchain\arm-none-eabi\include\c++\10.2.1\bits\stl_vector.h **** 	__glibcxx_requires_subscript(__n);
1064:c:\program files\daisytoolchain\arm-none-eabi\include\c++\10.2.1\bits\stl_vector.h **** 	return *(this->_M_impl._M_start + __n);
1065:c:\program files\daisytoolchain\arm-none-eabi\include\c++\10.2.1\bits\stl_vector.h ****       }
1066:c:\program files\daisytoolchain\arm-none-eabi\include\c++\10.2.1\bits\stl_vector.h **** 
1067:c:\program files\daisytoolchain\arm-none-eabi\include\c++\10.2.1\bits\stl_vector.h ****     protected:
1068:c:\program files\daisytoolchain\arm-none-eabi\include\c++\10.2.1\bits\stl_vector.h ****       /// Safety check used only from at().
1069:c:\program files\daisytoolchain\arm-none-eabi\include\c++\10.2.1\bits\stl_vector.h ****       void
1070:c:\program files\daisytoolchain\arm-none-eabi\include\c++\10.2.1\bits\stl_vector.h ****       _M_range_check(size_type __n) const
1071:c:\program files\daisytoolchain\arm-none-eabi\include\c++\10.2.1\bits\stl_vector.h ****       {
1072:c:\program files\daisytoolchain\arm-none-eabi\include\c++\10.2.1\bits\stl_vector.h **** 	if (__n >= this->size())
1073:c:\program files\daisytoolchain\arm-none-eabi\include\c++\10.2.1\bits\stl_vector.h **** 	  __throw_out_of_range_fmt(__N("vector::_M_range_check: __n "
1074:c:\program files\daisytoolchain\arm-none-eabi\include\c++\10.2.1\bits\stl_vector.h **** 				       "(which is %zu) >= this->size() "
1075:c:\program files\daisytoolchain\arm-none-eabi\include\c++\10.2.1\bits\stl_vector.h **** 				       "(which is %zu)"),
1076:c:\program files\daisytoolchain\arm-none-eabi\include\c++\10.2.1\bits\stl_vector.h **** 				   __n, this->size());
1077:c:\program files\daisytoolchain\arm-none-eabi\include\c++\10.2.1\bits\stl_vector.h ****       }
1078:c:\program files\daisytoolchain\arm-none-eabi\include\c++\10.2.1\bits\stl_vector.h **** 
1079:c:\program files\daisytoolchain\arm-none-eabi\include\c++\10.2.1\bits\stl_vector.h ****     public:
1080:c:\program files\daisytoolchain\arm-none-eabi\include\c++\10.2.1\bits\stl_vector.h ****       /**
1081:c:\program files\daisytoolchain\arm-none-eabi\include\c++\10.2.1\bits\stl_vector.h ****        *  @brief  Provides access to the data contained in the %vector.
1082:c:\program files\daisytoolchain\arm-none-eabi\include\c++\10.2.1\bits\stl_vector.h ****        *  @param __n The index of the element for which data should be
1083:c:\program files\daisytoolchain\arm-none-eabi\include\c++\10.2.1\bits\stl_vector.h ****        *  accessed.
1084:c:\program files\daisytoolchain\arm-none-eabi\include\c++\10.2.1\bits\stl_vector.h ****        *  @return  Read/write reference to data.
ARM GAS  C:\Users\theja\AppData\Local\Temp\ccV0pz5d.s 			page 42


1085:c:\program files\daisytoolchain\arm-none-eabi\include\c++\10.2.1\bits\stl_vector.h ****        *  @throw  std::out_of_range  If @a __n is an invalid index.
1086:c:\program files\daisytoolchain\arm-none-eabi\include\c++\10.2.1\bits\stl_vector.h ****        *
1087:c:\program files\daisytoolchain\arm-none-eabi\include\c++\10.2.1\bits\stl_vector.h ****        *  This function provides for safer data access.  The parameter
1088:c:\program files\daisytoolchain\arm-none-eabi\include\c++\10.2.1\bits\stl_vector.h ****        *  is first checked that it is in the range of the vector.  The
1089:c:\program files\daisytoolchain\arm-none-eabi\include\c++\10.2.1\bits\stl_vector.h ****        *  function throws out_of_range if the check fails.
1090:c:\program files\daisytoolchain\arm-none-eabi\include\c++\10.2.1\bits\stl_vector.h ****        */
1091:c:\program files\daisytoolchain\arm-none-eabi\include\c++\10.2.1\bits\stl_vector.h ****       reference
1092:c:\program files\daisytoolchain\arm-none-eabi\include\c++\10.2.1\bits\stl_vector.h ****       at(size_type __n)
1093:c:\program files\daisytoolchain\arm-none-eabi\include\c++\10.2.1\bits\stl_vector.h ****       {
1094:c:\program files\daisytoolchain\arm-none-eabi\include\c++\10.2.1\bits\stl_vector.h **** 	_M_range_check(__n);
1095:c:\program files\daisytoolchain\arm-none-eabi\include\c++\10.2.1\bits\stl_vector.h **** 	return (*this)[__n];
1096:c:\program files\daisytoolchain\arm-none-eabi\include\c++\10.2.1\bits\stl_vector.h ****       }
1097:c:\program files\daisytoolchain\arm-none-eabi\include\c++\10.2.1\bits\stl_vector.h **** 
1098:c:\program files\daisytoolchain\arm-none-eabi\include\c++\10.2.1\bits\stl_vector.h ****       /**
1099:c:\program files\daisytoolchain\arm-none-eabi\include\c++\10.2.1\bits\stl_vector.h ****        *  @brief  Provides access to the data contained in the %vector.
1100:c:\program files\daisytoolchain\arm-none-eabi\include\c++\10.2.1\bits\stl_vector.h ****        *  @param __n The index of the element for which data should be
1101:c:\program files\daisytoolchain\arm-none-eabi\include\c++\10.2.1\bits\stl_vector.h ****        *  accessed.
1102:c:\program files\daisytoolchain\arm-none-eabi\include\c++\10.2.1\bits\stl_vector.h ****        *  @return  Read-only (constant) reference to data.
1103:c:\program files\daisytoolchain\arm-none-eabi\include\c++\10.2.1\bits\stl_vector.h ****        *  @throw  std::out_of_range  If @a __n is an invalid index.
1104:c:\program files\daisytoolchain\arm-none-eabi\include\c++\10.2.1\bits\stl_vector.h ****        *
1105:c:\program files\daisytoolchain\arm-none-eabi\include\c++\10.2.1\bits\stl_vector.h ****        *  This function provides for safer data access.  The parameter
1106:c:\program files\daisytoolchain\arm-none-eabi\include\c++\10.2.1\bits\stl_vector.h ****        *  is first checked that it is in the range of the vector.  The
1107:c:\program files\daisytoolchain\arm-none-eabi\include\c++\10.2.1\bits\stl_vector.h ****        *  function throws out_of_range if the check fails.
1108:c:\program files\daisytoolchain\arm-none-eabi\include\c++\10.2.1\bits\stl_vector.h ****        */
1109:c:\program files\daisytoolchain\arm-none-eabi\include\c++\10.2.1\bits\stl_vector.h ****       const_reference
1110:c:\program files\daisytoolchain\arm-none-eabi\include\c++\10.2.1\bits\stl_vector.h ****       at(size_type __n) const
1111:c:\program files\daisytoolchain\arm-none-eabi\include\c++\10.2.1\bits\stl_vector.h ****       {
1112:c:\program files\daisytoolchain\arm-none-eabi\include\c++\10.2.1\bits\stl_vector.h **** 	_M_range_check(__n);
1113:c:\program files\daisytoolchain\arm-none-eabi\include\c++\10.2.1\bits\stl_vector.h **** 	return (*this)[__n];
1114:c:\program files\daisytoolchain\arm-none-eabi\include\c++\10.2.1\bits\stl_vector.h ****       }
1115:c:\program files\daisytoolchain\arm-none-eabi\include\c++\10.2.1\bits\stl_vector.h **** 
1116:c:\program files\daisytoolchain\arm-none-eabi\include\c++\10.2.1\bits\stl_vector.h ****       /**
1117:c:\program files\daisytoolchain\arm-none-eabi\include\c++\10.2.1\bits\stl_vector.h ****        *  Returns a read/write reference to the data at the first
1118:c:\program files\daisytoolchain\arm-none-eabi\include\c++\10.2.1\bits\stl_vector.h ****        *  element of the %vector.
1119:c:\program files\daisytoolchain\arm-none-eabi\include\c++\10.2.1\bits\stl_vector.h ****        */
1120:c:\program files\daisytoolchain\arm-none-eabi\include\c++\10.2.1\bits\stl_vector.h ****       reference
1121:c:\program files\daisytoolchain\arm-none-eabi\include\c++\10.2.1\bits\stl_vector.h ****       front() _GLIBCXX_NOEXCEPT
1122:c:\program files\daisytoolchain\arm-none-eabi\include\c++\10.2.1\bits\stl_vector.h ****       {
1123:c:\program files\daisytoolchain\arm-none-eabi\include\c++\10.2.1\bits\stl_vector.h **** 	__glibcxx_requires_nonempty();
1124:c:\program files\daisytoolchain\arm-none-eabi\include\c++\10.2.1\bits\stl_vector.h **** 	return *begin();
1125:c:\program files\daisytoolchain\arm-none-eabi\include\c++\10.2.1\bits\stl_vector.h ****       }
1126:c:\program files\daisytoolchain\arm-none-eabi\include\c++\10.2.1\bits\stl_vector.h **** 
1127:c:\program files\daisytoolchain\arm-none-eabi\include\c++\10.2.1\bits\stl_vector.h ****       /**
1128:c:\program files\daisytoolchain\arm-none-eabi\include\c++\10.2.1\bits\stl_vector.h ****        *  Returns a read-only (constant) reference to the data at the first
1129:c:\program files\daisytoolchain\arm-none-eabi\include\c++\10.2.1\bits\stl_vector.h ****        *  element of the %vector.
1130:c:\program files\daisytoolchain\arm-none-eabi\include\c++\10.2.1\bits\stl_vector.h ****        */
1131:c:\program files\daisytoolchain\arm-none-eabi\include\c++\10.2.1\bits\stl_vector.h ****       const_reference
1132:c:\program files\daisytoolchain\arm-none-eabi\include\c++\10.2.1\bits\stl_vector.h ****       front() const _GLIBCXX_NOEXCEPT
1133:c:\program files\daisytoolchain\arm-none-eabi\include\c++\10.2.1\bits\stl_vector.h ****       {
1134:c:\program files\daisytoolchain\arm-none-eabi\include\c++\10.2.1\bits\stl_vector.h **** 	__glibcxx_requires_nonempty();
1135:c:\program files\daisytoolchain\arm-none-eabi\include\c++\10.2.1\bits\stl_vector.h **** 	return *begin();
1136:c:\program files\daisytoolchain\arm-none-eabi\include\c++\10.2.1\bits\stl_vector.h ****       }
1137:c:\program files\daisytoolchain\arm-none-eabi\include\c++\10.2.1\bits\stl_vector.h **** 
1138:c:\program files\daisytoolchain\arm-none-eabi\include\c++\10.2.1\bits\stl_vector.h ****       /**
1139:c:\program files\daisytoolchain\arm-none-eabi\include\c++\10.2.1\bits\stl_vector.h ****        *  Returns a read/write reference to the data at the last
1140:c:\program files\daisytoolchain\arm-none-eabi\include\c++\10.2.1\bits\stl_vector.h ****        *  element of the %vector.
1141:c:\program files\daisytoolchain\arm-none-eabi\include\c++\10.2.1\bits\stl_vector.h ****        */
ARM GAS  C:\Users\theja\AppData\Local\Temp\ccV0pz5d.s 			page 43


1142:c:\program files\daisytoolchain\arm-none-eabi\include\c++\10.2.1\bits\stl_vector.h ****       reference
1143:c:\program files\daisytoolchain\arm-none-eabi\include\c++\10.2.1\bits\stl_vector.h ****       back() _GLIBCXX_NOEXCEPT
1144:c:\program files\daisytoolchain\arm-none-eabi\include\c++\10.2.1\bits\stl_vector.h ****       {
